 driver_test_slrt

 Timestamp is 5c049637 (Mon Dec  3 13:34:31 2018)

 Preferred load address is 10000000

 Start         Length     Name                   Class
 0001:00000000 00061378H .text$mn                CODE
 0002:00000000 00000104H .CRT$XCA                DATA
 0002:00000104 00000104H .CRT$XCZ                DATA
 0002:00000208 00000104H .CRT$XIA                DATA
 0002:0000030c 00000110H .CRT$XIC                DATA
 0002:0000041c 00000104H .CRT$XIZ                DATA
 0002:00000520 00000104H .CRT$XPA                DATA
 0002:00000624 0000010cH .CRT$XPX                DATA
 0002:00000730 00000104H .CRT$XPXA               DATA
 0002:00000834 00000104H .CRT$XPZ                DATA
 0002:00000938 00000104H .CRT$XTA                DATA
 0002:00000a3c 00000104H .CRT$XTZ                DATA
 0002:00000b40 0000cc38H .rdata                  DATA
 0002:0000d778 00000398H .rdata$r                DATA
 0002:0000db10 00000110H .rdata$sxdata           DATA
 0002:0000dc20 000001acH .rdata$zzzdbg           DATA
 0002:0000ddcc 00000104H .rtc$IAA                DATA
 0002:0000ded0 00000104H .rtc$IZZ                DATA
 0002:0000dfd4 00000104H .rtc$TAA                DATA
 0002:0000e0d8 00000108H .rtc$TZZ                DATA
 0002:0000e1e0 00000ac0H .xdata$x                DATA
 0002:0000eca0 00000204H .edata                  DATA
 0003:00000000 00000e70H .data                   DATA
 0003:00000e70 000001f0H .data$r                 DATA
 0003:00001060 000139b8H .bss                    DATA
 0004:00000000 000001d4H .idata$5                DATA
 0004:000001d4 00000014H .idata$2                DATA
 0004:000001e8 00000014H .idata$3                DATA
 0004:000001fc 000001d4H .idata$4                DATA
 0004:000003d0 00000843H .idata$6                DATA
 0005:00000000 00000224H .gfids$x                DATA
 0005:00000224 000001a5H .gfids$y                DATA
 0006:00000000 00000104H .00cfg                  DATA

  Address         Publics by Value              Rva+Base       Lib:Object

 0000:00000000       ___guard_iat_table         00000000     <absolute>
 0000:00000000       ___guard_iat_count         00000000     <absolute>
 0000:00000000       ___guard_longjmp_table     00000000     <absolute>
 0000:00000000       ___guard_fids_count        00000000     <absolute>
 0000:00000000       ___guard_longjmp_count     00000000     <absolute>
 0000:00000000       ___guard_fids_table        00000000     <absolute>
 0000:00000000       __except_list              00000000     <absolute>
 0000:00000000       ___dynamic_value_reloc_table 00000000     <absolute>
 0000:00000003       ___safe_se_handler_count   00000003     <absolute>
 0000:00000100       ___guard_flags             00000100     <absolute>
 0000:00000000       ___ImageBase               10000000     <linker-defined>
 0001:00005f40       _MdlInitialize             10006f40 f   driver_test.obj
 0001:00005f50       _MdlInitializeSampleTimes  10006f50 f   driver_test.obj
 0001:00005f60       _MdlInitializeSizes        10006f60 f   driver_test.obj
 0001:00005f70       _MdlOutputs                10006f70 f   driver_test.obj
 0001:00005fb0       _MdlStart                  10006fb0 f   driver_test.obj
 0001:00005fc0       _MdlTerminate              10006fc0 f   driver_test.obj
 0001:00005fe0       _MdlUpdate                 10006fe0 f   driver_test.obj
 0001:00006070       ___local_stdio_printf_options 10007070 f i driver_test.obj
 0001:00006080       __vfprintf_l               10007080 f i driver_test.obj
 0001:000060b0       _driver_test               100070b0 f   driver_test.obj
 0001:00006cc0       _printf                    10007cc0 f i driver_test.obj
 0001:00006d00       _rt_mxCreateCharMatrixFromStrings 10007d00 f   rt_matrx.obj
 0001:00006e60       _rt_mxCreateDoubleMatrix   10007e60 f   rt_matrx.obj
 0001:00006ec0       _rt_mxCreateNumericArray   10007ec0 f   rt_matrx.obj
 0001:00006f40       _rt_mxCreateString         10007f40 f   rt_matrx.obj
 0001:00006fd0       _rt_mxDuplicateArray       10007fd0 f   rt_matrx.obj
 0001:00007030       _rt_mxGetDimensions        10008030 f   rt_matrx.obj
 0001:00007070       _rt_mxGetEps               10008070 f   rt_matrx.obj
 0001:00007080       _rt_mxGetString            10008080 f   rt_matrx.obj
 0001:00007100       _rtPrintfNoOp              10008100 f   rt_printf.obj
 0001:00007110       __vsnprintf_l              10008110 f i rt_logging.obj
 0001:00007150       __vsprintf_l               10008150 f i rt_logging.obj
 0001:00007190       _fprintf                   10008190 f i rt_logging.obj
 0001:00007aa0       _rt_CreateLogVar           10008aa0 f   rt_logging.obj
 0001:00007b30       _rt_CreateLogVarWithConvert 10008b30 f   rt_logging.obj
 0001:000084b0       _rt_CreateStructLogVar     100094b0 f   rt_logging.obj
 0001:00009210       _rt_GetMxIdFromDTypeId     1000a210 f   rt_logging.obj
 0001:00009240       _rt_GetMxIdFromDTypeIdForRSim 1000a240 f   rt_logging.obj
 0001:0000bb20       _rt_StartDataLogging       1000cb20 f   rt_logging.obj
 0001:0000bfe0       _rt_StartDataLoggingWithStartTime 1000cfe0 f   rt_logging.obj
 0001:0000c940       _rt_StopDataLogging        1000d940 f   rt_logging.obj
 0001:0000c960       _rt_StopDataLoggingImpl    1000d960 f   rt_logging.obj
 0001:0000cc90       _rt_UpdateLogVar           1000dc90 f   rt_logging.obj
 0001:0000ddb0       _rt_UpdateStructLogVar     1000edb0 f   rt_logging.obj
 0001:0000de40       _rt_UpdateTXXFYLogVars     1000ee40 f   rt_logging.obj
 0001:0000e2a0       _rt_UpdateTXYLogVars       1000f2a0 f   rt_logging.obj
 0001:0000e4f0       _rt_getTempMemory          1000f4f0 f   rt_logging.obj
 0001:0000e540       _sprintf                   1000f540 f i rt_logging.obj
 0001:0000e580       _driver_test_GetCAPIStaticMap 1000f580 f   driver_test_capi.obj
 0001:0000e590       _driver_test_InitializeDataMapInfo 1000f590 f   driver_test_capi.obj
 0001:0000e660       _mdlXcp_GetMdlXcpInfo      1000f660 f   driver_test_xcp.obj
 0001:0000e670       _SLRT_update_TET           1000f670 f   driver_test_xcp_TET.obj
 0001:0000e740       _rtGetInf                  1000f740 f   rtGetInf.obj
 0001:0000e770       _rtGetInfF                 1000f770 f   rtGetInf.obj
 0001:0000e790       _rtGetMinusInf             1000f790 f   rtGetInf.obj
 0001:0000e7c0       _rtGetMinusInfF            1000f7c0 f   rtGetInf.obj
 0001:0000e7e0       _rtGetNaN                  1000f7e0 f   rtGetNaN.obj
 0001:0000e810       _rtGetNaNF                 1000f810 f   rtGetNaN.obj
 0001:0000e830       _rtIsInf                   1000f830 f   rt_nonfinite.obj
 0001:0000e870       _rtIsInfF                  1000f870 f   rt_nonfinite.obj
 0001:0000e8b0       _rtIsNaN                   1000f8b0 f   rt_nonfinite.obj
 0001:0000e8d0       _rtIsNaNF                  1000f8d0 f   rt_nonfinite.obj
 0001:0000e8f0       _rt_InitInfAndNaN          1000f8f0 f   rt_nonfinite.obj
 0001:0000e950       _rt_CleanUpForStateLogWithMMI 1000f950 f   rt_logging_mmi.obj
 0001:0000ea60       _rt_FillStateSigInfoFromMMI 1000fa60 f   rt_logging_mmi.obj
 0001:0000ee00       _rtwCAPI_CountSysRan       1000fe00 f   rtw_modelmap_utils.obj
 0001:0000eea0       _rtwCAPI_EncodePath        1000fea0 f   rtw_modelmap_utils.obj
 0001:0000efa0       _rtwCAPI_FillSysRan        1000ffa0 f   rtw_modelmap_utils.obj
 0001:0000f090       _rtwCAPI_FreeFullPaths     10010090 f   rtw_modelmap_utils.obj
 0001:0000f120       _rtwCAPI_GetFullStateBlockPath 10010120 f   rtw_modelmap_utils.obj
 0001:0000f2d0       _rtwCAPI_GetNumContStateRecords 100102d0 f   rtw_modelmap_utils.obj
 0001:0000f390       _rtwCAPI_GetNumSigLogRecords 10010390 f   rtw_modelmap_utils.obj
 0001:0000f3e0       _rtwCAPI_GetNumSigLogRecordsForRTWLogging 100103e0 f   rtw_modelmap_utils.obj
 0001:0000f480       _rtwCAPI_GetNumStateRecords 10010480 f   rtw_modelmap_utils.obj
 0001:0000f4d0       _rtwCAPI_GetNumStateRecordsForRTWLogging 100104d0 f   rtw_modelmap_utils.obj
 0001:0000f570       _rtwCAPI_GetSigAddrFromMap 10010570 f   rtw_modelmap_utils.obj
 0001:0000f630       _rtwCAPI_GetSigLogRecordInfo 10010630 f   rtw_modelmap_utils.obj
 0001:0000fa60       _rtwCAPI_GetStateRecordInfo 10010a60 f   rtw_modelmap_utils.obj
 0001:0000ff10       _rtwCAPI_GetStateWidth     10010f10 f   rtw_modelmap_utils.obj
 0001:0000ff70       _rtwCAPI_HasStates         10010f70 f   rtw_modelmap_utils.obj
 0001:0000ffe0       _rtwCAPI_UpdateFullPaths   10010fe0 f   rtw_modelmap_utils.obj
 0001:000101c0       _timestamp_x86             100111c0 f   host_timer_x86.obj
 0001:000101d0       _taskTimeEnd               100111d0 f   xpc_code_profiling_utility_functions.obj
 0001:000101e0       _taskTimeEnd_              100111e0 f   xpc_code_profiling_utility_functions.obj
 0001:000101f0       _taskTimeStart             100111f0 f   xpc_code_profiling_utility_functions.obj
 0001:00010200       _taskTimeStart_            10011200 f   xpc_code_profiling_utility_functions.obj
 0001:00010210       _xilProfilingTimerFreeze   10011210 f   xpc_code_profiling_utility_functions.obj
 0001:00010220       _xilProfilingTimerUnFreeze 10011220 f   xpc_code_profiling_utility_functions.obj
 0001:00010230       _xilUploadProfilingData    10011230 f   xpc_code_profiling_utility_functions.obj
 0001:00010240       _DllMain@12                10011240 f   xpctarget.obj
 0001:00010250       _SLRTSetErrorStatus        10011250 f   xpctarget.obj
 0001:00010270       _changeStepSize            10011270 f   xpctarget.obj
 0001:000102c0       _driver_test_ChangeStepSize 100112c0 f   xpctarget.obj
 0001:00010310       _getDLMVersion             10011310 f   xpctarget.obj
 0001:00010320       _getRefMdlPath             10011320 f   xpctarget.obj
 0001:000103a0       _getRefMdlSignalNumber     100113a0 f   xpctarget.obj
 0001:00010450       _getrlmdlinfo              10011450 f   xpctarget.obj
 0001:000105b0       _updateDiscreteEvents      100115b0 f   xpctarget.obj
 0001:000105c0       _getNumRef                 100115c0 f   appmappingData.obj
 0001:000105d0       _vprintf                   100115d0 f i legacy_stdio.obj
 0001:00010610       _advantechpci1716l         10011610 f   advantechpci1716l.obj
 0001:00010ca0       _GetPCIDeviceFull          10011ca0 f   xpcruntime:xpcimports.obj
 0001:00010cf0       _GetPCIDeviceFunction      10011cf0 f   xpcruntime:xpcimports.obj
 0001:00010d30       _ShowPCIDevice             10011d30 f   xpcruntime:xpcimports.obj
 0001:00011360       _slrtGetPciConfigAtFunction 10012360 f   xpcruntime:xpcimports.obj
 0001:000116d0       _xpcGetPciConfigAtSlot     100126d0 f   xpcruntime:xpcimports.obj
 0001:000116f0       _xpcInitProcs              100126f0 f   xpcruntime:xpcimports.obj
 0001:00012c20       _xpceuploadevent           10013c20 f   xpcruntime:xpcimports.obj
 0001:00012c30       __ftoui3                   10013c30 f   LIBCMT:_ftol3_.obj
 0001:00012c3f       __ftoul3                   10013c3f f   LIBCMT:_ftol3_.obj
 0001:00012c4e       __ftol3                    10013c4e f   LIBCMT:_ftol3_.obj
 0001:00012c5b       __ftol3_NaN                10013c5b f   LIBCMT:_ftol3_.obj
 0001:00012c73       __ftol3_work               10013c73 f   LIBCMT:_ftol3_.obj
 0001:00012cf9       __ftol3_common             10013cf9 f   LIBCMT:_ftol3_.obj
 0001:00012dbb       __ftol3_arg_error          10013dbb f   LIBCMT:_ftol3_.obj
 0001:00012dcd       __ftol3_except             10013dcd f   LIBCMT:_ftol3_.obj
 0001:00012e11       __dtoui3                   10013e11 f   LIBCMT:_ftol3_.obj
 0001:00012e20       __dtoul3                   10013e20 f   LIBCMT:_ftol3_.obj
 0001:00012e2f       __dtol3                    10013e2f f   LIBCMT:_ftol3_.obj
 0001:00012e3c       __dtol3_NaN                10013e3c f   LIBCMT:_ftol3_.obj
 0001:00012e59       __dtol3_work               10013e59 f   LIBCMT:_ftol3_.obj
 0001:00012f40       __ultod3                   10013f40 f   LIBCMT:_ftol3_.obj
 0001:00012f80       __ltod3                    10013f80 f   LIBCMT:_ftol3_.obj
 0001:00013084       ___raise_securityfailure   10014084 f   LIBCMT:gs_report.obj
 0001:000130b6       ___report_gsfailure        100140b6 f   LIBCMT:gs_report.obj
 0001:000131ef       ___report_rangecheckfailure 100141ef f   LIBCMT:gs_report.obj
 0001:000131fe       ___report_securityfailure  100141fe f   LIBCMT:gs_report.obj
 0001:00013302       ___report_securityfailureEx 10014302 f   LIBCMT:gs_report.obj
 0001:0001345d       @__security_check_cookie@4 1001445d f   LIBCMT:_secchk_.obj
 0001:00013472       ___isa_available_init      10014472 f   LIBCMT:_cpu_disp_.obj
 0001:00013a3a       __CRT_INIT@12              10014a3a f   LIBCMT:dll_dllmain.obj
 0001:00013a45       __DllMainCRTStartup@12     10014a45 f   LIBCMT:dll_dllmain.obj
 0001:00013a70       ??$__crt_fast_decode_pointer@PAP6AXXZ@@YAPAP6AXXZQAP6AXXZ@Z 10014a70 f i LIBCMT:utility.obj
 0001:00013a89       ??$__crt_fast_encode_pointer@PAP6AXXZ@@YAPAP6AXXZQAP6AXXZ@Z 10014a89 f i LIBCMT:utility.obj
 0001:00013aad       ?__crt_rotate_pointer_value@@YAIIH@Z 10014aad f i LIBCMT:utility.obj
 0001:00013abd       ?configure_argv@__scrt_narrow_argv_policy@@SAHXZ 10014abd f i LIBCMT:utility.obj
 0001:00013b61       _NtCurrentTeb              10014b61 f i LIBCMT:utility.obj
 0001:00013b68       ___scrt_acquire_startup_lock 10014b68 f   LIBCMT:utility.obj
 0001:00013baa       ___scrt_dllmain_after_initialize_c 10014baa f   LIBCMT:utility.obj
 0001:00013bdf       ___scrt_dllmain_before_initialize_c 10014bdf f   LIBCMT:utility.obj
 0001:00013bf0       ___scrt_dllmain_crt_thread_attach 10014bf0 f   LIBCMT:utility.obj
 0001:00013c16       ___scrt_dllmain_crt_thread_detach 10014c16 f   LIBCMT:utility.obj
 0001:00013c26       ___scrt_dllmain_exception_filter 10014c26 f   LIBCMT:utility.obj
 0001:00013c65       ___scrt_dllmain_uninitialize_c 10014c65 f   LIBCMT:utility.obj
 0001:00013c90       ___scrt_dllmain_uninitialize_critical 10014c90 f   LIBCMT:utility.obj
 0001:00013ca0       ___scrt_initialize_crt     10014ca0 f   LIBCMT:utility.obj
 0001:00013ce7       ___scrt_initialize_onexit_tables 10014ce7 f   LIBCMT:utility.obj
 0001:00013da3       ___scrt_is_nonwritable_in_current_image 10014da3 f   LIBCMT:utility.obj
 0001:00013e4f       ___scrt_release_startup_lock 10014e4f f   LIBCMT:utility.obj
 0001:00013e73       ___scrt_uninitialize_crt   10014e73 f   LIBCMT:utility.obj
 0001:00013ea5       __onexit                   10014ea5 f   LIBCMT:utility.obj
 0001:00013eee       _at_quick_exit             10014eee f   LIBCMT:utility.obj
 0001:00013f2b       _atexit                    10014f2b f   LIBCMT:utility.obj
 0001:00013f45       ___security_init_cookie    10014f45 f   LIBCMT:gs_support.obj
 0001:00014008       ?__scrt_initialize_type_info@@YAXXZ 10015008 f   LIBCMT:tncleanup.obj
 0001:00014017       ?__scrt_uninitialize_type_info@@YAXXZ 10015017 f   LIBCMT:tncleanup.obj
 0001:00014026       ___local_stdio_scanf_options 10015026 f i LIBCMT:default_local_stdio_options.obj
 0001:0001402c       ___scrt_initialize_default_local_stdio_options 1001502c f   LIBCMT:default_local_stdio_options.obj
 0001:00014050       ___scrt_get_dyn_tls_init_callback 10015050 f   LIBCMT:dyn_tls_init.obj
 0001:00014056       ___scrt_fastfail           10015056 f   LIBCMT:utility_desktop.obj
 0001:000141b7       ___scrt_get_show_window_mode 100151b7 f   LIBCMT:utility_desktop.obj
 0001:000141f6       ___scrt_initialize_winrt   100151f6 f   LIBCMT:utility_desktop.obj
 0001:000141f9       ___scrt_is_managed_app     100151f9 f   LIBCMT:utility_desktop.obj
 0001:0001424e       ___scrt_set_unhandled_exception_filter 1001524e f   LIBCMT:utility_desktop.obj
 0001:0001425d       ___scrt_unhandled_exception_filter@4 1001525d f   LIBCMT:utility_desktop.obj
 0001:000142ae       __crt_debugger_hook        100152ae f   LIBCMT:utility_desktop.obj
 0001:000142b8       __RTC_Initialize           100152b8 f   LIBCMT:_initsect_.obj
 0001:000142ed       __RTC_Terminate            100152ed f   LIBCMT:_initsect_.obj
 0001:00014322       @_guard_check_icall@4      10015322 f i LIBCMT:checkcfg.obj
 0001:00014330       __SEH_prolog4              10015330 f   LIBCMT:_sehprolg4_.obj
 0001:00014376       __SEH_epilog4              10015376 f   LIBCMT:_sehprolg4_.obj
 0001:000143a1       __get_startup_argv_mode    100153a1 f   LIBCMT:argv_mode.obj
 0001:000143a5       ___scrt_is_ucrt_dll_in_use 100153a5 f   LIBCMT:ucrt_detection.obj
 0001:000143b4       @_guard_check_icall_nop@4  100153b4 f i LIBCMT:guard_support.obj
 0001:000143b5       __guard_icall_checks_enforced 100153b5 f i LIBCMT:guard_support.obj
 0001:000143cc       _GetModuleHandleA@4        100153cc f   kernel32:KERNEL32.dll
 0001:000143d2       _GetProcAddress@8          100153d2 f   kernel32:KERNEL32.dll
 0001:000143d8       _UnhandledExceptionFilter@4 100153d8 f   kernel32:KERNEL32.dll
 0001:000143de       _SetUnhandledExceptionFilter@4 100153de f   kernel32:KERNEL32.dll
 0001:000143e4       _GetCurrentProcess@0       100153e4 f   kernel32:KERNEL32.dll
 0001:000143ea       _TerminateProcess@8        100153ea f   kernel32:KERNEL32.dll
 0001:000143f0       _IsProcessorFeaturePresent@4 100153f0 f   kernel32:KERNEL32.dll
 0001:000143f6       _QueryPerformanceCounter@4 100153f6 f   kernel32:KERNEL32.dll
 0001:000143fc       _GetCurrentProcessId@0     100153fc f   kernel32:KERNEL32.dll
 0001:00014402       _GetCurrentThreadId@0      10015402 f   kernel32:KERNEL32.dll
 0001:00014408       _GetSystemTimeAsFileTime@4 10015408 f   kernel32:KERNEL32.dll
 0001:0001440e       _InitializeSListHead@4     1001540e f   kernel32:KERNEL32.dll
 0001:00014414       _IsDebuggerPresent@0       10015414 f   kernel32:KERNEL32.dll
 0001:0001441a       _GetStartupInfoW@4         1001541a f   kernel32:KERNEL32.dll
 0001:00014420       _GetModuleHandleW@4        10015420 f   kernel32:KERNEL32.dll
 0001:00014430       _memset                    10015430 f   libvcruntime:memset.obj
 0001:000145e0       _memcpy                    100155e0 f   libvcruntime:memcpy.obj
 0001:00014cc0       _memmove                   10015cc0 f   libvcruntime:memmove.obj
 0001:000153a0       _strchr                    100163a0 f   libvcruntime:strchr.obj
 0001:0001540e       ___from_strstr_to_strchr   1001640e     libvcruntime:strchr.obj
 0001:00015560       __except_handler4          10016560 f   libvcruntime:_chandler4_.obj
 0001:0001571f       ___vcrt_initialize         1001671f f   libvcruntime:initialization.obj
 0001:00015752       ___vcrt_thread_attach      10016752 f   libvcruntime:initialization.obj
 0001:0001575f       ___vcrt_thread_detach      1001675f f   libvcruntime:initialization.obj
 0001:0001576c       ___vcrt_uninitialize       1001676c f   libvcruntime:initialization.obj
 0001:00015792       ___vcrt_uninitialize_critical 10016792 f   libvcruntime:initialization.obj
 0001:000157ad       ??$?RD@__crt_internal_free_policy@@QBEXQBD@Z 100167ad f i libvcruntime:std_type_info.obj
 0001:000157c1       ??$?RX@__crt_internal_free_policy@@QBEXQBX@Z 100167c1 f i libvcruntime:std_type_info.obj
 0001:000157d5       ??$__crt_interlocked_compare_exchange_pointer@$$CBD$$T$$T@@YAPBDPDSBD$$T1@Z 100167d5 f i libvcruntime:std_type_info.obj
 0001:000157eb       ??$__crt_interlocked_compare_exchange_pointer@$$CBDPAD$$T@@YAPBDPDSBDQAD$$T@Z 100167eb f i libvcruntime:std_type_info.obj
 0001:00015801       ??$__crt_interlocked_read_pointer@$$CBD@@YAPBDPDSBD@Z 10016801 f i libvcruntime:std_type_info.obj
 0001:00015815       ??0?$__crt_unique_heap_ptr@DU__crt_internal_free_policy@@@@QAE@QAD@Z 10016815 f i libvcruntime:std_type_info.obj
 0001:00015826       ??0?$__crt_unique_heap_ptr@XU__crt_internal_free_policy@@@@QAE@QAX@Z 10016826 f i libvcruntime:std_type_info.obj
 0001:00015837       ??1?$__crt_unique_heap_ptr@DU__crt_internal_free_policy@@@@QAE@XZ 10016837 f i libvcruntime:std_type_info.obj
 0001:0001584b       ??1?$__crt_unique_heap_ptr@XU__crt_internal_free_policy@@@@QAE@XZ 1001684b f i libvcruntime:std_type_info.obj
 0001:0001586b       ??B?$__crt_unique_heap_ptr@DU__crt_internal_free_policy@@@@QBE_NXZ 1001686b f i libvcruntime:std_type_info.obj
 0001:00015872       ??B?$__crt_unique_heap_ptr@XU__crt_internal_free_policy@@@@QBE_NXZ 10016872 f i libvcruntime:std_type_info.obj
 0001:000158a1       ?detach@?$__crt_unique_heap_ptr@XU__crt_internal_free_policy@@@@QAEPAXXZ 100168a1 f i libvcruntime:std_type_info.obj
 0001:000158a7       ?get@?$__crt_unique_heap_ptr@DU__crt_internal_free_policy@@@@QBEPADXZ 100168a7 f i libvcruntime:std_type_info.obj
 0001:000158aa       ?get@?$__crt_unique_heap_ptr@XU__crt_internal_free_policy@@@@QBEPAXXZ 100168aa f i libvcruntime:std_type_info.obj
 0001:000158ad       ?is_valid@?$__crt_unique_heap_ptr@DU__crt_internal_free_policy@@@@QBE_NXZ 100168ad f i libvcruntime:std_type_info.obj
 0001:000158b4       ?is_valid@?$__crt_unique_heap_ptr@XU__crt_internal_free_policy@@@@QBE_NXZ 100168b4 f i libvcruntime:std_type_info.obj
 0001:000158bb       ?release@?$__crt_unique_heap_ptr@DU__crt_internal_free_policy@@@@QAEXXZ 100168bb f i libvcruntime:std_type_info.obj
 0001:000158cf       ?release@?$__crt_unique_heap_ptr@XU__crt_internal_free_policy@@@@QAEXXZ 100168cf f i libvcruntime:std_type_info.obj
 0001:000158e3       ___std_type_info_compare   100168e3 f   libvcruntime:std_type_info.obj
 0001:0001592e       ___std_type_info_destroy_list 1001692e f   libvcruntime:std_type_info.obj
 0001:00015959       ___std_type_info_hash      10016959 f   libvcruntime:std_type_info.obj
 0001:00015988       ___std_type_info_name      10016988 f   libvcruntime:std_type_info.obj
 0001:00015a90       __local_unwind4            10016a90 f   libvcruntime:_exsup4_.obj
 0001:00015b66       __seh_longjmp_unwind4@4    10016b66 f   libvcruntime:_exsup4_.obj
 0001:00015b8e       @_EH4_CallFilterFunc@8     10016b8e f   libvcruntime:_exsup4_.obj
 0001:00015ba5       @_EH4_TransferToHandler@8  10016ba5 f   libvcruntime:_exsup4_.obj
 0001:00015bbe       @_EH4_GlobalUnwind2@8      10016bbe f   libvcruntime:_exsup4_.obj
 0001:00015bd7       @_EH4_LocalUnwind@16       10016bd7 f   libvcruntime:_exsup4_.obj
 0001:00015c45       ___except_validate_context_record 10016c45 f   libvcruntime:jbcxrval.obj
 0001:00015c46       ___except_validate_jump_buffer 10016c46 f   libvcruntime:jbcxrval.obj
 0001:00015c47       ??$?RU__vcrt_ptd@@@__crt_internal_free_policy@@QBEXQBU__vcrt_ptd@@@Z 10016c47 f i libvcruntime:per_thread_data.obj
 0001:00015c5b       ??0?$__crt_unique_heap_ptr@U__vcrt_ptd@@U__crt_internal_free_policy@@@@QAE@QAU__vcrt_ptd@@@Z 10016c5b f i libvcruntime:per_thread_data.obj
 0001:00015c7e       ??1?$__crt_unique_heap_ptr@U__vcrt_ptd@@U__crt_internal_free_policy@@@@QAE@XZ 10016c7e f i libvcruntime:per_thread_data.obj
 0001:00015c9d       ??B?$__crt_unique_heap_ptr@U__vcrt_ptd@@U__crt_internal_free_policy@@@@QBE_NXZ 10016c9d f i libvcruntime:per_thread_data.obj
 0001:00015ca4       ?detach@?$__crt_unique_heap_ptr@U__vcrt_ptd@@U__crt_internal_free_policy@@@@QAEPAU__vcrt_ptd@@XZ 10016ca4 f i libvcruntime:per_thread_data.obj
 0001:00015caa       ?get@?$__crt_unique_heap_ptr@U__vcrt_ptd@@U__crt_internal_free_policy@@@@QBEPAU__vcrt_ptd@@XZ 10016caa f i libvcruntime:per_thread_data.obj
 0001:00015cad       ?is_valid@?$__crt_unique_heap_ptr@U__vcrt_ptd@@U__crt_internal_free_policy@@@@QBE_NXZ 10016cad f i libvcruntime:per_thread_data.obj
 0001:00015cb4       ?release@?$__crt_unique_heap_ptr@U__vcrt_ptd@@U__crt_internal_free_policy@@@@QAEXXZ 10016cb4 f i libvcruntime:per_thread_data.obj
 0001:00015ce8       ___vcrt_freefls@4          10016ce8 f   libvcruntime:per_thread_data.obj
 0001:00015d0b       ___vcrt_freeptd            10016d0b f   libvcruntime:per_thread_data.obj
 0001:00015d4e       ___vcrt_getptd             10016d4e f   libvcruntime:per_thread_data.obj
 0001:00015d5f       ___vcrt_getptd_noexit      10016d5f f   libvcruntime:per_thread_data.obj
 0001:00015e15       ___vcrt_initialize_ptd     10016e15 f   libvcruntime:per_thread_data.obj
 0001:00015e54       ___vcrt_uninitialize_ptd   10016e54 f   libvcruntime:per_thread_data.obj
 0001:00015e75       ___vcrt_initialize_locks   10016e75 f   libvcruntime:locks.obj
 0001:00015ec0       ___vcrt_lock               10016ec0 f   libvcruntime:locks.obj
 0001:00015eda       ___vcrt_uninitialize_locks 10016eda f   libvcruntime:locks.obj
 0001:00015f14       ___vcrt_unlock             10016f14 f   libvcruntime:locks.obj
 0001:00015f2e       ??$?BX@__crt_fast_encoded_nullptr_t@@QBEPAXXZ 10016f2e f i libvcruntime:winapi_downlevel.obj
 0001:00015f4c       ??$__crt_fast_decode_pointer@PAX@@YAPAXQAX@Z 10016f4c f i libvcruntime:winapi_downlevel.obj
 0001:00015f65       ??$__crt_fast_encode_pointer@PAX@@YAPAXQAX@Z 10016f65 f i libvcruntime:winapi_downlevel.obj
 0001:00015f89       ??$__crt_interlocked_compare_exchange_pointer@UHINSTANCE__@@$$T$$T@@YAPAUHINSTANCE__@@PDSAU0@$$T1@Z 10016f89 f i libvcruntime:winapi_downlevel.obj
 0001:00015f9f       ??$__crt_interlocked_compare_exchange_pointer@X$$T$$T@@YAPAXPDSAX$$T1@Z 10016f9f f i libvcruntime:winapi_downlevel.obj
 0001:00015fb5       ??$__crt_interlocked_exchange_pointer@UHINSTANCE__@@PAU1@@@YAPAUHINSTANCE__@@PDSAU0@QAU0@@Z 10016fb5 f i libvcruntime:winapi_downlevel.obj
 0001:00015fc5       ??$__crt_interlocked_exchange_pointer@UHINSTANCE__@@PAX@@YAPAUHINSTANCE__@@PDSAU0@QAX@Z 10016fc5 f i libvcruntime:winapi_downlevel.obj
 0001:00015fd5       ??$__crt_interlocked_exchange_pointer@XPAX@@YAPAXPDSAXQAX@Z 10016fd5 f i libvcruntime:winapi_downlevel.obj
 0001:00015fe5       ??$__crt_interlocked_read_pointer@UHINSTANCE__@@@@YAPAUHINSTANCE__@@PDSAU0@@Z 10016fe5 f i libvcruntime:winapi_downlevel.obj
 0001:00015ff9       ??$__crt_interlocked_read_pointer@X@@YAPAXPDSAX@Z 10016ff9 f i libvcruntime:winapi_downlevel.obj
 0001:0001600d       ?__crt_fast_encode_pointer@@YA?AU__crt_fast_encoded_nullptr_t@@$$T@Z 1001700d f i libvcruntime:winapi_downlevel.obj
 0001:00016351       ___vcrt_EventRegister      10017351 f   libvcruntime:winapi_downlevel.obj
 0001:000163a1       ___vcrt_EventSetInformation 100173a1 f   libvcruntime:winapi_downlevel.obj
 0001:000163f4       ___vcrt_EventUnregister    100173f4 f   libvcruntime:winapi_downlevel.obj
 0001:0001643c       ___vcrt_EventWriteTransfer 1001743c f   libvcruntime:winapi_downlevel.obj
 0001:00016497       ___vcrt_FlsAlloc           10017497 f   libvcruntime:winapi_downlevel.obj
 0001:000164df       ___vcrt_FlsFree            100174df f   libvcruntime:winapi_downlevel.obj
 0001:00016527       ___vcrt_FlsGetValue        10017527 f   libvcruntime:winapi_downlevel.obj
 0001:0001656f       ___vcrt_FlsSetValue        1001756f f   libvcruntime:winapi_downlevel.obj
 0001:000165bb       ___vcrt_InitializeCriticalSectionEx 100175bb f   libvcruntime:winapi_downlevel.obj
 0001:00016612       ___vcrt_initialize_winapi_thunks 10017612 f   libvcruntime:winapi_downlevel.obj
 0001:0001665a       ___vcrt_uninitialize_winapi_thunks 1001765a f   libvcruntime:winapi_downlevel.obj
 0001:00016698       ??$?B$$A6AXXZ@__crt_fast_encoded_nullptr_t@@QBEP6AXXZXZ 10017698 f i libvcruntime:purevirt_data.obj
 0001:000166b6       ??$__crt_fast_encode_pointer@P6AXXZ@@YAP6AXXZQ6AXXZ@Z 100176b6 f i libvcruntime:purevirt_data.obj
 0001:000166da       ___vcrt_initialize_pure_virtual_call_handler 100176da f   libvcruntime:purevirt_data.obj
 0001:000166fe       ??$__vcrt_va_start_verify_argument_type@QBD@@YAXXZ 100176fe f i libvcruntime:undname.obj
 0001:000166ff       ??0Block@_HeapManager@@QAE@XZ 100176ff f i libvcruntime:undname.obj
 0001:00016705       ??0DName@@QAE@AAPBDD@Z     10017705 f   libvcruntime:undname.obj
 0001:000167ec       ??0DName@@QAE@ABV0@@Z      100177ec f i libvcruntime:undname.obj
 0001:00016807       ??0DName@@QAE@D@Z          10017807 f   libvcruntime:undname.obj
 0001:0001683e       ??0DName@@QAE@PAV0@@Z      1001783e f   libvcruntime:undname.obj
 0001:0001689e       ??0DName@@QAE@PBD@Z        1001789e f   libvcruntime:undname.obj
 0001:000168e6       ??0DName@@QAE@W4DNameStatus@@@Z 100178e6 f   libvcruntime:undname.obj
 0001:00016939       ??0DName@@QAE@XZ           10017939 f i libvcruntime:undname.obj
 0001:0001694e       ??0DName@@QAE@_J@Z         1001794e f   libvcruntime:undname.obj
 0001:00016a08       ??0DName@@QAE@_K@Z         10017a08 f   libvcruntime:undname.obj
 0001:00016a92       ??0DNameNode@@IAE@XZ       10017a92 f   libvcruntime:undname.obj
 0001:00016a9d       ??0DNameStatusNode@@AAE@W4DNameStatus@@@Z 10017a9d f   libvcruntime:undname.obj
 0001:00016ac8       ??0Replicator@@QAE@XZ      10017ac8 f i libvcruntime:undname.obj
 0001:00016ace       ??0UnDecorator@@QAE@PADPBDHP6APADJ@ZK@Z 10017ace f i libvcruntime:undname.obj
 0001:00016b51       ??0charNode@@QAE@D@Z       10017b51 f   libvcruntime:undname.obj
 0001:00016b6b       ??0pDNameNode@@QAE@PAVDName@@@Z 10017b6b f   libvcruntime:undname.obj
 0001:00016b9d       ??0pairNode@@QAE@PAVDNameNode@@0@Z 10017b9d f   libvcruntime:undname.obj
 0001:00016bc3       ??0pcharNode@@QAE@PBDH@Z   10017bc3 f   libvcruntime:undname.obj
 0001:00016c32       ??2@YAPAXIAAV_HeapManager@@H@Z 10017c32 f i libvcruntime:undname.obj
 0001:00016c4c       ??4DName@@QAEAAV0@ABV0@@Z  10017c4c f   libvcruntime:undname.obj
 0001:00016c67       ??4DName@@QAEAAV0@D@Z      10017c67 f i libvcruntime:undname.obj
 0001:00016c9e       ??4DName@@QAEAAV0@PAV0@@Z  10017c9e f   libvcruntime:undname.obj
 0001:00016cf9       ??4DName@@QAEAAV0@PBD@Z    10017cf9 f   libvcruntime:undname.obj
 0001:00016d37       ??4DName@@QAEAAV0@W4DNameStatus@@@Z 10017d37 f   libvcruntime:undname.obj
 0001:00016d79       ??AReplicator@@QBE?AVDName@@H@Z 10017d79 f   libvcruntime:undname.obj
 0001:00016dc4       ??BUnDecorator@@QAEPADXZ   10017dc4 f i libvcruntime:undname.obj
 0001:00016f9b       ??H@YA?AVDName@@DABV0@@Z   10017f9b f i libvcruntime:undname.obj
 0001:00016fc8       ??H@YA?AVDName@@PBDABV0@@Z 10017fc8 f i libvcruntime:undname.obj
 0001:00016ff5       ??H@YA?AVDName@@W4DNameStatus@@ABV0@@Z 10017ff5 f i libvcruntime:undname.obj
 0001:00017022       ??HDName@@QBE?AV0@ABV0@@Z  10018022 f   libvcruntime:undname.obj
 0001:0001704c       ??HDName@@QBE?AV0@D@Z      1001804c f   libvcruntime:undname.obj
 0001:00017076       ??HDName@@QBE?AV0@PAV0@@Z  10018076 f   libvcruntime:undname.obj
 0001:000170a0       ??HDName@@QBE?AV0@PBD@Z    100180a0 f   libvcruntime:undname.obj
 0001:000170ca       ??HDName@@QBE?AV0@W4DNameStatus@@@Z 100180ca f   libvcruntime:undname.obj
 0001:000170f4       ??YDName@@QAEAAV0@ABV0@@Z  100180f4 f   libvcruntime:undname.obj
 0001:00017147       ??YDName@@QAEAAV0@D@Z      10018147 f   libvcruntime:undname.obj
 0001:000171ab       ??YDName@@QAEAAV0@PAV0@@Z  100181ab f   libvcruntime:undname.obj
 0001:00017229       ??YDName@@QAEAAV0@PBD@Z    10018229 f   libvcruntime:undname.obj
 0001:000172a2       ??YDName@@QAEAAV0@W4DNameStatus@@@Z 100182a2 f   libvcruntime:undname.obj
 0001:000172f2       ??YReplicator@@QAEAAV0@ABVDName@@@Z 100182f2 f   libvcruntime:undname.obj
 0001:0001734e       ??_5DName@@QAEAAV0@ABV0@@Z 1001834e f   libvcruntime:undname.obj
 0001:00017371       ?Constructor@_HeapManager@@QAEXP6APAXI@ZP6AXPAX@Z@Z 10018371 f i libvcruntime:undname.obj
 0001:00017395       ?Destructor@_HeapManager@@QAEXXZ 10018395 f i libvcruntime:undname.obj
 0001:000173dc       ?UScore@UnDecorator@@SAPBDW4Tokens@@@Z 100183dc f   libvcruntime:undname.obj
 0001:00017400       ?append@DName@@AAEXPAVDNameNode@@@Z 10018400 f   libvcruntime:undname.obj
 0001:00017457       ?composeDeclaration@UnDecorator@@CA?AVDName@@ABV2@@Z 10018457 f i libvcruntime:undname.obj
 0001:00018492       ?doAccessSpecifiers@UnDecorator@@SAHXZ 10019492 f i libvcruntime:undname.obj
 0001:000184a3       ?doAllocationLanguage@UnDecorator@@SAHXZ 100194a3 f i libvcruntime:undname.obj
 0001:000184b4       ?doAllocationModel@UnDecorator@@SAHXZ 100194b4 f i libvcruntime:undname.obj
 0001:000184c5       ?doEcsu@UnDecorator@@SAHXZ 100194c5 f i libvcruntime:undname.obj
 0001:000184d6       ?doEllipsis@UnDecorator@@SAHXZ 100194d6 f i libvcruntime:undname.obj
 0001:000184e7       ?doFunctionReturns@UnDecorator@@SAHXZ 100194e7 f i libvcruntime:undname.obj
 0001:000184f8       ?doMSKeywords@UnDecorator@@SAHXZ 100194f8 f i libvcruntime:undname.obj
 0001:00018508       ?doMemberTypes@UnDecorator@@SAHXZ 10019508 f i libvcruntime:undname.obj
 0001:00018519       ?doNameOnly@UnDecorator@@SAHXZ 10019519 f i libvcruntime:undname.obj
 0001:00018526       ?doNoIdentCharCheck@UnDecorator@@SAHXZ 10019526 f i libvcruntime:undname.obj
 0001:00018533       ?doPchar@DName@@AAEXPBDH@Z 10019533 f   libvcruntime:undname.obj
 0001:000185df       ?doPtr64@UnDecorator@@SAHXZ 100195df f i libvcruntime:undname.obj
 0001:000185f0       ?doRestrictionSpec@UnDecorator@@SAHXZ 100195f0 f i libvcruntime:undname.obj
 0001:00018601       ?doThisTypes@UnDecorator@@SAHXZ 10019601 f i libvcruntime:undname.obj
 0001:00018617       ?doThrowTypes@UnDecorator@@SAHXZ 10019617 f i libvcruntime:undname.obj
 0001:00018628       ?doTypeOnly@UnDecorator@@SAHXZ 10019628 f i libvcruntime:undname.obj
 0001:00018635       ?doUnderScore@UnDecorator@@SAHXZ 10019635 f i libvcruntime:undname.obj
 0001:00018642       ?getArgumentList@UnDecorator@@CA?AVDName@@XZ 10019642 f   libvcruntime:undname.obj
 0001:00018791       ?getArgumentTypes@UnDecorator@@CA?AVDName@@XZ 10019791 f   libvcruntime:undname.obj
 0001:000188a9       ?getArrayType@UnDecorator@@CA?AVDName@@ABV2@@Z 100198a9 f i libvcruntime:undname.obj
 0001:00018b2b       ?getBasedType@UnDecorator@@CA?AVDName@@XZ 10019b2b f   libvcruntime:undname.obj
 0001:00018bea       ?getBasicDataType@UnDecorator@@CA?AVDName@@ABV2@@Z 10019bea f   libvcruntime:undname.obj
 0001:000190d4       ?getCallIndex@UnDecorator@@CA?AVDName@@XZ 1001a0d4 f i libvcruntime:undname.obj
 0001:000190ed       ?getCallingConvention@UnDecorator@@CA?AVDName@@XZ 1001a0ed f   libvcruntime:undname.obj
 0001:000191db       ?getDataIndirectType@UnDecorator@@CA?AVDName@@ABV2@PBD0H@Z 1001a1db f   libvcruntime:undname.obj
 0001:00019986       ?getDataIndirectType@UnDecorator@@CA?AVDName@@XZ 1001a986 f i libvcruntime:undname.obj
 0001:000199cd       ?getDataType@UnDecorator@@CA?AVDName@@PAV2@@Z 1001a9cd f   libvcruntime:undname.obj
 0001:00019ad3       ?getDecoratedName@UnDecorator@@CA?AVDName@@XZ 1001aad3 f   libvcruntime:undname.obj
 0001:00019db2       ?getDimension@UnDecorator@@CA?AVDName@@_N@Z 1001adb2 f   libvcruntime:undname.obj
 0001:00019f36       ?getDispatchTarget@UnDecorator@@CA?AVDName@@XZ 1001af36 f   libvcruntime:undname.obj
 0001:00019fa7       ?getDisplacement@UnDecorator@@CA?AVDName@@XZ 1001afa7 f i libvcruntime:undname.obj
 0001:00019fc0       ?getECSUDataType@UnDecorator@@CA?AVDName@@XZ 1001afc0 f   libvcruntime:undname.obj
 0001:0001a124       ?getECSUName@UnDecorator@@CA?AVDName@@XZ 1001b124 f i libvcruntime:undname.obj
 0001:0001a139       ?getEnumType@UnDecorator@@CA?AVDName@@XZ 1001b139 f i libvcruntime:undname.obj
 0001:0001a260       ?getExtendedDataIndirectType@UnDecorator@@CA?AVDName@@AAPBDAA_NH@Z 1001b260 f   libvcruntime:undname.obj
 0001:0001a473       ?getExternalDataType@UnDecorator@@CA?AVDName@@ABV2@@Z 1001b473 f i libvcruntime:undname.obj
 0001:0001a50a       ?getFunctionIndirectType@UnDecorator@@CA?AVDName@@ABV2@@Z 1001b50a f   libvcruntime:undname.obj
 0001:0001aa15       ?getGuardNumber@UnDecorator@@CA?AVDName@@XZ 1001ba15 f i libvcruntime:undname.obj
 0001:0001aa2e       ?getLastChar@DName@@QBEDXZ 1001ba2e f i libvcruntime:undname.obj
 0001:0001aa54       ?getLastChar@DNameStatusNode@@UBEDXZ 1001ba54 f i libvcruntime:undname.obj
 0001:0001aa63       ?getLastChar@charNode@@UBEDXZ 1001ba63 f i libvcruntime:undname.obj
 0001:0001aa67       ?getLastChar@pDNameNode@@UBEDXZ 1001ba67 f i libvcruntime:undname.obj
 0001:0001aa78       ?getLastChar@pairNode@@UBEDXZ 1001ba78 f i libvcruntime:undname.obj
 0001:0001aab7       ?getLastChar@pcharNode@@UBEDXZ 1001bab7 f i libvcruntime:undname.obj
 0001:0001aacd       ?getLexicalFrame@UnDecorator@@CA?AVDName@@XZ 1001bacd f i libvcruntime:undname.obj
 0001:0001ab19       ?getMemory@_HeapManager@@QAEPAXIH@Z 1001bb19 f   libvcruntime:undname.obj
 0001:0001abca       ?getNumberOfDimensions@UnDecorator@@CAHXZ 1001bbca f   libvcruntime:undname.obj
 0001:0001ac43       ?getOperatorName@UnDecorator@@CA?AVDName@@_NPA_N@Z 1001bc43 f i libvcruntime:undname.obj
 0001:0001b3f3       ?getPointerType@UnDecorator@@CA?AVDName@@ABV2@0@Z 1001c3f3 f i libvcruntime:undname.obj
 0001:0001b418       ?getPointerTypeArray@UnDecorator@@CA?AVDName@@ABV2@0@Z 1001c418 f i libvcruntime:undname.obj
 0001:0001b43d       ?getPrimaryDataType@UnDecorator@@CA?AVDName@@ABV2@@Z 1001c43d f   libvcruntime:undname.obj
 0001:0001b6ae       ?getPtrRefDataType@UnDecorator@@CA?AVDName@@ABV2@H@Z 1001c6ae f   libvcruntime:undname.obj
 0001:0001b7f0       ?getPtrRefType@UnDecorator@@CA?AVDName@@ABV2@0PBD@Z 1001c7f0 f   libvcruntime:undname.obj
 0001:0001b92b       ?getReferenceType@UnDecorator@@CA?AVDName@@ABV2@0PBD@Z 1001c92b f i libvcruntime:undname.obj
 0001:0001b94e       ?getRestrictionSpec@UnDecorator@@CA?AVDName@@XZ 1001c94e f   libvcruntime:undname.obj
 0001:0001ba7c       ?getReturnType@UnDecorator@@CA?AVDName@@PAV2@@Z 1001ca7c f   libvcruntime:undname.obj
 0001:0001bab6       ?getScope@UnDecorator@@CA?AVDName@@XZ 1001cab6 f   libvcruntime:undname.obj
 0001:0001bf8b       ?getScopedName@UnDecorator@@CA?AVDName@@XZ 1001cf8b f   libvcruntime:undname.obj
 0001:0001c0c4       ?getSignedDimension@UnDecorator@@CA?AVDName@@XZ 1001d0c4 f   libvcruntime:undname.obj
 0001:0001c12b       ?getStorageConvention@UnDecorator@@CA?AVDName@@XZ 1001d12b f i libvcruntime:undname.obj
 0001:0001c140       ?getString@DName@@QBEPADPAD0@Z 1001d140 f i libvcruntime:undname.obj
 0001:0001c177       ?getString@DName@@QBEPADPADH@Z 1001d177 f i libvcruntime:undname.obj
 0001:0001c1e2       ?getString@DNameStatusNode@@UBEPADPAD0@Z 1001d1e2 f i libvcruntime:undname.obj
 0001:0001c212       ?getString@charNode@@UBEPADPAD0@Z 1001d212 f i libvcruntime:undname.obj
 0001:0001c22c       ?getString@pDNameNode@@UBEPADPAD0@Z 1001d22c f i libvcruntime:undname.obj
 0001:0001c248       ?getString@pairNode@@UBEPADPAD0@Z 1001d248 f i libvcruntime:undname.obj
 0001:0001c29d       ?getString@pcharNode@@UBEPADPAD0@Z 1001d29d f i libvcruntime:undname.obj
 0001:0001c2be       ?getStringEncoding@UnDecorator@@CA?AVDName@@PADH@Z 1001d2be f   libvcruntime:undname.obj
 0001:0001c389       ?getStringHelper@@YAPADPAD00H@Z 1001d389 f i libvcruntime:undname.obj
 0001:0001c3cd       ?getSymbolName@UnDecorator@@CA?AVDName@@XZ 1001d3cd f i libvcruntime:undname.obj
 0001:0001c427       ?getTemplateArgumentList@UnDecorator@@CA?AVDName@@XZ 1001d427 f   libvcruntime:undname.obj
 0001:0001c774       ?getTemplateConstant@UnDecorator@@CA?AVDName@@XZ 1001d774 f   libvcruntime:undname.obj
 0001:0001cb89       ?getTemplateName@UnDecorator@@CA?AVDName@@_N@Z 1001db89 f   libvcruntime:undname.obj
 0001:0001cd34       ?getThisType@UnDecorator@@CA?AVDName@@XZ 1001dd34 f i libvcruntime:undname.obj
 0001:0001cd7c       ?getThrowTypes@UnDecorator@@CA?AVDName@@XZ 1001dd7c f   libvcruntime:undname.obj
 0001:0001ce28       ?getTypeEncoding@UnDecorator@@CAHXZ 1001de28 f i libvcruntime:undname.obj
 0001:0001d224       ?getVCallThunkType@UnDecorator@@CA?AVDName@@XZ 1001e224 f i libvcruntime:undname.obj
 0001:0001d26d       ?getVbTableType@UnDecorator@@CA?AVDName@@ABV2@@Z 1001e26d f i libvcruntime:undname.obj
 0001:0001d287       ?getVdispMapType@UnDecorator@@CA?AVDName@@ABV2@@Z 1001e287 f i libvcruntime:undname.obj
 0001:0001d2f2       ?getVfTableType@UnDecorator@@CA?AVDName@@ABV2@@Z 1001e2f2 f i libvcruntime:undname.obj
 0001:0001d4b0       ?getZName@UnDecorator@@CA?AVDName@@_N0@Z 1001e4b0 f   libvcruntime:undname.obj
 0001:0001d780       ?haveTemplateParameters@UnDecorator@@SAHXZ 1001e780 f i libvcruntime:undname.obj
 0001:0001d78d       ?isArray@DName@@QBEHXZ     1001e78d f i libvcruntime:undname.obj
 0001:0001d799       ?isComArray@DName@@QBEHXZ  1001e799 f i libvcruntime:undname.obj
 0001:0001d7a5       ?isEmpty@DName@@QBEHXZ     1001e7a5 f i libvcruntime:undname.obj
 0001:0001d7af       ?isFull@Replicator@@QBEHXZ 1001e7af f i libvcruntime:undname.obj
 0001:0001d7ba       ?isNoTE@DName@@QBEHXZ      1001e7ba f i libvcruntime:undname.obj
 0001:0001d7c6       ?isPinPtr@DName@@QBEHXZ    1001e7c6 f i libvcruntime:undname.obj
 0001:0001d7d2       ?isPtrRef@DName@@QBEHXZ    1001e7d2 f i libvcruntime:undname.obj
 0001:0001d7de       ?isUDC@DName@@QBEHXZ       1001e7de f i libvcruntime:undname.obj
 0001:0001d7f3       ?isUDTThunk@DName@@QBEHXZ  1001e7f3 f i libvcruntime:undname.obj
 0001:0001d808       ?isVCallThunk@DName@@QBEHXZ 1001e808 f i libvcruntime:undname.obj
 0001:0001d814       ?isValid@DName@@QBEHXZ     1001e814 f i libvcruntime:undname.obj
 0001:0001d820       ?length@DName@@QBEHXZ      1001e820 f i libvcruntime:undname.obj
 0001:0001d845       ?length@DNameStatusNode@@UBEHXZ 1001e845 f i libvcruntime:undname.obj
 0001:0001d849       ?length@charNode@@UBEHXZ   1001e849 f i libvcruntime:undname.obj
 0001:0001d84d       ?length@pDNameNode@@UBEHXZ 1001e84d f i libvcruntime:undname.obj
 0001:0001d85e       ?length@pairNode@@UBEHXZ   1001e85e f i libvcruntime:undname.obj
 0001:0001d8ba       ?length@pcharNode@@UBEHXZ  1001e8ba f i libvcruntime:undname.obj
 0001:0001d8be       ?make@DNameStatusNode@@SAPAV1@W4DNameStatus@@@Z 1001e8be f i libvcruntime:undname.obj
 0001:0001d965       ?setIsArray@DName@@QAEXXZ  1001e965 f i libvcruntime:undname.obj
 0001:0001d96f       ?setIsComArray@DName@@QAEXXZ 1001e96f f i libvcruntime:undname.obj
 0001:0001d979       ?setIsNoTE@DName@@QAEXXZ   1001e979 f i libvcruntime:undname.obj
 0001:0001d983       ?setIsPinPtr@DName@@QAEXXZ 1001e983 f i libvcruntime:undname.obj
 0001:0001d98d       ?setIsUDC@DName@@QAEXXZ    1001e98d f i libvcruntime:undname.obj
 0001:0001d99d       ?setIsVCallThunk@DName@@QAEXXZ 1001e99d f i libvcruntime:undname.obj
 0001:0001d9a7       ?setPtrRef@DName@@QAEAAV1@XZ 1001e9a7 f i libvcruntime:undname.obj
 0001:0001d9b3       ?status@DName@@QBE?AW4DNameStatus@@XZ 1001e9b3 f i libvcruntime:undname.obj
 0001:0001da38       ___unDName                 1001ea38 f   libvcruntime:undname.obj
 0001:0001daf2       ___unDNameEx               1001eaf2 f   libvcruntime:undname.obj
 0001:0001dbac       __vsprintf_s_l             1001ebac f i libvcruntime:undname.obj
 0001:0001dbe4       _sprintf_s                 1001ebe4 f i libvcruntime:undname.obj
 0001:0001dc10       __global_unwind2           1001ec10 f   libvcruntime:_exsup_.obj
 0001:0001dc75       __local_unwind2            1001ec75 f   libvcruntime:_exsup_.obj
 0001:0001dcf9       __abnormal_termination     1001ecf9 f   libvcruntime:_exsup_.obj
 0001:0001dd1c       __NLG_Notify1              1001ed1c f   libvcruntime:_exsup_.obj
 0001:0001dd25       __NLG_Notify               1001ed25 f   libvcruntime:_exsup_.obj
 0001:0001dd3c       __NLG_Dispatch             1001ed3c     libvcruntime:_exsup_.obj
 0001:0001dd3c       __NLG_Dispatch2            1001ed3c     libvcruntime:_exsup_.obj
 0001:0001dd44       __NLG_Call                 1001ed44 f   libvcruntime:_exsup_.obj
 0001:0001dd46       __NLG_Return2              1001ed46     libvcruntime:_exsup_.obj
 0001:0001dd94       ??$__crt_fast_decode_pointer@P6AXXZ@@YAP6AXXZQ6AXXZ@Z 1001ed94 f i libvcruntime:purevirt.obj
 0001:0001ddad       ??$__crt_interlocked_compare_exchange_pointer@$$A6AXXZ$$T$$T@@YAP6AXXZPDS6AXXZ$$T1@Z 1001edad f i libvcruntime:purevirt.obj
 0001:0001ddc3       ??$__crt_interlocked_exchange_pointer@$$A6AXXZP6AXXZ@@YAP6AXXZPDS6AXXZQ6AXXZ@Z 1001edc3 f i libvcruntime:purevirt.obj
 0001:0001ddd3       ??$__crt_interlocked_read_pointer@$$A6AXXZ@@YAP6AXXZPDS6AXXZ@Z 1001edd3 f i libvcruntime:purevirt.obj
 0001:0001dde7       __get_purecall_handler     1001ede7 f   libvcruntime:purevirt.obj
 0001:0001de0d       __purecall                 1001ee0d f   libvcruntime:purevirt.obj
 0001:0001de2e       __set_purecall_handler     1001ee2e f   libvcruntime:purevirt.obj
 0001:0001de5c       _malloc                    1001ee5c f   libucrt:malloc.obj
 0001:0001de69       ??$?RPAU__crt_stdio_stream_data@@@__crt_internal_free_policy@@QBEXQBQAU__crt_stdio_stream_data@@@Z 1001ee69 f i libucrt:_file.obj
 0001:0001de7f       ??0?$__crt_unique_heap_ptr@PAU__crt_stdio_stream_data@@U__crt_internal_free_policy@@@@QAE@QAPAU__crt_stdio_stream_data@@@Z 1001ee7f f i libucrt:_file.obj
 0001:0001de93       ??0__crt_stdio_stream@@QAE@QAU_iobuf@@@Z 1001ee93 f i libucrt:_file.obj
 0001:0001dea7       ??1?$__crt_unique_heap_ptr@PAU__crt_stdio_stream_data@@U__crt_internal_free_policy@@@@QAE@XZ 1001eea7 f i libucrt:_file.obj
 0001:0001debd       ??C__crt_stdio_stream@@QBEPAU__crt_stdio_stream_data@@XZ 1001eebd f i libucrt:_file.obj
 0001:0001dec0       ?detach@?$__crt_unique_heap_ptr@PAU__crt_stdio_stream_data@@U__crt_internal_free_policy@@@@QAEPAPAU__crt_stdio_stream_data@@XZ 1001eec0 f i libucrt:_file.obj
 0001:0001dec6       ?release@?$__crt_unique_heap_ptr@PAU__crt_stdio_stream_data@@U__crt_internal_free_policy@@@@QAEXXZ 1001eec6 f i libucrt:_file.obj
 0001:0001dedc       ___acrt_initialize_stdio   1001eedc f   libucrt:_file.obj
 0001:0001dfd6       ___acrt_iob_func           1001efd6 f   libucrt:_file.obj
 0001:0001dfea       ___acrt_uninitialize_stdio 1001efea f   libucrt:_file.obj
 0001:0001e049       __get_stream_buffer_pointers 1001f049 f   libucrt:_file.obj
 0001:0001e0a0       __lock_file                1001f0a0 f   libucrt:_file.obj
 0001:0001e0b9       __unlock_file              1001f0b9 f   libucrt:_file.obj
 0001:0001e0d2       ??$?0ABV?$stream_output_adapter@D@__crt_stdio_output@@AB_KABQBDABQAU__crt_locale_pointers@@ABQAD@?$format_validation_base@DV?$stream_output_adapter@D@__crt_stdio_output@@@__crt_stdio_output@@IAE@ABV?$stream_output_adapter@D@1@AB_KABQBDABQAU__crt_locale_pointers@@ABQAD@Z 1001f0d2 f i libucrt:output.obj
 0001:0001e0fd       ??$?0ABV?$stream_output_adapter@D@__crt_stdio_output@@AB_KABQBDABQAU__crt_locale_pointers@@ABQAD@?$positional_parameter_base@DV?$stream_output_adapter@D@__crt_stdio_output@@@__crt_stdio_output@@IAE@ABV?$stream_output_adapter@D@1@AB_KABQBDABQAU__crt_locale_pointers@@ABQAD@Z 1001f0fd f i libucrt:output.obj
 0001:0001e157       ??$?0ABV?$stream_output_adapter@D@__crt_stdio_output@@AB_KABQBDABQAU__crt_locale_pointers@@ABQAD@?$standard_base@DV?$stream_output_adapter@D@__crt_stdio_output@@@__crt_stdio_output@@IAE@ABV?$stream_output_adapter@D@1@AB_KABQBDABQAU__crt_locale_pointers@@ABQAD@Z 1001f157 f i libucrt:output.obj
 0001:0001e199       ??$?0ABV?$stream_output_adapter@_W@__crt_stdio_output@@AB_KABQB_WABQAU__crt_locale_pointers@@ABQAD@?$format_validation_base@_WV?$stream_output_adapter@_W@__crt_stdio_output@@@__crt_stdio_output@@IAE@ABV?$stream_output_adapter@_W@1@AB_KABQB_WABQAU__crt_locale_pointers@@ABQAD@Z 1001f199 f i libucrt:output.obj
 0001:0001e1c4       ??$?0ABV?$stream_output_adapter@_W@__crt_stdio_output@@AB_KABQB_WABQAU__crt_locale_pointers@@ABQAD@?$positional_parameter_base@_WV?$stream_output_adapter@_W@__crt_stdio_output@@@__crt_stdio_output@@IAE@ABV?$stream_output_adapter@_W@1@AB_KABQB_WABQAU__crt_locale_pointers@@ABQAD@Z 1001f1c4 f i libucrt:output.obj
 0001:0001e21e       ??$?0ABV?$stream_output_adapter@_W@__crt_stdio_output@@AB_KABQB_WABQAU__crt_locale_pointers@@ABQAD@?$standard_base@_WV?$stream_output_adapter@_W@__crt_stdio_output@@@__crt_stdio_output@@IAE@ABV?$stream_output_adapter@_W@1@AB_KABQB_WABQAU__crt_locale_pointers@@ABQAD@Z 1001f21e f i libucrt:output.obj
 0001:0001e260       ??$?0ABV?$string_output_adapter@D@__crt_stdio_output@@AB_KABQBDABQAU__crt_locale_pointers@@ABQAD@?$format_validation_base@DV?$string_output_adapter@D@__crt_stdio_output@@@__crt_stdio_output@@IAE@ABV?$string_output_adapter@D@1@AB_KABQBDABQAU__crt_locale_pointers@@ABQAD@Z 1001f260 f i libucrt:output.obj
 0001:0001e28b       ??$?0ABV?$string_output_adapter@D@__crt_stdio_output@@AB_KABQBDABQAU__crt_locale_pointers@@ABQAD@?$positional_parameter_base@DV?$string_output_adapter@D@__crt_stdio_output@@@__crt_stdio_output@@IAE@ABV?$string_output_adapter@D@1@AB_KABQBDABQAU__crt_locale_pointers@@ABQAD@Z 1001f28b f i libucrt:output.obj
 0001:0001e2e5       ??$?0ABV?$string_output_adapter@D@__crt_stdio_output@@AB_KABQBDABQAU__crt_locale_pointers@@ABQAD@?$standard_base@DV?$string_output_adapter@D@__crt_stdio_output@@@__crt_stdio_output@@IAE@ABV?$string_output_adapter@D@1@AB_KABQBDABQAU__crt_locale_pointers@@ABQAD@Z 1001f2e5 f i libucrt:output.obj
 0001:0001e327       ??$?0ABV?$string_output_adapter@_W@__crt_stdio_output@@AB_KABQB_WABQAU__crt_locale_pointers@@ABQAD@?$format_validation_base@_WV?$string_output_adapter@_W@__crt_stdio_output@@@__crt_stdio_output@@IAE@ABV?$string_output_adapter@_W@1@AB_KABQB_WABQAU__crt_locale_pointers@@ABQAD@Z 1001f327 f i libucrt:output.obj
 0001:0001e352       ??$?0ABV?$string_output_adapter@_W@__crt_stdio_output@@AB_KABQB_WABQAU__crt_locale_pointers@@ABQAD@?$positional_parameter_base@_WV?$string_output_adapter@_W@__crt_stdio_output@@@__crt_stdio_output@@IAE@ABV?$string_output_adapter@_W@1@AB_KABQB_WABQAU__crt_locale_pointers@@ABQAD@Z 1001f352 f i libucrt:output.obj
 0001:0001e3ac       ??$?0ABV?$string_output_adapter@_W@__crt_stdio_output@@AB_KABQB_WABQAU__crt_locale_pointers@@ABQAD@?$standard_base@_WV?$string_output_adapter@_W@__crt_stdio_output@@@__crt_stdio_output@@IAE@ABV?$string_output_adapter@_W@1@AB_KABQB_WABQAU__crt_locale_pointers@@ABQAD@Z 1001f3ac f i libucrt:output.obj
 0001:0001e3ee       ??$?RV<lambda_2293f24e3ce1ad6fe22ccfb9dec07671>@@AAV<lambda_2565fc715a641e539f44ad02d6823606>@@V<lambda_d3217f279b832965d9ca670dc2993570>@@@?$__crt_seh_guarded_call@H@@QAEH$$QAV<lambda_2293f24e3ce1ad6fe22ccfb9dec07671>@@AAV<lambda_2565fc715a641e539f44ad02d6823606>@@$$QAV<lambda_d3217f279b832965d9ca670dc2993570>@@@Z 1001f3ee f i libucrt:output.obj
 0001:0001e453       ??$?RV<lambda_4d4ac866be0fa3c441830420fabdd2cb>@@AAV<lambda_63a10c2dc8dbb9e4dd1890be52af7c93>@@V<lambda_002af9fa0f8fe472b648c51882d4fc32>@@@?$__crt_seh_guarded_call@H@@QAEH$$QAV<lambda_4d4ac866be0fa3c441830420fabdd2cb>@@AAV<lambda_63a10c2dc8dbb9e4dd1890be52af7c93>@@$$QAV<lambda_002af9fa0f8fe472b648c51882d4fc32>@@@Z 1001f453 f i libucrt:output.obj
 0001:0001e4b8       ??$?RV<lambda_5be909dfbae0a631386585770cd7b676>@@AAV<lambda_e516058a9c289d98c8ca9fea99247804>@@V<lambda_afe2e0cdc5e0ecf6f0d6f5e2f8985e38>@@@?$__crt_seh_guarded_call@H@@QAEH$$QAV<lambda_5be909dfbae0a631386585770cd7b676>@@AAV<lambda_e516058a9c289d98c8ca9fea99247804>@@$$QAV<lambda_afe2e0cdc5e0ecf6f0d6f5e2f8985e38>@@@Z 1001f4b8 f i libucrt:output.obj
 0001:0001e51d       ??$?RV<lambda_823d65812123d985753d53e2a8c25d20>@@AAV<lambda_0a97c9e57da7be065955385c79108ff2>@@V<lambda_4d2973f3ad2d226f00468307185dca1b>@@@?$__crt_seh_guarded_call@H@@QAEH$$QAV<lambda_823d65812123d985753d53e2a8c25d20>@@AAV<lambda_0a97c9e57da7be065955385c79108ff2>@@$$QAV<lambda_4d2973f3ad2d226f00468307185dca1b>@@@Z 1001f51d f i libucrt:output.obj
 0001:0001e582       ??$?RV<lambda_ab9923ffb5d694ec0d78876dd103e44f>@@AAV<lambda_481dd5778c961fbcd3b60b650e9b9dc4>@@V<lambda_7923d86c9e3f319b415918ec4b39749c>@@@?$__crt_seh_guarded_call@H@@QAEH$$QAV<lambda_ab9923ffb5d694ec0d78876dd103e44f>@@AAV<lambda_481dd5778c961fbcd3b60b650e9b9dc4>@@$$QAV<lambda_7923d86c9e3f319b415918ec4b39749c>@@@Z 1001f582 f i libucrt:output.obj
 0001:0001e5e7       ??$?RV<lambda_db08b09ef7aa9d4f8620ce68402612bc>@@AAV<lambda_4f2c1eaeead2a5fc776db5b62ea0fb9b>@@V<lambda_3ae262bc35d4ba6a3825c4f6bcaaf95c>@@@?$__crt_seh_guarded_call@H@@QAEH$$QAV<lambda_db08b09ef7aa9d4f8620ce68402612bc>@@AAV<lambda_4f2c1eaeead2a5fc776db5b62ea0fb9b>@@$$QAV<lambda_3ae262bc35d4ba6a3825c4f6bcaaf95c>@@@Z 1001f5e7 f i libucrt:output.obj
 0001:0001e64c       ??$__acrt_lock_stream_and_call@V<lambda_0a97c9e57da7be065955385c79108ff2>@@@@YAHQAU_iobuf@@$$QAV<lambda_0a97c9e57da7be065955385c79108ff2>@@@Z 1001f64c f i libucrt:output.obj
 0001:0001e67e       ??$__acrt_lock_stream_and_call@V<lambda_2565fc715a641e539f44ad02d6823606>@@@@YAHQAU_iobuf@@$$QAV<lambda_2565fc715a641e539f44ad02d6823606>@@@Z 1001f67e f i libucrt:output.obj
 0001:0001e6b0       ??$__acrt_lock_stream_and_call@V<lambda_481dd5778c961fbcd3b60b650e9b9dc4>@@@@YAHQAU_iobuf@@$$QAV<lambda_481dd5778c961fbcd3b60b650e9b9dc4>@@@Z 1001f6b0 f i libucrt:output.obj
 0001:0001e6e2       ??$__acrt_lock_stream_and_call@V<lambda_4f2c1eaeead2a5fc776db5b62ea0fb9b>@@@@YAHQAU_iobuf@@$$QAV<lambda_4f2c1eaeead2a5fc776db5b62ea0fb9b>@@@Z 1001f6e2 f i libucrt:output.obj
 0001:0001e714       ??$__acrt_lock_stream_and_call@V<lambda_63a10c2dc8dbb9e4dd1890be52af7c93>@@@@YAHQAU_iobuf@@$$QAV<lambda_63a10c2dc8dbb9e4dd1890be52af7c93>@@@Z 1001f714 f i libucrt:output.obj
 0001:0001e746       ??$__acrt_lock_stream_and_call@V<lambda_e516058a9c289d98c8ca9fea99247804>@@@@YAHQAU_iobuf@@$$QAV<lambda_e516058a9c289d98c8ca9fea99247804>@@@Z 1001f746 f i libucrt:output.obj
 0001:0001e778       ??$__crt_interlocked_read@J@@YAJPDJ@Z 1001f778 f i libucrt:output.obj
 0001:0001f9c3       ??$count@D@formatting_buffer@__crt_stdio_output@@QBEIXZ 100209c3 f i libucrt:output.obj
 0001:0001f9e1       ??$data@D@formatting_buffer@__crt_stdio_output@@QAEPADXZ 100209e1 f i libucrt:output.obj
 0001:0001f9f1       ??$data@_W@formatting_buffer@__crt_stdio_output@@QAEPA_WXZ 100209f1 f i libucrt:output.obj
 0001:0001fa01       ??$ensure_buffer_is_big_enough@D@formatting_buffer@__crt_stdio_output@@QAE_NI@Z 10020a01 f i libucrt:output.obj
 0001:0001faa8       ??$extract_argument_from_va_list@C_J@?$positional_parameter_base@DV?$stream_output_adapter@D@__crt_stdio_output@@@__crt_stdio_output@@IAE_NAA_J@Z 10020aa8 f i libucrt:output.obj
 0001:0001fb46       ??$extract_argument_from_va_list@C_J@?$positional_parameter_base@DV?$string_output_adapter@D@__crt_stdio_output@@@__crt_stdio_output@@IAE_NAA_J@Z 10020b46 f i libucrt:output.obj
 0001:0001fbe4       ??$extract_argument_from_va_list@C_J@?$positional_parameter_base@_WV?$stream_output_adapter@_W@__crt_stdio_output@@@__crt_stdio_output@@IAE_NAA_J@Z 10020be4 f i libucrt:output.obj
 0001:0001fc82       ??$extract_argument_from_va_list@C_J@?$positional_parameter_base@_WV?$string_output_adapter@_W@__crt_stdio_output@@@__crt_stdio_output@@IAE_NAA_J@Z 10020c82 f i libucrt:output.obj
 0001:0001fd20       ??$extract_argument_from_va_list@C_J@?$standard_base@DV?$stream_output_adapter@D@__crt_stdio_output@@@__crt_stdio_output@@IAE_NAA_J@Z 10020d20 f i libucrt:output.obj
 0001:0001fd46       ??$extract_argument_from_va_list@C_J@?$standard_base@DV?$string_output_adapter@D@__crt_stdio_output@@@__crt_stdio_output@@IAE_NAA_J@Z 10020d46 f i libucrt:output.obj
 0001:0001fd6c       ??$extract_argument_from_va_list@C_J@?$standard_base@_WV?$stream_output_adapter@_W@__crt_stdio_output@@@__crt_stdio_output@@IAE_NAA_J@Z 10020d6c f i libucrt:output.obj
 0001:0001fd92       ??$extract_argument_from_va_list@C_J@?$standard_base@_WV?$string_output_adapter@_W@__crt_stdio_output@@@__crt_stdio_output@@IAE_NAA_J@Z 10020d92 f i libucrt:output.obj
 0001:0001fdb8       ??$extract_argument_from_va_list@E_J@?$positional_parameter_base@DV?$stream_output_adapter@D@__crt_stdio_output@@@__crt_stdio_output@@IAE_NAA_J@Z 10020db8 f i libucrt:output.obj
 0001:0001fe56       ??$extract_argument_from_va_list@E_J@?$positional_parameter_base@DV?$string_output_adapter@D@__crt_stdio_output@@@__crt_stdio_output@@IAE_NAA_J@Z 10020e56 f i libucrt:output.obj
 0001:0001fef4       ??$extract_argument_from_va_list@E_J@?$positional_parameter_base@_WV?$stream_output_adapter@_W@__crt_stdio_output@@@__crt_stdio_output@@IAE_NAA_J@Z 10020ef4 f i libucrt:output.obj
 0001:0001ff92       ??$extract_argument_from_va_list@E_J@?$positional_parameter_base@_WV?$string_output_adapter@_W@__crt_stdio_output@@@__crt_stdio_output@@IAE_NAA_J@Z 10020f92 f i libucrt:output.obj
 0001:00020030       ??$extract_argument_from_va_list@E_J@?$standard_base@DV?$stream_output_adapter@D@__crt_stdio_output@@@__crt_stdio_output@@IAE_NAA_J@Z 10021030 f i libucrt:output.obj
 0001:00020056       ??$extract_argument_from_va_list@E_J@?$standard_base@DV?$string_output_adapter@D@__crt_stdio_output@@@__crt_stdio_output@@IAE_NAA_J@Z 10021056 f i libucrt:output.obj
 0001:0002007c       ??$extract_argument_from_va_list@E_J@?$standard_base@_WV?$stream_output_adapter@_W@__crt_stdio_output@@@__crt_stdio_output@@IAE_NAA_J@Z 1002107c f i libucrt:output.obj
 0001:000200a2       ??$extract_argument_from_va_list@E_J@?$standard_base@_WV?$string_output_adapter@_W@__crt_stdio_output@@@__crt_stdio_output@@IAE_NAA_J@Z 100210a2 f i libucrt:output.obj
 0001:000200c8       ??$extract_argument_from_va_list@F_J@?$positional_parameter_base@DV?$stream_output_adapter@D@__crt_stdio_output@@@__crt_stdio_output@@IAE_NAA_J@Z 100210c8 f i libucrt:output.obj
 0001:00020166       ??$extract_argument_from_va_list@F_J@?$positional_parameter_base@DV?$string_output_adapter@D@__crt_stdio_output@@@__crt_stdio_output@@IAE_NAA_J@Z 10021166 f i libucrt:output.obj
 0001:00020204       ??$extract_argument_from_va_list@F_J@?$positional_parameter_base@_WV?$stream_output_adapter@_W@__crt_stdio_output@@@__crt_stdio_output@@IAE_NAA_J@Z 10021204 f i libucrt:output.obj
 0001:000202a2       ??$extract_argument_from_va_list@F_J@?$positional_parameter_base@_WV?$string_output_adapter@_W@__crt_stdio_output@@@__crt_stdio_output@@IAE_NAA_J@Z 100212a2 f i libucrt:output.obj
 0001:00020340       ??$extract_argument_from_va_list@F_J@?$standard_base@DV?$stream_output_adapter@D@__crt_stdio_output@@@__crt_stdio_output@@IAE_NAA_J@Z 10021340 f i libucrt:output.obj
 0001:00020366       ??$extract_argument_from_va_list@F_J@?$standard_base@DV?$string_output_adapter@D@__crt_stdio_output@@@__crt_stdio_output@@IAE_NAA_J@Z 10021366 f i libucrt:output.obj
 0001:0002038c       ??$extract_argument_from_va_list@F_J@?$standard_base@_WV?$stream_output_adapter@_W@__crt_stdio_output@@@__crt_stdio_output@@IAE_NAA_J@Z 1002138c f i libucrt:output.obj
 0001:000203b2       ??$extract_argument_from_va_list@F_J@?$standard_base@_WV?$string_output_adapter@_W@__crt_stdio_output@@@__crt_stdio_output@@IAE_NAA_J@Z 100213b2 f i libucrt:output.obj
 0001:000203d8       ??$extract_argument_from_va_list@GD@?$positional_parameter_base@DV?$stream_output_adapter@D@__crt_stdio_output@@@__crt_stdio_output@@IAE_NAAD@Z 100213d8 f i libucrt:output.obj
 0001:00020475       ??$extract_argument_from_va_list@GD@?$positional_parameter_base@DV?$string_output_adapter@D@__crt_stdio_output@@@__crt_stdio_output@@IAE_NAAD@Z 10021475 f i libucrt:output.obj
 0001:00020512       ??$extract_argument_from_va_list@GD@?$standard_base@DV?$stream_output_adapter@D@__crt_stdio_output@@@__crt_stdio_output@@IAE_NAAD@Z 10021512 f i libucrt:output.obj
 0001:00020532       ??$extract_argument_from_va_list@GD@?$standard_base@DV?$string_output_adapter@D@__crt_stdio_output@@@__crt_stdio_output@@IAE_NAAD@Z 10021532 f i libucrt:output.obj
 0001:00020552       ??$extract_argument_from_va_list@G_J@?$positional_parameter_base@DV?$stream_output_adapter@D@__crt_stdio_output@@@__crt_stdio_output@@IAE_NAA_J@Z 10021552 f i libucrt:output.obj
 0001:000205f0       ??$extract_argument_from_va_list@G_J@?$positional_parameter_base@DV?$string_output_adapter@D@__crt_stdio_output@@@__crt_stdio_output@@IAE_NAA_J@Z 100215f0 f i libucrt:output.obj
 0001:0002068e       ??$extract_argument_from_va_list@G_J@?$positional_parameter_base@_WV?$stream_output_adapter@_W@__crt_stdio_output@@@__crt_stdio_output@@IAE_NAA_J@Z 1002168e f i libucrt:output.obj
 0001:0002072c       ??$extract_argument_from_va_list@G_J@?$positional_parameter_base@_WV?$string_output_adapter@_W@__crt_stdio_output@@@__crt_stdio_output@@IAE_NAA_J@Z 1002172c f i libucrt:output.obj
 0001:000207ca       ??$extract_argument_from_va_list@G_J@?$standard_base@DV?$stream_output_adapter@D@__crt_stdio_output@@@__crt_stdio_output@@IAE_NAA_J@Z 100217ca f i libucrt:output.obj
 0001:000207f0       ??$extract_argument_from_va_list@G_J@?$standard_base@DV?$string_output_adapter@D@__crt_stdio_output@@@__crt_stdio_output@@IAE_NAA_J@Z 100217f0 f i libucrt:output.obj
 0001:00020816       ??$extract_argument_from_va_list@G_J@?$standard_base@_WV?$stream_output_adapter@_W@__crt_stdio_output@@@__crt_stdio_output@@IAE_NAA_J@Z 10021816 f i libucrt:output.obj
 0001:0002083c       ??$extract_argument_from_va_list@G_J@?$standard_base@_WV?$string_output_adapter@_W@__crt_stdio_output@@@__crt_stdio_output@@IAE_NAA_J@Z 1002183c f i libucrt:output.obj
 0001:00020862       ??$extract_argument_from_va_list@H_J@?$positional_parameter_base@DV?$stream_output_adapter@D@__crt_stdio_output@@@__crt_stdio_output@@IAE_NAA_J@Z 10021862 f i libucrt:output.obj
 0001:000208fe       ??$extract_argument_from_va_list@H_J@?$positional_parameter_base@DV?$string_output_adapter@D@__crt_stdio_output@@@__crt_stdio_output@@IAE_NAA_J@Z 100218fe f i libucrt:output.obj
 0001:0002099a       ??$extract_argument_from_va_list@H_J@?$positional_parameter_base@_WV?$stream_output_adapter@_W@__crt_stdio_output@@@__crt_stdio_output@@IAE_NAA_J@Z 1002199a f i libucrt:output.obj
 0001:00020a36       ??$extract_argument_from_va_list@H_J@?$positional_parameter_base@_WV?$string_output_adapter@_W@__crt_stdio_output@@@__crt_stdio_output@@IAE_NAA_J@Z 10021a36 f i libucrt:output.obj
 0001:00020ad2       ??$extract_argument_from_va_list@H_J@?$standard_base@DV?$stream_output_adapter@D@__crt_stdio_output@@@__crt_stdio_output@@IAE_NAA_J@Z 10021ad2 f i libucrt:output.obj
 0001:00020af7       ??$extract_argument_from_va_list@H_J@?$standard_base@DV?$string_output_adapter@D@__crt_stdio_output@@@__crt_stdio_output@@IAE_NAA_J@Z 10021af7 f i libucrt:output.obj
 0001:00020b1c       ??$extract_argument_from_va_list@H_J@?$standard_base@_WV?$stream_output_adapter@_W@__crt_stdio_output@@@__crt_stdio_output@@IAE_NAA_J@Z 10021b1c f i libucrt:output.obj
 0001:00020b41       ??$extract_argument_from_va_list@H_J@?$standard_base@_WV?$string_output_adapter@_W@__crt_stdio_output@@@__crt_stdio_output@@IAE_NAA_J@Z 10021b41 f i libucrt:output.obj
 0001:00020b66       ??$extract_argument_from_va_list@I_J@?$positional_parameter_base@DV?$stream_output_adapter@D@__crt_stdio_output@@@__crt_stdio_output@@IAE_NAA_J@Z 10021b66 f i libucrt:output.obj
 0001:00020c0d       ??$extract_argument_from_va_list@I_J@?$positional_parameter_base@DV?$string_output_adapter@D@__crt_stdio_output@@@__crt_stdio_output@@IAE_NAA_J@Z 10021c0d f i libucrt:output.obj
 0001:00020cb4       ??$extract_argument_from_va_list@I_J@?$positional_parameter_base@_WV?$stream_output_adapter@_W@__crt_stdio_output@@@__crt_stdio_output@@IAE_NAA_J@Z 10021cb4 f i libucrt:output.obj
 0001:00020d5b       ??$extract_argument_from_va_list@I_J@?$positional_parameter_base@_WV?$string_output_adapter@_W@__crt_stdio_output@@@__crt_stdio_output@@IAE_NAA_J@Z 10021d5b f i libucrt:output.obj
 0001:00020e02       ??$extract_argument_from_va_list@I_J@?$standard_base@DV?$stream_output_adapter@D@__crt_stdio_output@@@__crt_stdio_output@@IAE_NAA_J@Z 10021e02 f i libucrt:output.obj
 0001:00020e27       ??$extract_argument_from_va_list@I_J@?$standard_base@DV?$string_output_adapter@D@__crt_stdio_output@@@__crt_stdio_output@@IAE_NAA_J@Z 10021e27 f i libucrt:output.obj
 0001:00020e4c       ??$extract_argument_from_va_list@I_J@?$standard_base@_WV?$stream_output_adapter@_W@__crt_stdio_output@@@__crt_stdio_output@@IAE_NAA_J@Z 10021e4c f i libucrt:output.obj
 0001:00020e71       ??$extract_argument_from_va_list@I_J@?$standard_base@_WV?$string_output_adapter@_W@__crt_stdio_output@@@__crt_stdio_output@@IAE_NAA_J@Z 10021e71 f i libucrt:output.obj
 0001:00020e96       ??$extract_argument_from_va_list@PADPAD@?$positional_parameter_base@DV?$stream_output_adapter@D@__crt_stdio_output@@@__crt_stdio_output@@IAE_NAAPAD@Z 10021e96 f i libucrt:output.obj
 0001:00020f33       ??$extract_argument_from_va_list@PADPAD@?$positional_parameter_base@DV?$string_output_adapter@D@__crt_stdio_output@@@__crt_stdio_output@@IAE_NAAPAD@Z 10021f33 f i libucrt:output.obj
 0001:00020fd0       ??$extract_argument_from_va_list@PADPAD@?$positional_parameter_base@_WV?$stream_output_adapter@_W@__crt_stdio_output@@@__crt_stdio_output@@IAE_NAAPAD@Z 10021fd0 f i libucrt:output.obj
 0001:0002106d       ??$extract_argument_from_va_list@PADPAD@?$positional_parameter_base@_WV?$string_output_adapter@_W@__crt_stdio_output@@@__crt_stdio_output@@IAE_NAAPAD@Z 1002206d f i libucrt:output.obj
 0001:0002110a       ??$extract_argument_from_va_list@PADPAD@?$standard_base@DV?$stream_output_adapter@D@__crt_stdio_output@@@__crt_stdio_output@@IAE_NAAPAD@Z 1002210a f i libucrt:output.obj
 0001:0002112a       ??$extract_argument_from_va_list@PADPAD@?$standard_base@DV?$string_output_adapter@D@__crt_stdio_output@@@__crt_stdio_output@@IAE_NAAPAD@Z 1002212a f i libucrt:output.obj
 0001:0002114a       ??$extract_argument_from_va_list@PADPAD@?$standard_base@_WV?$stream_output_adapter@_W@__crt_stdio_output@@@__crt_stdio_output@@IAE_NAAPAD@Z 1002214a f i libucrt:output.obj
 0001:0002116a       ??$extract_argument_from_va_list@PADPAD@?$standard_base@_WV?$string_output_adapter@_W@__crt_stdio_output@@@__crt_stdio_output@@IAE_NAAPAD@Z 1002216a f i libucrt:output.obj
 0001:0002118a       ??$extract_argument_from_va_list@PAUansi_string@?1??type_case_Z@?$output_processor@DV?$stream_output_adapter@D@__crt_stdio_output@@V?$format_validation_base@DV?$stream_output_adapter@D@__crt_stdio_output@@@2@@__crt_stdio_output@@AAE_NXZ@PAU1?1??234@AAE_NXZ@@?$standard_base@DV?$stream_output_adapter@D@__crt_stdio_output@@@__crt_stdio_output@@IAE_NAAPAUansi_string@?1??type_case_Z@?$output_processor@DV?$stream_output_adapter@D@__crt_stdio_output@@V?$format_validation_base@DV?$stream_output_adapter@D@__crt_stdio_output@@@2@@1@AAE_NXZ@@Z 1002218a f i libucrt:output.obj
 0001:000211aa       ??$extract_argument_from_va_list@PAUansi_string@?1??type_case_Z@?$output_processor@DV?$stream_output_adapter@D@__crt_stdio_output@@V?$positional_parameter_base@DV?$stream_output_adapter@D@__crt_stdio_output@@@2@@__crt_stdio_output@@AAE_NXZ@PAU1?1??234@AAE_NXZ@@?$positional_parameter_base@DV?$stream_output_adapter@D@__crt_stdio_output@@@__crt_stdio_output@@IAE_NAAPAUansi_string@?1??type_case_Z@?$output_processor@DV?$stream_output_adapter@D@__crt_stdio_output@@V?$positional_parameter_base@DV?$stream_output_adapter@D@__crt_stdio_output@@@2@@1@AAE_NXZ@@Z 100221aa f i libucrt:output.obj
 0001:00021247       ??$extract_argument_from_va_list@PAUansi_string@?1??type_case_Z@?$output_processor@DV?$stream_output_adapter@D@__crt_stdio_output@@V?$positional_parameter_base@DV?$stream_output_adapter@D@__crt_stdio_output@@@2@@__crt_stdio_output@@AAE_NXZ@PAU1?1??234@AAE_NXZ@@?$standard_base@DV?$stream_output_adapter@D@__crt_stdio_output@@@__crt_stdio_output@@IAE_NAAPAUansi_string@?1??type_case_Z@?$output_processor@DV?$stream_output_adapter@D@__crt_stdio_output@@V?$positional_parameter_base@DV?$stream_output_adapter@D@__crt_stdio_output@@@2@@1@AAE_NXZ@@Z 10022247 f i libucrt:output.obj
 0001:00021267       ??$extract_argument_from_va_list@PAUansi_string@?1??type_case_Z@?$output_processor@DV?$stream_output_adapter@D@__crt_stdio_output@@V?$standard_base@DV?$stream_output_adapter@D@__crt_stdio_output@@@2@@__crt_stdio_output@@AAE_NXZ@PAU1?1??234@AAE_NXZ@@?$standard_base@DV?$stream_output_adapter@D@__crt_stdio_output@@@__crt_stdio_output@@IAE_NAAPAUansi_string@?1??type_case_Z@?$output_processor@DV?$stream_output_adapter@D@__crt_stdio_output@@V?$standard_base@DV?$stream_output_adapter@D@__crt_stdio_output@@@2@@1@AAE_NXZ@@Z 10022267 f i libucrt:output.obj
 0001:00021287       ??$extract_argument_from_va_list@PAUansi_string@?1??type_case_Z@?$output_processor@DV?$string_output_adapter@D@__crt_stdio_output@@V?$format_validation_base@DV?$string_output_adapter@D@__crt_stdio_output@@@2@@__crt_stdio_output@@AAE_NXZ@PAU1?1??234@AAE_NXZ@@?$standard_base@DV?$string_output_adapter@D@__crt_stdio_output@@@__crt_stdio_output@@IAE_NAAPAUansi_string@?1??type_case_Z@?$output_processor@DV?$string_output_adapter@D@__crt_stdio_output@@V?$format_validation_base@DV?$string_output_adapter@D@__crt_stdio_output@@@2@@1@AAE_NXZ@@Z 10022287 f i libucrt:output.obj
 0001:000212a7       ??$extract_argument_from_va_list@PAUansi_string@?1??type_case_Z@?$output_processor@DV?$string_output_adapter@D@__crt_stdio_output@@V?$positional_parameter_base@DV?$string_output_adapter@D@__crt_stdio_output@@@2@@__crt_stdio_output@@AAE_NXZ@PAU1?1??234@AAE_NXZ@@?$positional_parameter_base@DV?$string_output_adapter@D@__crt_stdio_output@@@__crt_stdio_output@@IAE_NAAPAUansi_string@?1??type_case_Z@?$output_processor@DV?$string_output_adapter@D@__crt_stdio_output@@V?$positional_parameter_base@DV?$string_output_adapter@D@__crt_stdio_output@@@2@@1@AAE_NXZ@@Z 100222a7 f i libucrt:output.obj
 0001:00021344       ??$extract_argument_from_va_list@PAUansi_string@?1??type_case_Z@?$output_processor@DV?$string_output_adapter@D@__crt_stdio_output@@V?$positional_parameter_base@DV?$string_output_adapter@D@__crt_stdio_output@@@2@@__crt_stdio_output@@AAE_NXZ@PAU1?1??234@AAE_NXZ@@?$standard_base@DV?$string_output_adapter@D@__crt_stdio_output@@@__crt_stdio_output@@IAE_NAAPAUansi_string@?1??type_case_Z@?$output_processor@DV?$string_output_adapter@D@__crt_stdio_output@@V?$positional_parameter_base@DV?$string_output_adapter@D@__crt_stdio_output@@@2@@1@AAE_NXZ@@Z 10022344 f i libucrt:output.obj
 0001:00021364       ??$extract_argument_from_va_list@PAUansi_string@?1??type_case_Z@?$output_processor@DV?$string_output_adapter@D@__crt_stdio_output@@V?$standard_base@DV?$string_output_adapter@D@__crt_stdio_output@@@2@@__crt_stdio_output@@AAE_NXZ@PAU1?1??234@AAE_NXZ@@?$standard_base@DV?$string_output_adapter@D@__crt_stdio_output@@@__crt_stdio_output@@IAE_NAAPAUansi_string@?1??type_case_Z@?$output_processor@DV?$string_output_adapter@D@__crt_stdio_output@@V?$standard_base@DV?$string_output_adapter@D@__crt_stdio_output@@@2@@1@AAE_NXZ@@Z 10022364 f i libucrt:output.obj
 0001:00021384       ??$extract_argument_from_va_list@PAUansi_string@?1??type_case_Z@?$output_processor@_WV?$stream_output_adapter@_W@__crt_stdio_output@@V?$format_validation_base@_WV?$stream_output_adapter@_W@__crt_stdio_output@@@2@@__crt_stdio_output@@AAE_NXZ@PAU1?1??234@AAE_NXZ@@?$standard_base@_WV?$stream_output_adapter@_W@__crt_stdio_output@@@__crt_stdio_output@@IAE_NAAPAUansi_string@?1??type_case_Z@?$output_processor@_WV?$stream_output_adapter@_W@__crt_stdio_output@@V?$format_validation_base@_WV?$stream_output_adapter@_W@__crt_stdio_output@@@2@@1@AAE_NXZ@@Z 10022384 f i libucrt:output.obj
 0001:000213a4       ??$extract_argument_from_va_list@PAUansi_string@?1??type_case_Z@?$output_processor@_WV?$stream_output_adapter@_W@__crt_stdio_output@@V?$positional_parameter_base@_WV?$stream_output_adapter@_W@__crt_stdio_output@@@2@@__crt_stdio_output@@AAE_NXZ@PAU1?1??234@AAE_NXZ@@?$positional_parameter_base@_WV?$stream_output_adapter@_W@__crt_stdio_output@@@__crt_stdio_output@@IAE_NAAPAUansi_string@?1??type_case_Z@?$output_processor@_WV?$stream_output_adapter@_W@__crt_stdio_output@@V?$positional_parameter_base@_WV?$stream_output_adapter@_W@__crt_stdio_output@@@2@@1@AAE_NXZ@@Z 100223a4 f i libucrt:output.obj
 0001:00021441       ??$extract_argument_from_va_list@PAUansi_string@?1??type_case_Z@?$output_processor@_WV?$stream_output_adapter@_W@__crt_stdio_output@@V?$positional_parameter_base@_WV?$stream_output_adapter@_W@__crt_stdio_output@@@2@@__crt_stdio_output@@AAE_NXZ@PAU1?1??234@AAE_NXZ@@?$standard_base@_WV?$stream_output_adapter@_W@__crt_stdio_output@@@__crt_stdio_output@@IAE_NAAPAUansi_string@?1??type_case_Z@?$output_processor@_WV?$stream_output_adapter@_W@__crt_stdio_output@@V?$positional_parameter_base@_WV?$stream_output_adapter@_W@__crt_stdio_output@@@2@@1@AAE_NXZ@@Z 10022441 f i libucrt:output.obj
 0001:00021461       ??$extract_argument_from_va_list@PAUansi_string@?1??type_case_Z@?$output_processor@_WV?$stream_output_adapter@_W@__crt_stdio_output@@V?$standard_base@_WV?$stream_output_adapter@_W@__crt_stdio_output@@@2@@__crt_stdio_output@@AAE_NXZ@PAU1?1??234@AAE_NXZ@@?$standard_base@_WV?$stream_output_adapter@_W@__crt_stdio_output@@@__crt_stdio_output@@IAE_NAAPAUansi_string@?1??type_case_Z@?$output_processor@_WV?$stream_output_adapter@_W@__crt_stdio_output@@V?$standard_base@_WV?$stream_output_adapter@_W@__crt_stdio_output@@@2@@1@AAE_NXZ@@Z 10022461 f i libucrt:output.obj
 0001:00021481       ??$extract_argument_from_va_list@PAUansi_string@?1??type_case_Z@?$output_processor@_WV?$string_output_adapter@_W@__crt_stdio_output@@V?$format_validation_base@_WV?$string_output_adapter@_W@__crt_stdio_output@@@2@@__crt_stdio_output@@AAE_NXZ@PAU1?1??234@AAE_NXZ@@?$standard_base@_WV?$string_output_adapter@_W@__crt_stdio_output@@@__crt_stdio_output@@IAE_NAAPAUansi_string@?1??type_case_Z@?$output_processor@_WV?$string_output_adapter@_W@__crt_stdio_output@@V?$format_validation_base@_WV?$string_output_adapter@_W@__crt_stdio_output@@@2@@1@AAE_NXZ@@Z 10022481 f i libucrt:output.obj
 0001:000214a1       ??$extract_argument_from_va_list@PAUansi_string@?1??type_case_Z@?$output_processor@_WV?$string_output_adapter@_W@__crt_stdio_output@@V?$positional_parameter_base@_WV?$string_output_adapter@_W@__crt_stdio_output@@@2@@__crt_stdio_output@@AAE_NXZ@PAU1?1??234@AAE_NXZ@@?$positional_parameter_base@_WV?$string_output_adapter@_W@__crt_stdio_output@@@__crt_stdio_output@@IAE_NAAPAUansi_string@?1??type_case_Z@?$output_processor@_WV?$string_output_adapter@_W@__crt_stdio_output@@V?$positional_parameter_base@_WV?$string_output_adapter@_W@__crt_stdio_output@@@2@@1@AAE_NXZ@@Z 100224a1 f i libucrt:output.obj
 0001:0002153e       ??$extract_argument_from_va_list@PAUansi_string@?1??type_case_Z@?$output_processor@_WV?$string_output_adapter@_W@__crt_stdio_output@@V?$positional_parameter_base@_WV?$string_output_adapter@_W@__crt_stdio_output@@@2@@__crt_stdio_output@@AAE_NXZ@PAU1?1??234@AAE_NXZ@@?$standard_base@_WV?$string_output_adapter@_W@__crt_stdio_output@@@__crt_stdio_output@@IAE_NAAPAUansi_string@?1??type_case_Z@?$output_processor@_WV?$string_output_adapter@_W@__crt_stdio_output@@V?$positional_parameter_base@_WV?$string_output_adapter@_W@__crt_stdio_output@@@2@@1@AAE_NXZ@@Z 1002253e f i libucrt:output.obj
 0001:0002155e       ??$extract_argument_from_va_list@PAUansi_string@?1??type_case_Z@?$output_processor@_WV?$string_output_adapter@_W@__crt_stdio_output@@V?$standard_base@_WV?$string_output_adapter@_W@__crt_stdio_output@@@2@@__crt_stdio_output@@AAE_NXZ@PAU1?1??234@AAE_NXZ@@?$standard_base@_WV?$string_output_adapter@_W@__crt_stdio_output@@@__crt_stdio_output@@IAE_NAAPAUansi_string@?1??type_case_Z@?$output_processor@_WV?$string_output_adapter@_W@__crt_stdio_output@@V?$standard_base@_WV?$string_output_adapter@_W@__crt_stdio_output@@@2@@1@AAE_NXZ@@Z 1002255e f i libucrt:output.obj
 0001:0002157e       ??$extract_argument_from_va_list@PAXPAX@?$positional_parameter_base@DV?$stream_output_adapter@D@__crt_stdio_output@@@__crt_stdio_output@@IAE_NAAPAX@Z 1002257e f i libucrt:output.obj
 0001:0002161b       ??$extract_argument_from_va_list@PAXPAX@?$positional_parameter_base@DV?$string_output_adapter@D@__crt_stdio_output@@@__crt_stdio_output@@IAE_NAAPAX@Z 1002261b f i libucrt:output.obj
 0001:000216b8       ??$extract_argument_from_va_list@PAXPAX@?$positional_parameter_base@_WV?$stream_output_adapter@_W@__crt_stdio_output@@@__crt_stdio_output@@IAE_NAAPAX@Z 100226b8 f i libucrt:output.obj
 0001:00021755       ??$extract_argument_from_va_list@PAXPAX@?$positional_parameter_base@_WV?$string_output_adapter@_W@__crt_stdio_output@@@__crt_stdio_output@@IAE_NAAPAX@Z 10022755 f i libucrt:output.obj
 0001:000217f2       ??$extract_argument_from_va_list@PAXPAX@?$standard_base@DV?$stream_output_adapter@D@__crt_stdio_output@@@__crt_stdio_output@@IAE_NAAPAX@Z 100227f2 f i libucrt:output.obj
 0001:00021812       ??$extract_argument_from_va_list@PAXPAX@?$standard_base@DV?$string_output_adapter@D@__crt_stdio_output@@@__crt_stdio_output@@IAE_NAAPAX@Z 10022812 f i libucrt:output.obj
 0001:00021832       ??$extract_argument_from_va_list@PAXPAX@?$standard_base@_WV?$stream_output_adapter@_W@__crt_stdio_output@@@__crt_stdio_output@@IAE_NAAPAX@Z 10022832 f i libucrt:output.obj
 0001:00021852       ??$extract_argument_from_va_list@PAXPAX@?$standard_base@_WV?$string_output_adapter@_W@__crt_stdio_output@@@__crt_stdio_output@@IAE_NAAPAX@Z 10022852 f i libucrt:output.obj
 0001:00021872       ??$extract_argument_from_va_list@U_CRT_DOUBLE@@U1@@?$positional_parameter_base@DV?$stream_output_adapter@D@__crt_stdio_output@@@__crt_stdio_output@@IAE_NAAU_CRT_DOUBLE@@@Z 10022872 f i libucrt:output.obj
 0001:00021923       ??$extract_argument_from_va_list@U_CRT_DOUBLE@@U1@@?$positional_parameter_base@DV?$string_output_adapter@D@__crt_stdio_output@@@__crt_stdio_output@@IAE_NAAU_CRT_DOUBLE@@@Z 10022923 f i libucrt:output.obj
 0001:000219d4       ??$extract_argument_from_va_list@U_CRT_DOUBLE@@U1@@?$positional_parameter_base@_WV?$stream_output_adapter@_W@__crt_stdio_output@@@__crt_stdio_output@@IAE_NAAU_CRT_DOUBLE@@@Z 100229d4 f i libucrt:output.obj
 0001:00021a85       ??$extract_argument_from_va_list@U_CRT_DOUBLE@@U1@@?$positional_parameter_base@_WV?$string_output_adapter@_W@__crt_stdio_output@@@__crt_stdio_output@@IAE_NAAU_CRT_DOUBLE@@@Z 10022a85 f i libucrt:output.obj
 0001:00021b36       ??$extract_argument_from_va_list@U_CRT_DOUBLE@@U1@@?$standard_base@DV?$stream_output_adapter@D@__crt_stdio_output@@@__crt_stdio_output@@IAE_NAAU_CRT_DOUBLE@@@Z 10022b36 f i libucrt:output.obj
 0001:00021b5e       ??$extract_argument_from_va_list@U_CRT_DOUBLE@@U1@@?$standard_base@DV?$string_output_adapter@D@__crt_stdio_output@@@__crt_stdio_output@@IAE_NAAU_CRT_DOUBLE@@@Z 10022b5e f i libucrt:output.obj
 0001:00021b86       ??$extract_argument_from_va_list@U_CRT_DOUBLE@@U1@@?$standard_base@_WV?$stream_output_adapter@_W@__crt_stdio_output@@@__crt_stdio_output@@IAE_NAAU_CRT_DOUBLE@@@Z 10022b86 f i libucrt:output.obj
 0001:00021bae       ??$extract_argument_from_va_list@U_CRT_DOUBLE@@U1@@?$standard_base@_WV?$string_output_adapter@_W@__crt_stdio_output@@@__crt_stdio_output@@IAE_NAAU_CRT_DOUBLE@@@Z 10022bae f i libucrt:output.obj
 0001:00021bd6       ??$extract_argument_from_va_list@_J_J@?$positional_parameter_base@DV?$stream_output_adapter@D@__crt_stdio_output@@@__crt_stdio_output@@IAE_NAA_J@Z 10022bd6 f i libucrt:output.obj
 0001:00021c87       ??$extract_argument_from_va_list@_J_J@?$positional_parameter_base@DV?$string_output_adapter@D@__crt_stdio_output@@@__crt_stdio_output@@IAE_NAA_J@Z 10022c87 f i libucrt:output.obj
 0001:00021d38       ??$extract_argument_from_va_list@_J_J@?$positional_parameter_base@_WV?$stream_output_adapter@_W@__crt_stdio_output@@@__crt_stdio_output@@IAE_NAA_J@Z 10022d38 f i libucrt:output.obj
 0001:00021de9       ??$extract_argument_from_va_list@_J_J@?$positional_parameter_base@_WV?$string_output_adapter@_W@__crt_stdio_output@@@__crt_stdio_output@@IAE_NAA_J@Z 10022de9 f i libucrt:output.obj
 0001:00021e9a       ??$extract_argument_from_va_list@_J_J@?$standard_base@DV?$stream_output_adapter@D@__crt_stdio_output@@@__crt_stdio_output@@IAE_NAA_J@Z 10022e9a f i libucrt:output.obj
 0001:00021ec2       ??$extract_argument_from_va_list@_J_J@?$standard_base@DV?$string_output_adapter@D@__crt_stdio_output@@@__crt_stdio_output@@IAE_NAA_J@Z 10022ec2 f i libucrt:output.obj
 0001:00021eea       ??$extract_argument_from_va_list@_J_J@?$standard_base@_WV?$stream_output_adapter@_W@__crt_stdio_output@@@__crt_stdio_output@@IAE_NAA_J@Z 10022eea f i libucrt:output.obj
 0001:00021f12       ??$extract_argument_from_va_list@_J_J@?$standard_base@_WV?$string_output_adapter@_W@__crt_stdio_output@@@__crt_stdio_output@@IAE_NAA_J@Z 10022f12 f i libucrt:output.obj
 0001:00021f3a       ??$extract_argument_from_va_list@_K_J@?$positional_parameter_base@DV?$stream_output_adapter@D@__crt_stdio_output@@@__crt_stdio_output@@IAE_NAA_J@Z 10022f3a f i libucrt:output.obj
 0001:00021feb       ??$extract_argument_from_va_list@_K_J@?$positional_parameter_base@DV?$string_output_adapter@D@__crt_stdio_output@@@__crt_stdio_output@@IAE_NAA_J@Z 10022feb f i libucrt:output.obj
 0001:0002209c       ??$extract_argument_from_va_list@_K_J@?$positional_parameter_base@_WV?$stream_output_adapter@_W@__crt_stdio_output@@@__crt_stdio_output@@IAE_NAA_J@Z 1002309c f i libucrt:output.obj
 0001:0002214d       ??$extract_argument_from_va_list@_K_J@?$positional_parameter_base@_WV?$string_output_adapter@_W@__crt_stdio_output@@@__crt_stdio_output@@IAE_NAA_J@Z 1002314d f i libucrt:output.obj
 0001:000221fe       ??$extract_argument_from_va_list@_K_J@?$standard_base@DV?$stream_output_adapter@D@__crt_stdio_output@@@__crt_stdio_output@@IAE_NAA_J@Z 100231fe f i libucrt:output.obj
 0001:00022226       ??$extract_argument_from_va_list@_K_J@?$standard_base@DV?$string_output_adapter@D@__crt_stdio_output@@@__crt_stdio_output@@IAE_NAA_J@Z 10023226 f i libucrt:output.obj
 0001:0002224e       ??$extract_argument_from_va_list@_K_J@?$standard_base@_WV?$stream_output_adapter@_W@__crt_stdio_output@@@__crt_stdio_output@@IAE_NAA_J@Z 1002324e f i libucrt:output.obj
 0001:00022276       ??$extract_argument_from_va_list@_K_J@?$standard_base@_WV?$string_output_adapter@_W@__crt_stdio_output@@@__crt_stdio_output@@IAE_NAA_J@Z 10023276 f i libucrt:output.obj
 0001:0002229e       ??$extract_argument_from_va_list@_W_W@?$positional_parameter_base@DV?$stream_output_adapter@D@__crt_stdio_output@@@__crt_stdio_output@@IAE_NAA_W@Z 1002329e f i libucrt:output.obj
 0001:00022340       ??$extract_argument_from_va_list@_W_W@?$positional_parameter_base@DV?$string_output_adapter@D@__crt_stdio_output@@@__crt_stdio_output@@IAE_NAA_W@Z 10023340 f i libucrt:output.obj
 0001:000223e2       ??$extract_argument_from_va_list@_W_W@?$positional_parameter_base@_WV?$stream_output_adapter@_W@__crt_stdio_output@@@__crt_stdio_output@@IAE_NAA_W@Z 100233e2 f i libucrt:output.obj
 0001:00022484       ??$extract_argument_from_va_list@_W_W@?$positional_parameter_base@_WV?$string_output_adapter@_W@__crt_stdio_output@@@__crt_stdio_output@@IAE_NAA_W@Z 10023484 f i libucrt:output.obj
 0001:00022526       ??$extract_argument_from_va_list@_W_W@?$standard_base@DV?$stream_output_adapter@D@__crt_stdio_output@@@__crt_stdio_output@@IAE_NAA_W@Z 10023526 f i libucrt:output.obj
 0001:00022549       ??$extract_argument_from_va_list@_W_W@?$standard_base@DV?$string_output_adapter@D@__crt_stdio_output@@@__crt_stdio_output@@IAE_NAA_W@Z 10023549 f i libucrt:output.obj
 0001:0002256c       ??$extract_argument_from_va_list@_W_W@?$standard_base@_WV?$stream_output_adapter@_W@__crt_stdio_output@@@__crt_stdio_output@@IAE_NAA_W@Z 1002356c f i libucrt:output.obj
 0001:0002258f       ??$extract_argument_from_va_list@_W_W@?$standard_base@_WV?$string_output_adapter@_W@__crt_stdio_output@@@__crt_stdio_output@@IAE_NAA_W@Z 1002358f f i libucrt:output.obj
 0001:000225b2       ??$get_parameter_type@D@?$positional_parameter_base@DV?$stream_output_adapter@D@__crt_stdio_output@@@__crt_stdio_output@@CA?AW4parameter_type@01@PAD@Z 100235b2 f i libucrt:output.obj
 0001:000225b6       ??$get_parameter_type@D@?$positional_parameter_base@DV?$string_output_adapter@D@__crt_stdio_output@@@__crt_stdio_output@@CA?AW4parameter_type@01@PAD@Z 100235b6 f i libucrt:output.obj
 0001:000225ba       ??$get_parameter_type@D@?$positional_parameter_base@_WV?$stream_output_adapter@_W@__crt_stdio_output@@@__crt_stdio_output@@CA?AW4parameter_type@01@PAD@Z 100235ba f i libucrt:output.obj
 0001:000225be       ??$get_parameter_type@D@?$positional_parameter_base@_WV?$string_output_adapter@_W@__crt_stdio_output@@@__crt_stdio_output@@CA?AW4parameter_type@01@PAD@Z 100235be f i libucrt:output.obj
 0001:000225c2       ??$get_parameter_type@Uansi_string@?1??type_case_Z@?$output_processor@DV?$stream_output_adapter@D@__crt_stdio_output@@V?$positional_parameter_base@DV?$stream_output_adapter@D@__crt_stdio_output@@@2@@__crt_stdio_output@@AAE_NXZ@@?$positional_parameter_base@DV?$stream_output_adapter@D@__crt_stdio_output@@@__crt_stdio_output@@CA?AW4parameter_type@01@PAUansi_string@?1??type_case_Z@?$output_processor@DV?$stream_output_adapter@D@__crt_stdio_output@@V?$positional_parameter_base@DV?$stream_output_adapter@D@__crt_stdio_output@@@2@@1@AAE_NXZ@@Z 100235c2 f i libucrt:output.obj
 0001:000225c6       ??$get_parameter_type@Uansi_string@?1??type_case_Z@?$output_processor@DV?$string_output_adapter@D@__crt_stdio_output@@V?$positional_parameter_base@DV?$string_output_adapter@D@__crt_stdio_output@@@2@@__crt_stdio_output@@AAE_NXZ@@?$positional_parameter_base@DV?$string_output_adapter@D@__crt_stdio_output@@@__crt_stdio_output@@CA?AW4parameter_type@01@PAUansi_string@?1??type_case_Z@?$output_processor@DV?$string_output_adapter@D@__crt_stdio_output@@V?$positional_parameter_base@DV?$string_output_adapter@D@__crt_stdio_output@@@2@@1@AAE_NXZ@@Z 100235c6 f i libucrt:output.obj
 0001:000225ca       ??$get_parameter_type@Uansi_string@?1??type_case_Z@?$output_processor@_WV?$stream_output_adapter@_W@__crt_stdio_output@@V?$positional_parameter_base@_WV?$stream_output_adapter@_W@__crt_stdio_output@@@2@@__crt_stdio_output@@AAE_NXZ@@?$positional_parameter_base@_WV?$stream_output_adapter@_W@__crt_stdio_output@@@__crt_stdio_output@@CA?AW4parameter_type@01@PAUansi_string@?1??type_case_Z@?$output_processor@_WV?$stream_output_adapter@_W@__crt_stdio_output@@V?$positional_parameter_base@_WV?$stream_output_adapter@_W@__crt_stdio_output@@@2@@1@AAE_NXZ@@Z 100235ca f i libucrt:output.obj
 0001:000225ce       ??$get_parameter_type@Uansi_string@?1??type_case_Z@?$output_processor@_WV?$string_output_adapter@_W@__crt_stdio_output@@V?$positional_parameter_base@_WV?$string_output_adapter@_W@__crt_stdio_output@@@2@@__crt_stdio_output@@AAE_NXZ@@?$positional_parameter_base@_WV?$string_output_adapter@_W@__crt_stdio_output@@@__crt_stdio_output@@CA?AW4parameter_type@01@PAUansi_string@?1??type_case_Z@?$output_processor@_WV?$string_output_adapter@_W@__crt_stdio_output@@V?$positional_parameter_base@_WV?$string_output_adapter@_W@__crt_stdio_output@@@2@@1@AAE_NXZ@@Z 100235ce f i libucrt:output.obj
 0001:000225d2       ??$get_parameter_type@X@?$positional_parameter_base@DV?$stream_output_adapter@D@__crt_stdio_output@@@__crt_stdio_output@@CA?AW4parameter_type@01@PAX@Z 100235d2 f i libucrt:output.obj
 0001:000225d6       ??$get_parameter_type@X@?$positional_parameter_base@DV?$string_output_adapter@D@__crt_stdio_output@@@__crt_stdio_output@@CA?AW4parameter_type@01@PAX@Z 100235d6 f i libucrt:output.obj
 0001:000225da       ??$get_parameter_type@X@?$positional_parameter_base@_WV?$stream_output_adapter@_W@__crt_stdio_output@@@__crt_stdio_output@@CA?AW4parameter_type@01@PAX@Z 100235da f i libucrt:output.obj
 0001:000225de       ??$get_parameter_type@X@?$positional_parameter_base@_WV?$string_output_adapter@_W@__crt_stdio_output@@@__crt_stdio_output@@CA?AW4parameter_type@01@PAX@Z 100235de f i libucrt:output.obj
 0001:000225e2       ??$is_character_specifier@D@?$positional_parameter_base@DV?$stream_output_adapter@D@__crt_stdio_output@@@__crt_stdio_output@@CA_ND@Z 100235e2 f i libucrt:output.obj
 0001:00022601       ??$is_character_specifier@D@?$positional_parameter_base@DV?$string_output_adapter@D@__crt_stdio_output@@@__crt_stdio_output@@CA_ND@Z 10023601 f i libucrt:output.obj
 0001:00022620       ??$is_character_specifier@_W@?$positional_parameter_base@_WV?$stream_output_adapter@_W@__crt_stdio_output@@@__crt_stdio_output@@CA_N_W@Z 10023620 f i libucrt:output.obj
 0001:00022643       ??$is_character_specifier@_W@?$positional_parameter_base@_WV?$string_output_adapter@_W@__crt_stdio_output@@@__crt_stdio_output@@CA_N_W@Z 10023643 f i libucrt:output.obj
 0001:00022666       ??$is_integral_specifier@D@?$positional_parameter_base@DV?$stream_output_adapter@D@__crt_stdio_output@@@__crt_stdio_output@@CA_ND@Z 10023666 f i libucrt:output.obj
 0001:0002269e       ??$is_integral_specifier@D@?$positional_parameter_base@DV?$string_output_adapter@D@__crt_stdio_output@@@__crt_stdio_output@@CA_ND@Z 1002369e f i libucrt:output.obj
 0001:000226d6       ??$is_integral_specifier@_W@?$positional_parameter_base@_WV?$stream_output_adapter@_W@__crt_stdio_output@@@__crt_stdio_output@@CA_N_W@Z 100236d6 f i libucrt:output.obj
 0001:00022721       ??$is_integral_specifier@_W@?$positional_parameter_base@_WV?$string_output_adapter@_W@__crt_stdio_output@@@__crt_stdio_output@@CA_N_W@Z 10023721 f i libucrt:output.obj
 0001:0002276c       ??$is_pointer_specifier@D@?$positional_parameter_base@DV?$stream_output_adapter@D@__crt_stdio_output@@@__crt_stdio_output@@CA_ND@Z 1002376c f i libucrt:output.obj
 0001:00022780       ??$is_pointer_specifier@D@?$positional_parameter_base@DV?$string_output_adapter@D@__crt_stdio_output@@@__crt_stdio_output@@CA_ND@Z 10023780 f i libucrt:output.obj
 0001:00022794       ??$is_pointer_specifier@_W@?$positional_parameter_base@_WV?$stream_output_adapter@_W@__crt_stdio_output@@@__crt_stdio_output@@CA_N_W@Z 10023794 f i libucrt:output.obj
 0001:000227a9       ??$is_pointer_specifier@_W@?$positional_parameter_base@_WV?$string_output_adapter@_W@__crt_stdio_output@@@__crt_stdio_output@@CA_N_W@Z 100237a9 f i libucrt:output.obj
 0001:000227be       ??$is_string_specifier@D@?$positional_parameter_base@DV?$stream_output_adapter@D@__crt_stdio_output@@@__crt_stdio_output@@CA_ND@Z 100237be f i libucrt:output.obj
 0001:000227dd       ??$is_string_specifier@D@?$positional_parameter_base@DV?$string_output_adapter@D@__crt_stdio_output@@@__crt_stdio_output@@CA_ND@Z 100237dd f i libucrt:output.obj
 0001:000227fc       ??$is_string_specifier@_W@?$positional_parameter_base@_WV?$stream_output_adapter@_W@__crt_stdio_output@@@__crt_stdio_output@@CA_N_W@Z 100237fc f i libucrt:output.obj
 0001:0002281f       ??$is_string_specifier@_W@?$positional_parameter_base@_WV?$string_output_adapter@_W@__crt_stdio_output@@@__crt_stdio_output@@CA_N_W@Z 1002381f f i libucrt:output.obj
 0001:00022842       ??$is_wide_character_specifier@D@__crt_stdio_output@@YA_N_KDW4length_modifier@0@@Z 10023842 f i libucrt:output.obj
 0001:00022892       ??$is_wide_character_specifier@_W@__crt_stdio_output@@YA_N_K_WW4length_modifier@0@@Z 10023892 f i libucrt:output.obj
 0001:000228f4       ??$peek_va_arg@C@__crt_stdio_output@@YACPAD@Z 100238f4 f i libucrt:output.obj
 0001:00022903       ??$peek_va_arg@E@__crt_stdio_output@@YAEPAD@Z 10023903 f i libucrt:output.obj
 0001:00022912       ??$peek_va_arg@F@__crt_stdio_output@@YAFPAD@Z 10023912 f i libucrt:output.obj
 0001:00022922       ??$peek_va_arg@G@__crt_stdio_output@@YAGPAD@Z 10023922 f i libucrt:output.obj
 0001:00022932       ??$peek_va_arg@H@__crt_stdio_output@@YAHPAD@Z 10023932 f i libucrt:output.obj
 0001:00022941       ??$peek_va_arg@I@__crt_stdio_output@@YAIPAD@Z 10023941 f i libucrt:output.obj
 0001:00022950       ??$peek_va_arg@PAD@__crt_stdio_output@@YAPADPAD@Z 10023950 f i libucrt:output.obj
 0001:0002295f       ??$peek_va_arg@PAUansi_string@?1??type_case_Z@?$output_processor@DV?$stream_output_adapter@D@__crt_stdio_output@@V?$positional_parameter_base@DV?$stream_output_adapter@D@__crt_stdio_output@@@2@@__crt_stdio_output@@AAE_NXZ@@__crt_stdio_output@@YAPAUansi_string@?1??type_case_Z@?$output_processor@DV?$stream_output_adapter@D@__crt_stdio_output@@V?$positional_parameter_base@DV?$stream_output_adapter@D@__crt_stdio_output@@@2@@0@AAE_NXZ@PAD@Z 1002395f f i libucrt:output.obj
 0001:0002296e       ??$peek_va_arg@PAUansi_string@?1??type_case_Z@?$output_processor@DV?$string_output_adapter@D@__crt_stdio_output@@V?$positional_parameter_base@DV?$string_output_adapter@D@__crt_stdio_output@@@2@@__crt_stdio_output@@AAE_NXZ@@__crt_stdio_output@@YAPAUansi_string@?1??type_case_Z@?$output_processor@DV?$string_output_adapter@D@__crt_stdio_output@@V?$positional_parameter_base@DV?$string_output_adapter@D@__crt_stdio_output@@@2@@0@AAE_NXZ@PAD@Z 1002396e f i libucrt:output.obj
 0001:0002297d       ??$peek_va_arg@PAUansi_string@?1??type_case_Z@?$output_processor@_WV?$stream_output_adapter@_W@__crt_stdio_output@@V?$positional_parameter_base@_WV?$stream_output_adapter@_W@__crt_stdio_output@@@2@@__crt_stdio_output@@AAE_NXZ@@__crt_stdio_output@@YAPAUansi_string@?1??type_case_Z@?$output_processor@_WV?$stream_output_adapter@_W@__crt_stdio_output@@V?$positional_parameter_base@_WV?$stream_output_adapter@_W@__crt_stdio_output@@@2@@0@AAE_NXZ@PAD@Z 1002397d f i libucrt:output.obj
 0001:0002298c       ??$peek_va_arg@PAUansi_string@?1??type_case_Z@?$output_processor@_WV?$string_output_adapter@_W@__crt_stdio_output@@V?$positional_parameter_base@_WV?$string_output_adapter@_W@__crt_stdio_output@@@2@@__crt_stdio_output@@AAE_NXZ@@__crt_stdio_output@@YAPAUansi_string@?1??type_case_Z@?$output_processor@_WV?$string_output_adapter@_W@__crt_stdio_output@@V?$positional_parameter_base@_WV?$string_output_adapter@_W@__crt_stdio_output@@@2@@0@AAE_NXZ@PAD@Z 1002398c f i libucrt:output.obj
 0001:0002299b       ??$peek_va_arg@PAX@__crt_stdio_output@@YAPAXPAD@Z 1002399b f i libucrt:output.obj
 0001:000229aa       ??$peek_va_arg@U_CRT_DOUBLE@@@__crt_stdio_output@@YA?AU_CRT_DOUBLE@@PAD@Z 100239aa f i libucrt:output.obj
 0001:000229bc       ??$peek_va_arg@_J@__crt_stdio_output@@YA_JPAD@Z 100239bc f i libucrt:output.obj
 0001:000229ce       ??$peek_va_arg@_K@__crt_stdio_output@@YA_KPAD@Z 100239ce f i libucrt:output.obj
 0001:000229e0       ??$peek_va_arg@_W@__crt_stdio_output@@YA_WPAD@Z 100239e0 f i libucrt:output.obj
 0001:000229f0       ??$puttc_nolock@ABDPAU_iobuf@@@?$__crt_char_traits@D@@SAHABD$$QAPAU_iobuf@@@Z 100239f0 f i libucrt:output.obj
 0001:00022a10       ??$puttc_nolock@AB_WPAU_iobuf@@@?$__crt_char_traits@_W@@SAGAB_W$$QAPAU_iobuf@@@Z 10023a10 f i libucrt:output.obj
 0001:00022a30       ??$read_va_arg@C@__crt_stdio_output@@YACAAPAD@Z 10023a30 f i libucrt:output.obj
 0001:00022a46       ??$read_va_arg@E@__crt_stdio_output@@YAEAAPAD@Z 10023a46 f i libucrt:output.obj
 0001:00022a5c       ??$read_va_arg@F@__crt_stdio_output@@YAFAAPAD@Z 10023a5c f i libucrt:output.obj
 0001:00022a73       ??$read_va_arg@G@__crt_stdio_output@@YAGAAPAD@Z 10023a73 f i libucrt:output.obj
 0001:00022a8a       ??$read_va_arg@H@__crt_stdio_output@@YAHAAPAD@Z 10023a8a f i libucrt:output.obj
 0001:00022aa0       ??$read_va_arg@I@__crt_stdio_output@@YAIAAPAD@Z 10023aa0 f i libucrt:output.obj
 0001:00022ab6       ??$read_va_arg@PAD@__crt_stdio_output@@YAPADAAPAD@Z 10023ab6 f i libucrt:output.obj
 0001:00022acc       ??$read_va_arg@PAUansi_string@?1??type_case_Z@?$output_processor@DV?$stream_output_adapter@D@__crt_stdio_output@@V?$format_validation_base@DV?$stream_output_adapter@D@__crt_stdio_output@@@2@@__crt_stdio_output@@AAE_NXZ@@__crt_stdio_output@@YAPAUansi_string@?1??type_case_Z@?$output_processor@DV?$stream_output_adapter@D@__crt_stdio_output@@V?$format_validation_base@DV?$stream_output_adapter@D@__crt_stdio_output@@@2@@0@AAE_NXZ@AAPAD@Z 10023acc f i libucrt:output.obj
 0001:00022ae2       ??$read_va_arg@PAUansi_string@?1??type_case_Z@?$output_processor@DV?$stream_output_adapter@D@__crt_stdio_output@@V?$positional_parameter_base@DV?$stream_output_adapter@D@__crt_stdio_output@@@2@@__crt_stdio_output@@AAE_NXZ@@__crt_stdio_output@@YAPAUansi_string@?1??type_case_Z@?$output_processor@DV?$stream_output_adapter@D@__crt_stdio_output@@V?$positional_parameter_base@DV?$stream_output_adapter@D@__crt_stdio_output@@@2@@0@AAE_NXZ@AAPAD@Z 10023ae2 f i libucrt:output.obj
 0001:00022af8       ??$read_va_arg@PAUansi_string@?1??type_case_Z@?$output_processor@DV?$stream_output_adapter@D@__crt_stdio_output@@V?$standard_base@DV?$stream_output_adapter@D@__crt_stdio_output@@@2@@__crt_stdio_output@@AAE_NXZ@@__crt_stdio_output@@YAPAUansi_string@?1??type_case_Z@?$output_processor@DV?$stream_output_adapter@D@__crt_stdio_output@@V?$standard_base@DV?$stream_output_adapter@D@__crt_stdio_output@@@2@@0@AAE_NXZ@AAPAD@Z 10023af8 f i libucrt:output.obj
 0001:00022b0e       ??$read_va_arg@PAUansi_string@?1??type_case_Z@?$output_processor@DV?$string_output_adapter@D@__crt_stdio_output@@V?$format_validation_base@DV?$string_output_adapter@D@__crt_stdio_output@@@2@@__crt_stdio_output@@AAE_NXZ@@__crt_stdio_output@@YAPAUansi_string@?1??type_case_Z@?$output_processor@DV?$string_output_adapter@D@__crt_stdio_output@@V?$format_validation_base@DV?$string_output_adapter@D@__crt_stdio_output@@@2@@0@AAE_NXZ@AAPAD@Z 10023b0e f i libucrt:output.obj
 0001:00022b24       ??$read_va_arg@PAUansi_string@?1??type_case_Z@?$output_processor@DV?$string_output_adapter@D@__crt_stdio_output@@V?$positional_parameter_base@DV?$string_output_adapter@D@__crt_stdio_output@@@2@@__crt_stdio_output@@AAE_NXZ@@__crt_stdio_output@@YAPAUansi_string@?1??type_case_Z@?$output_processor@DV?$string_output_adapter@D@__crt_stdio_output@@V?$positional_parameter_base@DV?$string_output_adapter@D@__crt_stdio_output@@@2@@0@AAE_NXZ@AAPAD@Z 10023b24 f i libucrt:output.obj
 0001:00022b3a       ??$read_va_arg@PAUansi_string@?1??type_case_Z@?$output_processor@DV?$string_output_adapter@D@__crt_stdio_output@@V?$standard_base@DV?$string_output_adapter@D@__crt_stdio_output@@@2@@__crt_stdio_output@@AAE_NXZ@@__crt_stdio_output@@YAPAUansi_string@?1??type_case_Z@?$output_processor@DV?$string_output_adapter@D@__crt_stdio_output@@V?$standard_base@DV?$string_output_adapter@D@__crt_stdio_output@@@2@@0@AAE_NXZ@AAPAD@Z 10023b3a f i libucrt:output.obj
 0001:00022b50       ??$read_va_arg@PAUansi_string@?1??type_case_Z@?$output_processor@_WV?$stream_output_adapter@_W@__crt_stdio_output@@V?$format_validation_base@_WV?$stream_output_adapter@_W@__crt_stdio_output@@@2@@__crt_stdio_output@@AAE_NXZ@@__crt_stdio_output@@YAPAUansi_string@?1??type_case_Z@?$output_processor@_WV?$stream_output_adapter@_W@__crt_stdio_output@@V?$format_validation_base@_WV?$stream_output_adapter@_W@__crt_stdio_output@@@2@@0@AAE_NXZ@AAPAD@Z 10023b50 f i libucrt:output.obj
 0001:00022b66       ??$read_va_arg@PAUansi_string@?1??type_case_Z@?$output_processor@_WV?$stream_output_adapter@_W@__crt_stdio_output@@V?$positional_parameter_base@_WV?$stream_output_adapter@_W@__crt_stdio_output@@@2@@__crt_stdio_output@@AAE_NXZ@@__crt_stdio_output@@YAPAUansi_string@?1??type_case_Z@?$output_processor@_WV?$stream_output_adapter@_W@__crt_stdio_output@@V?$positional_parameter_base@_WV?$stream_output_adapter@_W@__crt_stdio_output@@@2@@0@AAE_NXZ@AAPAD@Z 10023b66 f i libucrt:output.obj
 0001:00022b7c       ??$read_va_arg@PAUansi_string@?1??type_case_Z@?$output_processor@_WV?$stream_output_adapter@_W@__crt_stdio_output@@V?$standard_base@_WV?$stream_output_adapter@_W@__crt_stdio_output@@@2@@__crt_stdio_output@@AAE_NXZ@@__crt_stdio_output@@YAPAUansi_string@?1??type_case_Z@?$output_processor@_WV?$stream_output_adapter@_W@__crt_stdio_output@@V?$standard_base@_WV?$stream_output_adapter@_W@__crt_stdio_output@@@2@@0@AAE_NXZ@AAPAD@Z 10023b7c f i libucrt:output.obj
 0001:00022b92       ??$read_va_arg@PAUansi_string@?1??type_case_Z@?$output_processor@_WV?$string_output_adapter@_W@__crt_stdio_output@@V?$format_validation_base@_WV?$string_output_adapter@_W@__crt_stdio_output@@@2@@__crt_stdio_output@@AAE_NXZ@@__crt_stdio_output@@YAPAUansi_string@?1??type_case_Z@?$output_processor@_WV?$string_output_adapter@_W@__crt_stdio_output@@V?$format_validation_base@_WV?$string_output_adapter@_W@__crt_stdio_output@@@2@@0@AAE_NXZ@AAPAD@Z 10023b92 f i libucrt:output.obj
 0001:00022ba8       ??$read_va_arg@PAUansi_string@?1??type_case_Z@?$output_processor@_WV?$string_output_adapter@_W@__crt_stdio_output@@V?$positional_parameter_base@_WV?$string_output_adapter@_W@__crt_stdio_output@@@2@@__crt_stdio_output@@AAE_NXZ@@__crt_stdio_output@@YAPAUansi_string@?1??type_case_Z@?$output_processor@_WV?$string_output_adapter@_W@__crt_stdio_output@@V?$positional_parameter_base@_WV?$string_output_adapter@_W@__crt_stdio_output@@@2@@0@AAE_NXZ@AAPAD@Z 10023ba8 f i libucrt:output.obj
 0001:00022bbe       ??$read_va_arg@PAUansi_string@?1??type_case_Z@?$output_processor@_WV?$string_output_adapter@_W@__crt_stdio_output@@V?$standard_base@_WV?$string_output_adapter@_W@__crt_stdio_output@@@2@@__crt_stdio_output@@AAE_NXZ@@__crt_stdio_output@@YAPAUansi_string@?1??type_case_Z@?$output_processor@_WV?$string_output_adapter@_W@__crt_stdio_output@@V?$standard_base@_WV?$string_output_adapter@_W@__crt_stdio_output@@@2@@0@AAE_NXZ@AAPAD@Z 10023bbe f i libucrt:output.obj
 0001:00022bd4       ??$read_va_arg@PAX@__crt_stdio_output@@YAPAXAAPAD@Z 10023bd4 f i libucrt:output.obj
 0001:00022bea       ??$read_va_arg@U_CRT_DOUBLE@@@__crt_stdio_output@@YA?AU_CRT_DOUBLE@@AAPAD@Z 10023bea f i libucrt:output.obj
 0001:00022c04       ??$read_va_arg@_J@__crt_stdio_output@@YA_JAAPAD@Z 10023c04 f i libucrt:output.obj
 0001:00022c1e       ??$read_va_arg@_K@__crt_stdio_output@@YA_KAAPAD@Z 10023c1e f i libucrt:output.obj
 0001:00022c38       ??$read_va_arg@_W@__crt_stdio_output@@YA_WAAPAD@Z 10023c38 f i libucrt:output.obj
 0001:00022c4f       ??$scratch_count@D@formatting_buffer@__crt_stdio_output@@QBEIXZ 10023c4f f i libucrt:output.obj
 0001:00022c54       ??$scratch_data@D@formatting_buffer@__crt_stdio_output@@QAEPADXZ 10023c54 f i libucrt:output.obj
 0001:00022c79       ??$tcstol@AAPBDPAPADH@?$__crt_char_traits@D@@SAJAAPBD$$QAPAPAD$$QAH@Z 10023c79 f i libucrt:output.obj
 0001:00022c9e       ??$tcstol@AAPB_WPAPA_WH@?$__crt_char_traits@_W@@SAJAAPB_W$$QAPAPA_W$$QAH@Z 10023c9e f i libucrt:output.obj
 0001:00022cc3       ??$tcstol@PBDPAPADH@?$__crt_char_traits@D@@SAJ$$QAPBD$$QAPAPAD$$QAH@Z 10023cc3 f i libucrt:output.obj
 0001:00022ce8       ??$tcstol@PB_WPAPA_WH@?$__crt_char_traits@_W@@SAJ$$QAPB_W$$QAPAPA_W$$QAH@Z 10023ce8 f i libucrt:output.obj
 0001:00022d0d       ??$type_case_integer_parse_into_buffer@I@?$output_processor@DV?$stream_output_adapter@D@__crt_stdio_output@@V?$format_validation_base@DV?$stream_output_adapter@D@__crt_stdio_output@@@2@@__crt_stdio_output@@AAEXII_N@Z 10023d0d f i libucrt:output.obj
 0001:00022d9f       ??$type_case_integer_parse_into_buffer@I@?$output_processor@DV?$stream_output_adapter@D@__crt_stdio_output@@V?$positional_parameter_base@DV?$stream_output_adapter@D@__crt_stdio_output@@@2@@__crt_stdio_output@@AAEXII_N@Z 10023d9f f i libucrt:output.obj
 0001:00022e31       ??$type_case_integer_parse_into_buffer@I@?$output_processor@DV?$stream_output_adapter@D@__crt_stdio_output@@V?$standard_base@DV?$stream_output_adapter@D@__crt_stdio_output@@@2@@__crt_stdio_output@@AAEXII_N@Z 10023e31 f i libucrt:output.obj
 0001:00022ec3       ??$type_case_integer_parse_into_buffer@I@?$output_processor@DV?$string_output_adapter@D@__crt_stdio_output@@V?$format_validation_base@DV?$string_output_adapter@D@__crt_stdio_output@@@2@@__crt_stdio_output@@AAEXII_N@Z 10023ec3 f i libucrt:output.obj
 0001:00022f55       ??$type_case_integer_parse_into_buffer@I@?$output_processor@DV?$string_output_adapter@D@__crt_stdio_output@@V?$positional_parameter_base@DV?$string_output_adapter@D@__crt_stdio_output@@@2@@__crt_stdio_output@@AAEXII_N@Z 10023f55 f i libucrt:output.obj
 0001:00022fe7       ??$type_case_integer_parse_into_buffer@I@?$output_processor@DV?$string_output_adapter@D@__crt_stdio_output@@V?$standard_base@DV?$string_output_adapter@D@__crt_stdio_output@@@2@@__crt_stdio_output@@AAEXII_N@Z 10023fe7 f i libucrt:output.obj
 0001:00023079       ??$type_case_integer_parse_into_buffer@I@?$output_processor@_WV?$stream_output_adapter@_W@__crt_stdio_output@@V?$format_validation_base@_WV?$stream_output_adapter@_W@__crt_stdio_output@@@2@@__crt_stdio_output@@AAEXII_N@Z 10024079 f i libucrt:output.obj
 0001:0002310b       ??$type_case_integer_parse_into_buffer@I@?$output_processor@_WV?$stream_output_adapter@_W@__crt_stdio_output@@V?$positional_parameter_base@_WV?$stream_output_adapter@_W@__crt_stdio_output@@@2@@__crt_stdio_output@@AAEXII_N@Z 1002410b f i libucrt:output.obj
 0001:0002319d       ??$type_case_integer_parse_into_buffer@I@?$output_processor@_WV?$stream_output_adapter@_W@__crt_stdio_output@@V?$standard_base@_WV?$stream_output_adapter@_W@__crt_stdio_output@@@2@@__crt_stdio_output@@AAEXII_N@Z 1002419d f i libucrt:output.obj
 0001:0002322f       ??$type_case_integer_parse_into_buffer@I@?$output_processor@_WV?$string_output_adapter@_W@__crt_stdio_output@@V?$format_validation_base@_WV?$string_output_adapter@_W@__crt_stdio_output@@@2@@__crt_stdio_output@@AAEXII_N@Z 1002422f f i libucrt:output.obj
 0001:000232c1       ??$type_case_integer_parse_into_buffer@I@?$output_processor@_WV?$string_output_adapter@_W@__crt_stdio_output@@V?$positional_parameter_base@_WV?$string_output_adapter@_W@__crt_stdio_output@@@2@@__crt_stdio_output@@AAEXII_N@Z 100242c1 f i libucrt:output.obj
 0001:00023353       ??$type_case_integer_parse_into_buffer@I@?$output_processor@_WV?$string_output_adapter@_W@__crt_stdio_output@@V?$standard_base@_WV?$string_output_adapter@_W@__crt_stdio_output@@@2@@__crt_stdio_output@@AAEXII_N@Z 10024353 f i libucrt:output.obj
 0001:000233e5       ??$type_case_integer_parse_into_buffer@_K@?$output_processor@DV?$stream_output_adapter@D@__crt_stdio_output@@V?$format_validation_base@DV?$stream_output_adapter@D@__crt_stdio_output@@@2@@__crt_stdio_output@@AAEX_KI_N@Z 100243e5 f i libucrt:output.obj
 0001:0002348f       ??$type_case_integer_parse_into_buffer@_K@?$output_processor@DV?$stream_output_adapter@D@__crt_stdio_output@@V?$positional_parameter_base@DV?$stream_output_adapter@D@__crt_stdio_output@@@2@@__crt_stdio_output@@AAEX_KI_N@Z 1002448f f i libucrt:output.obj
 0001:00023539       ??$type_case_integer_parse_into_buffer@_K@?$output_processor@DV?$stream_output_adapter@D@__crt_stdio_output@@V?$standard_base@DV?$stream_output_adapter@D@__crt_stdio_output@@@2@@__crt_stdio_output@@AAEX_KI_N@Z 10024539 f i libucrt:output.obj
 0001:000235e3       ??$type_case_integer_parse_into_buffer@_K@?$output_processor@DV?$string_output_adapter@D@__crt_stdio_output@@V?$format_validation_base@DV?$string_output_adapter@D@__crt_stdio_output@@@2@@__crt_stdio_output@@AAEX_KI_N@Z 100245e3 f i libucrt:output.obj
 0001:0002368d       ??$type_case_integer_parse_into_buffer@_K@?$output_processor@DV?$string_output_adapter@D@__crt_stdio_output@@V?$positional_parameter_base@DV?$string_output_adapter@D@__crt_stdio_output@@@2@@__crt_stdio_output@@AAEX_KI_N@Z 1002468d f i libucrt:output.obj
 0001:00023737       ??$type_case_integer_parse_into_buffer@_K@?$output_processor@DV?$string_output_adapter@D@__crt_stdio_output@@V?$standard_base@DV?$string_output_adapter@D@__crt_stdio_output@@@2@@__crt_stdio_output@@AAEX_KI_N@Z 10024737 f i libucrt:output.obj
 0001:000237e1       ??$type_case_integer_parse_into_buffer@_K@?$output_processor@_WV?$stream_output_adapter@_W@__crt_stdio_output@@V?$format_validation_base@_WV?$stream_output_adapter@_W@__crt_stdio_output@@@2@@__crt_stdio_output@@AAEX_KI_N@Z 100247e1 f i libucrt:output.obj
 0001:0002388b       ??$type_case_integer_parse_into_buffer@_K@?$output_processor@_WV?$stream_output_adapter@_W@__crt_stdio_output@@V?$positional_parameter_base@_WV?$stream_output_adapter@_W@__crt_stdio_output@@@2@@__crt_stdio_output@@AAEX_KI_N@Z 1002488b f i libucrt:output.obj
 0001:00023935       ??$type_case_integer_parse_into_buffer@_K@?$output_processor@_WV?$stream_output_adapter@_W@__crt_stdio_output@@V?$standard_base@_WV?$stream_output_adapter@_W@__crt_stdio_output@@@2@@__crt_stdio_output@@AAEX_KI_N@Z 10024935 f i libucrt:output.obj
 0001:000239df       ??$type_case_integer_parse_into_buffer@_K@?$output_processor@_WV?$string_output_adapter@_W@__crt_stdio_output@@V?$format_validation_base@_WV?$string_output_adapter@_W@__crt_stdio_output@@@2@@__crt_stdio_output@@AAEX_KI_N@Z 100249df f i libucrt:output.obj
 0001:00023a89       ??$type_case_integer_parse_into_buffer@_K@?$output_processor@_WV?$string_output_adapter@_W@__crt_stdio_output@@V?$positional_parameter_base@_WV?$string_output_adapter@_W@__crt_stdio_output@@@2@@__crt_stdio_output@@AAEX_KI_N@Z 10024a89 f i libucrt:output.obj
 0001:00023b33       ??$type_case_integer_parse_into_buffer@_K@?$output_processor@_WV?$string_output_adapter@_W@__crt_stdio_output@@V?$standard_base@_WV?$string_output_adapter@_W@__crt_stdio_output@@@2@@__crt_stdio_output@@AAEX_KI_N@Z 10024b33 f i libucrt:output.obj
 0001:00023bdd       ??$write_multiple_characters@V?$stream_output_adapter@D@__crt_stdio_output@@D@__crt_stdio_output@@YAXABV?$stream_output_adapter@D@0@DHQAH@Z 10024bdd f i libucrt:output.obj
 0001:00023c14       ??$write_multiple_characters@V?$stream_output_adapter@_W@__crt_stdio_output@@D@__crt_stdio_output@@YAXABV?$stream_output_adapter@_W@0@DHQAH@Z 10024c14 f i libucrt:output.obj
 0001:00023c51       ??$write_multiple_characters@V?$string_output_adapter@D@__crt_stdio_output@@D@__crt_stdio_output@@YAXABV?$string_output_adapter@D@0@DHQAH@Z 10024c51 f i libucrt:output.obj
 0001:00023c88       ??$write_multiple_characters@V?$string_output_adapter@_W@__crt_stdio_output@@D@__crt_stdio_output@@YAXABV?$string_output_adapter@_W@0@DHQAH@Z 10024c88 f i libucrt:output.obj
 0001:00023ef9       ??0?$common_data@D@__crt_stdio_output@@IAE@XZ 10024ef9 f i libucrt:output.obj
 0001:00023f51       ??0?$common_data@_W@__crt_stdio_output@@IAE@XZ 10024f51 f i libucrt:output.obj
 0001:00023fb0       ??0?$output_adapter_data@DV?$stream_output_adapter@D@__crt_stdio_output@@@__crt_stdio_output@@IAE@ABV?$stream_output_adapter@D@1@_KQBDQAU__crt_locale_pointers@@QAD@Z 10024fb0 f i libucrt:output.obj
 0001:00023ffb       ??0?$output_adapter_data@DV?$string_output_adapter@D@__crt_stdio_output@@@__crt_stdio_output@@IAE@ABV?$string_output_adapter@D@1@_KQBDQAU__crt_locale_pointers@@QAD@Z 10024ffb f i libucrt:output.obj
 0001:00024046       ??0?$output_adapter_data@_WV?$stream_output_adapter@_W@__crt_stdio_output@@@__crt_stdio_output@@IAE@ABV?$stream_output_adapter@_W@1@_KQB_WQAU__crt_locale_pointers@@QAD@Z 10025046 f i libucrt:output.obj
 0001:00024091       ??0?$output_adapter_data@_WV?$string_output_adapter@_W@__crt_stdio_output@@@__crt_stdio_output@@IAE@ABV?$string_output_adapter@_W@1@_KQB_WQAU__crt_locale_pointers@@QAD@Z 10025091 f i libucrt:output.obj
 0001:000240dc       ??0?$output_processor@DV?$stream_output_adapter@D@__crt_stdio_output@@V?$format_validation_base@DV?$stream_output_adapter@D@__crt_stdio_output@@@2@@__crt_stdio_output@@QAE@ABV?$stream_output_adapter@D@1@_KQBDQAU__crt_locale_pointers@@QAD@Z 100250dc f i libucrt:output.obj
 0001:0002411e       ??0?$output_processor@DV?$stream_output_adapter@D@__crt_stdio_output@@V?$positional_parameter_base@DV?$stream_output_adapter@D@__crt_stdio_output@@@2@@__crt_stdio_output@@QAE@ABV?$stream_output_adapter@D@1@_KQBDQAU__crt_locale_pointers@@QAD@Z 1002511e f i libucrt:output.obj
 0001:00024158       ??0?$output_processor@DV?$stream_output_adapter@D@__crt_stdio_output@@V?$standard_base@DV?$stream_output_adapter@D@__crt_stdio_output@@@2@@__crt_stdio_output@@QAE@ABV?$stream_output_adapter@D@1@_KQBDQAU__crt_locale_pointers@@QAD@Z 10025158 f i libucrt:output.obj
 0001:0002419a       ??0?$output_processor@DV?$string_output_adapter@D@__crt_stdio_output@@V?$format_validation_base@DV?$string_output_adapter@D@__crt_stdio_output@@@2@@__crt_stdio_output@@QAE@ABV?$string_output_adapter@D@1@_KQBDQAU__crt_locale_pointers@@QAD@Z 1002519a f i libucrt:output.obj
 0001:000241dc       ??0?$output_processor@DV?$string_output_adapter@D@__crt_stdio_output@@V?$positional_parameter_base@DV?$string_output_adapter@D@__crt_stdio_output@@@2@@__crt_stdio_output@@QAE@ABV?$string_output_adapter@D@1@_KQBDQAU__crt_locale_pointers@@QAD@Z 100251dc f i libucrt:output.obj
 0001:00024216       ??0?$output_processor@DV?$string_output_adapter@D@__crt_stdio_output@@V?$standard_base@DV?$string_output_adapter@D@__crt_stdio_output@@@2@@__crt_stdio_output@@QAE@ABV?$string_output_adapter@D@1@_KQBDQAU__crt_locale_pointers@@QAD@Z 10025216 f i libucrt:output.obj
 0001:00024258       ??0?$output_processor@_WV?$stream_output_adapter@_W@__crt_stdio_output@@V?$format_validation_base@_WV?$stream_output_adapter@_W@__crt_stdio_output@@@2@@__crt_stdio_output@@QAE@ABV?$stream_output_adapter@_W@1@_KQB_WQAU__crt_locale_pointers@@QAD@Z 10025258 f i libucrt:output.obj
 0001:0002429a       ??0?$output_processor@_WV?$stream_output_adapter@_W@__crt_stdio_output@@V?$positional_parameter_base@_WV?$stream_output_adapter@_W@__crt_stdio_output@@@2@@__crt_stdio_output@@QAE@ABV?$stream_output_adapter@_W@1@_KQB_WQAU__crt_locale_pointers@@QAD@Z 1002529a f i libucrt:output.obj
 0001:000242d4       ??0?$output_processor@_WV?$stream_output_adapter@_W@__crt_stdio_output@@V?$standard_base@_WV?$stream_output_adapter@_W@__crt_stdio_output@@@2@@__crt_stdio_output@@QAE@ABV?$stream_output_adapter@_W@1@_KQB_WQAU__crt_locale_pointers@@QAD@Z 100252d4 f i libucrt:output.obj
 0001:00024316       ??0?$output_processor@_WV?$string_output_adapter@_W@__crt_stdio_output@@V?$format_validation_base@_WV?$string_output_adapter@_W@__crt_stdio_output@@@2@@__crt_stdio_output@@QAE@ABV?$string_output_adapter@_W@1@_KQB_WQAU__crt_locale_pointers@@QAD@Z 10025316 f i libucrt:output.obj
 0001:00024358       ??0?$output_processor@_WV?$string_output_adapter@_W@__crt_stdio_output@@V?$positional_parameter_base@_WV?$string_output_adapter@_W@__crt_stdio_output@@@2@@__crt_stdio_output@@QAE@ABV?$string_output_adapter@_W@1@_KQB_WQAU__crt_locale_pointers@@QAD@Z 10025358 f i libucrt:output.obj
 0001:00024392       ??0?$output_processor@_WV?$string_output_adapter@_W@__crt_stdio_output@@V?$standard_base@_WV?$string_output_adapter@_W@__crt_stdio_output@@@2@@__crt_stdio_output@@QAE@ABV?$string_output_adapter@_W@1@_KQB_WQAU__crt_locale_pointers@@QAD@Z 10025392 f i libucrt:output.obj
 0001:000243d4       ??0?$stream_output_adapter@D@__crt_stdio_output@@QAE@QAU_iobuf@@@Z 100253d4 f i libucrt:output.obj
 0001:000243e8       ??0?$stream_output_adapter@_W@__crt_stdio_output@@QAE@QAU_iobuf@@@Z 100253e8 f i libucrt:output.obj
 0001:000243fc       ??0?$string_output_adapter@D@__crt_stdio_output@@QAE@QAU?$string_output_adapter_context@D@1@@Z 100253fc f i libucrt:output.obj
 0001:00024410       ??0?$string_output_adapter@_W@__crt_stdio_output@@QAE@QAU?$string_output_adapter_context@_W@1@@Z 10025410 f i libucrt:output.obj
 0001:00024424       ??0_LocaleUpdate@@QAE@QAU__crt_locale_pointers@@@Z 10025424 f i libucrt:output.obj
 0001:000244c7       ??0__acrt_stdio_temporary_buffering_guard@@QAE@QAU_iobuf@@@Z 100254c7 f i libucrt:output.obj
 0001:000244ec       ??0__crt_errno_guard@@QAE@QAH@Z 100254ec f i libucrt:output.obj
 0001:0002450a       ??0formatting_buffer@__crt_stdio_output@@QAE@XZ 1002550a f i libucrt:output.obj
 0001:0002451f       ??1?$common_data@D@__crt_stdio_output@@QAE@XZ 1002551f f i libucrt:output.obj
 0001:00024529       ??1?$common_data@_W@__crt_stdio_output@@QAE@XZ 10025529 f i libucrt:output.obj
 0001:00024533       ??1?$format_validation_base@DV?$stream_output_adapter@D@__crt_stdio_output@@@__crt_stdio_output@@QAE@XZ 10025533 f i libucrt:output.obj
 0001:0002453d       ??1?$format_validation_base@DV?$string_output_adapter@D@__crt_stdio_output@@@__crt_stdio_output@@QAE@XZ 1002553d f i libucrt:output.obj
 0001:00024547       ??1?$format_validation_base@_WV?$stream_output_adapter@_W@__crt_stdio_output@@@__crt_stdio_output@@QAE@XZ 10025547 f i libucrt:output.obj
 0001:00024551       ??1?$format_validation_base@_WV?$string_output_adapter@_W@__crt_stdio_output@@@__crt_stdio_output@@QAE@XZ 10025551 f i libucrt:output.obj
 0001:0002455b       ??1?$output_adapter_data@DV?$stream_output_adapter@D@__crt_stdio_output@@@__crt_stdio_output@@QAE@XZ 1002555b f i libucrt:output.obj
 0001:00024565       ??1?$output_adapter_data@DV?$string_output_adapter@D@__crt_stdio_output@@@__crt_stdio_output@@QAE@XZ 10025565 f i libucrt:output.obj
 0001:0002456f       ??1?$output_adapter_data@_WV?$stream_output_adapter@_W@__crt_stdio_output@@@__crt_stdio_output@@QAE@XZ 1002556f f i libucrt:output.obj
 0001:00024579       ??1?$output_adapter_data@_WV?$string_output_adapter@_W@__crt_stdio_output@@@__crt_stdio_output@@QAE@XZ 10025579 f i libucrt:output.obj
 0001:00024583       ??1?$output_processor@DV?$stream_output_adapter@D@__crt_stdio_output@@V?$format_validation_base@DV?$stream_output_adapter@D@__crt_stdio_output@@@2@@__crt_stdio_output@@QAE@XZ 10025583 f i libucrt:output.obj
 0001:0002458d       ??1?$output_processor@DV?$stream_output_adapter@D@__crt_stdio_output@@V?$positional_parameter_base@DV?$stream_output_adapter@D@__crt_stdio_output@@@2@@__crt_stdio_output@@QAE@XZ 1002558d f i libucrt:output.obj
 0001:00024597       ??1?$output_processor@DV?$stream_output_adapter@D@__crt_stdio_output@@V?$standard_base@DV?$stream_output_adapter@D@__crt_stdio_output@@@2@@__crt_stdio_output@@QAE@XZ 10025597 f i libucrt:output.obj
 0001:000245a1       ??1?$output_processor@DV?$string_output_adapter@D@__crt_stdio_output@@V?$format_validation_base@DV?$string_output_adapter@D@__crt_stdio_output@@@2@@__crt_stdio_output@@QAE@XZ 100255a1 f i libucrt:output.obj
 0001:000245ab       ??1?$output_processor@DV?$string_output_adapter@D@__crt_stdio_output@@V?$positional_parameter_base@DV?$string_output_adapter@D@__crt_stdio_output@@@2@@__crt_stdio_output@@QAE@XZ 100255ab f i libucrt:output.obj
 0001:000245b5       ??1?$output_processor@DV?$string_output_adapter@D@__crt_stdio_output@@V?$standard_base@DV?$string_output_adapter@D@__crt_stdio_output@@@2@@__crt_stdio_output@@QAE@XZ 100255b5 f i libucrt:output.obj
 0001:000245bf       ??1?$output_processor@_WV?$stream_output_adapter@_W@__crt_stdio_output@@V?$format_validation_base@_WV?$stream_output_adapter@_W@__crt_stdio_output@@@2@@__crt_stdio_output@@QAE@XZ 100255bf f i libucrt:output.obj
 0001:000245c9       ??1?$output_processor@_WV?$stream_output_adapter@_W@__crt_stdio_output@@V?$positional_parameter_base@_WV?$stream_output_adapter@_W@__crt_stdio_output@@@2@@__crt_stdio_output@@QAE@XZ 100255c9 f i libucrt:output.obj
 0001:000245d3       ??1?$output_processor@_WV?$stream_output_adapter@_W@__crt_stdio_output@@V?$standard_base@_WV?$stream_output_adapter@_W@__crt_stdio_output@@@2@@__crt_stdio_output@@QAE@XZ 100255d3 f i libucrt:output.obj
 0001:000245dd       ??1?$output_processor@_WV?$string_output_adapter@_W@__crt_stdio_output@@V?$format_validation_base@_WV?$string_output_adapter@_W@__crt_stdio_output@@@2@@__crt_stdio_output@@QAE@XZ 100255dd f i libucrt:output.obj
 0001:000245e7       ??1?$output_processor@_WV?$string_output_adapter@_W@__crt_stdio_output@@V?$positional_parameter_base@_WV?$string_output_adapter@_W@__crt_stdio_output@@@2@@__crt_stdio_output@@QAE@XZ 100255e7 f i libucrt:output.obj
 0001:000245f1       ??1?$output_processor@_WV?$string_output_adapter@_W@__crt_stdio_output@@V?$standard_base@_WV?$string_output_adapter@_W@__crt_stdio_output@@@2@@__crt_stdio_output@@QAE@XZ 100255f1 f i libucrt:output.obj
 0001:000245fb       ??1?$positional_parameter_base@DV?$stream_output_adapter@D@__crt_stdio_output@@@__crt_stdio_output@@QAE@XZ 100255fb f i libucrt:output.obj
 0001:00024605       ??1?$positional_parameter_base@DV?$string_output_adapter@D@__crt_stdio_output@@@__crt_stdio_output@@QAE@XZ 10025605 f i libucrt:output.obj
 0001:0002460f       ??1?$positional_parameter_base@_WV?$stream_output_adapter@_W@__crt_stdio_output@@@__crt_stdio_output@@QAE@XZ 1002560f f i libucrt:output.obj
 0001:00024619       ??1?$positional_parameter_base@_WV?$string_output_adapter@_W@__crt_stdio_output@@@__crt_stdio_output@@QAE@XZ 10025619 f i libucrt:output.obj
 0001:00024623       ??1?$standard_base@DV?$stream_output_adapter@D@__crt_stdio_output@@@__crt_stdio_output@@QAE@XZ 10025623 f i libucrt:output.obj
 0001:0002462d       ??1?$standard_base@DV?$string_output_adapter@D@__crt_stdio_output@@@__crt_stdio_output@@QAE@XZ 1002562d f i libucrt:output.obj
 0001:00024637       ??1?$standard_base@_WV?$stream_output_adapter@_W@__crt_stdio_output@@@__crt_stdio_output@@QAE@XZ 10025637 f i libucrt:output.obj
 0001:00024641       ??1?$standard_base@_WV?$string_output_adapter@_W@__crt_stdio_output@@@__crt_stdio_output@@QAE@XZ 10025641 f i libucrt:output.obj
 0001:0002464b       ??1_LocaleUpdate@@QAE@XZ   1002564b f i libucrt:output.obj
 0001:0002465f       ??1__acrt_stdio_temporary_buffering_guard@@QAE@XZ 1002565f f i libucrt:output.obj
 0001:00024671       ??1__crt_errno_guard@@QAE@XZ 10025671 f i libucrt:output.obj
 0001:00024686       ??1formatting_buffer@__crt_stdio_output@@QAE@XZ 10025686 f i libucrt:output.obj
 0001:000246a6       ??4?$__crt_unique_heap_ptr@DU__crt_internal_free_policy@@@@QAEAAV0@$$QAV0@@Z 100256a6 f i libucrt:output.obj
 0001:00024d89       ?GetLocaleT@_LocaleUpdate@@QAEPAU__crt_locale_pointers@@XZ 10025d89 f i libucrt:output.obj
 0001:00024d8d       ?__crt_interlocked_read_32@@YAHPDH@Z 10025d8d f i libucrt:output.obj
 0001:00024d9c       ?adjust_hexit@?$output_processor@DV?$stream_output_adapter@D@__crt_stdio_output@@V?$format_validation_base@DV?$stream_output_adapter@D@__crt_stdio_output@@@2@@__crt_stdio_output@@CADH_N@Z 10025d9c f i libucrt:output.obj
 0001:00024dc1       ?adjust_hexit@?$output_processor@DV?$stream_output_adapter@D@__crt_stdio_output@@V?$positional_parameter_base@DV?$stream_output_adapter@D@__crt_stdio_output@@@2@@__crt_stdio_output@@CADH_N@Z 10025dc1 f i libucrt:output.obj
 0001:00024de6       ?adjust_hexit@?$output_processor@DV?$stream_output_adapter@D@__crt_stdio_output@@V?$standard_base@DV?$stream_output_adapter@D@__crt_stdio_output@@@2@@__crt_stdio_output@@CADH_N@Z 10025de6 f i libucrt:output.obj
 0001:00024e0b       ?adjust_hexit@?$output_processor@DV?$string_output_adapter@D@__crt_stdio_output@@V?$format_validation_base@DV?$string_output_adapter@D@__crt_stdio_output@@@2@@__crt_stdio_output@@CADH_N@Z 10025e0b f i libucrt:output.obj
 0001:00024e30       ?adjust_hexit@?$output_processor@DV?$string_output_adapter@D@__crt_stdio_output@@V?$positional_parameter_base@DV?$string_output_adapter@D@__crt_stdio_output@@@2@@__crt_stdio_output@@CADH_N@Z 10025e30 f i libucrt:output.obj
 0001:00024e55       ?adjust_hexit@?$output_processor@DV?$string_output_adapter@D@__crt_stdio_output@@V?$standard_base@DV?$string_output_adapter@D@__crt_stdio_output@@@2@@__crt_stdio_output@@CADH_N@Z 10025e55 f i libucrt:output.obj
 0001:00024e7a       ?adjust_hexit@?$output_processor@_WV?$stream_output_adapter@_W@__crt_stdio_output@@V?$format_validation_base@_WV?$stream_output_adapter@_W@__crt_stdio_output@@@2@@__crt_stdio_output@@CADH_N@Z 10025e7a f i libucrt:output.obj
 0001:00024e9f       ?adjust_hexit@?$output_processor@_WV?$stream_output_adapter@_W@__crt_stdio_output@@V?$positional_parameter_base@_WV?$stream_output_adapter@_W@__crt_stdio_output@@@2@@__crt_stdio_output@@CADH_N@Z 10025e9f f i libucrt:output.obj
 0001:00024ec4       ?adjust_hexit@?$output_processor@_WV?$stream_output_adapter@_W@__crt_stdio_output@@V?$standard_base@_WV?$stream_output_adapter@_W@__crt_stdio_output@@@2@@__crt_stdio_output@@CADH_N@Z 10025ec4 f i libucrt:output.obj
 0001:00024ee9       ?adjust_hexit@?$output_processor@_WV?$string_output_adapter@_W@__crt_stdio_output@@V?$format_validation_base@_WV?$string_output_adapter@_W@__crt_stdio_output@@@2@@__crt_stdio_output@@CADH_N@Z 10025ee9 f i libucrt:output.obj
 0001:00024f0e       ?adjust_hexit@?$output_processor@_WV?$string_output_adapter@_W@__crt_stdio_output@@V?$positional_parameter_base@_WV?$string_output_adapter@_W@__crt_stdio_output@@@2@@__crt_stdio_output@@CADH_N@Z 10025f0e f i libucrt:output.obj
 0001:00024f33       ?adjust_hexit@?$output_processor@_WV?$string_output_adapter@_W@__crt_stdio_output@@V?$standard_base@_WV?$string_output_adapter@_W@__crt_stdio_output@@@2@@__crt_stdio_output@@CADH_N@Z 10025f33 f i libucrt:output.obj
 0001:00024f58       ?advance_to_next_pass@?$positional_parameter_base@DV?$stream_output_adapter@D@__crt_stdio_output@@@__crt_stdio_output@@IAE_NXZ 10025f58 f i libucrt:output.obj
 0001:00024fb7       ?advance_to_next_pass@?$positional_parameter_base@DV?$string_output_adapter@D@__crt_stdio_output@@@__crt_stdio_output@@IAE_NXZ 10025fb7 f i libucrt:output.obj
 0001:00025016       ?advance_to_next_pass@?$positional_parameter_base@_WV?$stream_output_adapter@_W@__crt_stdio_output@@@__crt_stdio_output@@IAE_NXZ 10026016 f i libucrt:output.obj
 0001:00025075       ?advance_to_next_pass@?$positional_parameter_base@_WV?$string_output_adapter@_W@__crt_stdio_output@@@__crt_stdio_output@@IAE_NXZ 10026075 f i libucrt:output.obj
 0001:000250d4       ?advance_to_next_pass@?$standard_base@DV?$stream_output_adapter@D@__crt_stdio_output@@@__crt_stdio_output@@IAE_NXZ 100260d4 f i libucrt:output.obj
 0001:000250eb       ?advance_to_next_pass@?$standard_base@DV?$string_output_adapter@D@__crt_stdio_output@@@__crt_stdio_output@@IAE_NXZ 100260eb f i libucrt:output.obj
 0001:00025102       ?advance_to_next_pass@?$standard_base@_WV?$stream_output_adapter@_W@__crt_stdio_output@@@__crt_stdio_output@@IAE_NXZ 10026102 f i libucrt:output.obj
 0001:00025119       ?advance_to_next_pass@?$standard_base@_WV?$string_output_adapter@_W@__crt_stdio_output@@@__crt_stdio_output@@IAE_NXZ 10026119 f i libucrt:output.obj
 0001:00025130       ?crop_zeroes@__crt_stdio_output@@YAXPADQAU__crt_locale_pointers@@@Z 10026130 f i libucrt:output.obj
 0001:0002519c       ?find_next_state@?$output_processor@DV?$stream_output_adapter@D@__crt_stdio_output@@V?$format_validation_base@DV?$stream_output_adapter@D@__crt_stdio_output@@@2@@__crt_stdio_output@@ABE?AW4state@2@DW432@@Z 1002619c f i libucrt:output.obj
 0001:000251de       ?find_next_state@?$output_processor@DV?$stream_output_adapter@D@__crt_stdio_output@@V?$positional_parameter_base@DV?$stream_output_adapter@D@__crt_stdio_output@@@2@@__crt_stdio_output@@ABE?AW4state@2@DW432@@Z 100261de f i libucrt:output.obj
 0001:00025220       ?find_next_state@?$output_processor@DV?$stream_output_adapter@D@__crt_stdio_output@@V?$standard_base@DV?$stream_output_adapter@D@__crt_stdio_output@@@2@@__crt_stdio_output@@ABE?AW4state@2@DW432@@Z 10026220 f i libucrt:output.obj
 0001:0002525e       ?find_next_state@?$output_processor@DV?$string_output_adapter@D@__crt_stdio_output@@V?$format_validation_base@DV?$string_output_adapter@D@__crt_stdio_output@@@2@@__crt_stdio_output@@ABE?AW4state@2@DW432@@Z 1002625e f i libucrt:output.obj
 0001:000252a0       ?find_next_state@?$output_processor@DV?$string_output_adapter@D@__crt_stdio_output@@V?$positional_parameter_base@DV?$string_output_adapter@D@__crt_stdio_output@@@2@@__crt_stdio_output@@ABE?AW4state@2@DW432@@Z 100262a0 f i libucrt:output.obj
 0001:000252e2       ?find_next_state@?$output_processor@DV?$string_output_adapter@D@__crt_stdio_output@@V?$standard_base@DV?$string_output_adapter@D@__crt_stdio_output@@@2@@__crt_stdio_output@@ABE?AW4state@2@DW432@@Z 100262e2 f i libucrt:output.obj
 0001:00025320       ?find_next_state@?$output_processor@_WV?$stream_output_adapter@_W@__crt_stdio_output@@V?$format_validation_base@_WV?$stream_output_adapter@_W@__crt_stdio_output@@@2@@__crt_stdio_output@@ABE?AW4state@2@_WW432@@Z 10026320 f i libucrt:output.obj
 0001:00025364       ?find_next_state@?$output_processor@_WV?$stream_output_adapter@_W@__crt_stdio_output@@V?$positional_parameter_base@_WV?$stream_output_adapter@_W@__crt_stdio_output@@@2@@__crt_stdio_output@@ABE?AW4state@2@_WW432@@Z 10026364 f i libucrt:output.obj
 0001:000253a8       ?find_next_state@?$output_processor@_WV?$stream_output_adapter@_W@__crt_stdio_output@@V?$standard_base@_WV?$stream_output_adapter@_W@__crt_stdio_output@@@2@@__crt_stdio_output@@ABE?AW4state@2@_WW432@@Z 100263a8 f i libucrt:output.obj
 0001:000253e9       ?find_next_state@?$output_processor@_WV?$string_output_adapter@_W@__crt_stdio_output@@V?$format_validation_base@_WV?$string_output_adapter@_W@__crt_stdio_output@@@2@@__crt_stdio_output@@ABE?AW4state@2@_WW432@@Z 100263e9 f i libucrt:output.obj
 0001:0002542d       ?find_next_state@?$output_processor@_WV?$string_output_adapter@_W@__crt_stdio_output@@V?$positional_parameter_base@_WV?$string_output_adapter@_W@__crt_stdio_output@@@2@@__crt_stdio_output@@ABE?AW4state@2@_WW432@@Z 1002642d f i libucrt:output.obj
 0001:00025471       ?find_next_state@?$output_processor@_WV?$string_output_adapter@_W@__crt_stdio_output@@V?$standard_base@_WV?$string_output_adapter@_W@__crt_stdio_output@@@2@@__crt_stdio_output@@ABE?AW4state@2@_WW432@@Z 10026471 f i libucrt:output.obj
 0001:000254b2       ?force_decimal_point@__crt_stdio_output@@YAXPADQAU__crt_locale_pointers@@@Z 100264b2 f i libucrt:output.obj
 0001:00025525       ?get_flags@__crt_stdio_stream@@QBEJXZ 10026525 f i libucrt:output.obj
 0001:0002552b       ?get_parameter_type@?$positional_parameter_base@DV?$stream_output_adapter@D@__crt_stdio_output@@@__crt_stdio_output@@CA?AW4parameter_type@12@F@Z 1002652b f i libucrt:output.obj
 0001:0002552f       ?get_parameter_type@?$positional_parameter_base@DV?$stream_output_adapter@D@__crt_stdio_output@@@__crt_stdio_output@@CA?AW4parameter_type@12@G@Z 1002652f f i libucrt:output.obj
 0001:00025533       ?get_parameter_type@?$positional_parameter_base@DV?$stream_output_adapter@D@__crt_stdio_output@@@__crt_stdio_output@@CA?AW4parameter_type@12@H@Z 10026533 f i libucrt:output.obj
 0001:00025537       ?get_parameter_type@?$positional_parameter_base@DV?$stream_output_adapter@D@__crt_stdio_output@@@__crt_stdio_output@@CA?AW4parameter_type@12@I@Z 10026537 f i libucrt:output.obj
 0001:0002553b       ?get_parameter_type@?$positional_parameter_base@DV?$stream_output_adapter@D@__crt_stdio_output@@@__crt_stdio_output@@CA?AW4parameter_type@12@U_CRT_DOUBLE@@@Z 1002653b f i libucrt:output.obj
 0001:0002553f       ?get_parameter_type@?$positional_parameter_base@DV?$stream_output_adapter@D@__crt_stdio_output@@@__crt_stdio_output@@CA?AW4parameter_type@12@_J@Z 1002653f f i libucrt:output.obj
 0001:00025543       ?get_parameter_type@?$positional_parameter_base@DV?$stream_output_adapter@D@__crt_stdio_output@@@__crt_stdio_output@@CA?AW4parameter_type@12@_K@Z 10026543 f i libucrt:output.obj
 0001:00025547       ?get_parameter_type@?$positional_parameter_base@DV?$stream_output_adapter@D@__crt_stdio_output@@@__crt_stdio_output@@CA?AW4parameter_type@12@_W@Z 10026547 f i libucrt:output.obj
 0001:0002554b       ?get_parameter_type@?$positional_parameter_base@DV?$string_output_adapter@D@__crt_stdio_output@@@__crt_stdio_output@@CA?AW4parameter_type@12@F@Z 1002654b f i libucrt:output.obj
 0001:0002554f       ?get_parameter_type@?$positional_parameter_base@DV?$string_output_adapter@D@__crt_stdio_output@@@__crt_stdio_output@@CA?AW4parameter_type@12@G@Z 1002654f f i libucrt:output.obj
 0001:00025553       ?get_parameter_type@?$positional_parameter_base@DV?$string_output_adapter@D@__crt_stdio_output@@@__crt_stdio_output@@CA?AW4parameter_type@12@H@Z 10026553 f i libucrt:output.obj
 0001:00025557       ?get_parameter_type@?$positional_parameter_base@DV?$string_output_adapter@D@__crt_stdio_output@@@__crt_stdio_output@@CA?AW4parameter_type@12@I@Z 10026557 f i libucrt:output.obj
 0001:0002555b       ?get_parameter_type@?$positional_parameter_base@DV?$string_output_adapter@D@__crt_stdio_output@@@__crt_stdio_output@@CA?AW4parameter_type@12@U_CRT_DOUBLE@@@Z 1002655b f i libucrt:output.obj
 0001:0002555f       ?get_parameter_type@?$positional_parameter_base@DV?$string_output_adapter@D@__crt_stdio_output@@@__crt_stdio_output@@CA?AW4parameter_type@12@_J@Z 1002655f f i libucrt:output.obj
 0001:00025563       ?get_parameter_type@?$positional_parameter_base@DV?$string_output_adapter@D@__crt_stdio_output@@@__crt_stdio_output@@CA?AW4parameter_type@12@_K@Z 10026563 f i libucrt:output.obj
 0001:00025567       ?get_parameter_type@?$positional_parameter_base@DV?$string_output_adapter@D@__crt_stdio_output@@@__crt_stdio_output@@CA?AW4parameter_type@12@_W@Z 10026567 f i libucrt:output.obj
 0001:0002556b       ?get_parameter_type@?$positional_parameter_base@_WV?$stream_output_adapter@_W@__crt_stdio_output@@@__crt_stdio_output@@CA?AW4parameter_type@12@F@Z 1002656b f i libucrt:output.obj
 0001:0002556f       ?get_parameter_type@?$positional_parameter_base@_WV?$stream_output_adapter@_W@__crt_stdio_output@@@__crt_stdio_output@@CA?AW4parameter_type@12@G@Z 1002656f f i libucrt:output.obj
 0001:00025573       ?get_parameter_type@?$positional_parameter_base@_WV?$stream_output_adapter@_W@__crt_stdio_output@@@__crt_stdio_output@@CA?AW4parameter_type@12@H@Z 10026573 f i libucrt:output.obj
 0001:00025577       ?get_parameter_type@?$positional_parameter_base@_WV?$stream_output_adapter@_W@__crt_stdio_output@@@__crt_stdio_output@@CA?AW4parameter_type@12@I@Z 10026577 f i libucrt:output.obj
 0001:0002557b       ?get_parameter_type@?$positional_parameter_base@_WV?$stream_output_adapter@_W@__crt_stdio_output@@@__crt_stdio_output@@CA?AW4parameter_type@12@U_CRT_DOUBLE@@@Z 1002657b f i libucrt:output.obj
 0001:0002557f       ?get_parameter_type@?$positional_parameter_base@_WV?$stream_output_adapter@_W@__crt_stdio_output@@@__crt_stdio_output@@CA?AW4parameter_type@12@_J@Z 1002657f f i libucrt:output.obj
 0001:00025583       ?get_parameter_type@?$positional_parameter_base@_WV?$stream_output_adapter@_W@__crt_stdio_output@@@__crt_stdio_output@@CA?AW4parameter_type@12@_K@Z 10026583 f i libucrt:output.obj
 0001:00025587       ?get_parameter_type@?$positional_parameter_base@_WV?$stream_output_adapter@_W@__crt_stdio_output@@@__crt_stdio_output@@CA?AW4parameter_type@12@_W@Z 10026587 f i libucrt:output.obj
 0001:0002558b       ?get_parameter_type@?$positional_parameter_base@_WV?$string_output_adapter@_W@__crt_stdio_output@@@__crt_stdio_output@@CA?AW4parameter_type@12@F@Z 1002658b f i libucrt:output.obj
 0001:0002558f       ?get_parameter_type@?$positional_parameter_base@_WV?$string_output_adapter@_W@__crt_stdio_output@@@__crt_stdio_output@@CA?AW4parameter_type@12@G@Z 1002658f f i libucrt:output.obj
 0001:00025593       ?get_parameter_type@?$positional_parameter_base@_WV?$string_output_adapter@_W@__crt_stdio_output@@@__crt_stdio_output@@CA?AW4parameter_type@12@H@Z 10026593 f i libucrt:output.obj
 0001:00025597       ?get_parameter_type@?$positional_parameter_base@_WV?$string_output_adapter@_W@__crt_stdio_output@@@__crt_stdio_output@@CA?AW4parameter_type@12@I@Z 10026597 f i libucrt:output.obj
 0001:0002559b       ?get_parameter_type@?$positional_parameter_base@_WV?$string_output_adapter@_W@__crt_stdio_output@@@__crt_stdio_output@@CA?AW4parameter_type@12@U_CRT_DOUBLE@@@Z 1002659b f i libucrt:output.obj
 0001:0002559f       ?get_parameter_type@?$positional_parameter_base@_WV?$string_output_adapter@_W@__crt_stdio_output@@@__crt_stdio_output@@CA?AW4parameter_type@12@_J@Z 1002659f f i libucrt:output.obj
 0001:000255a3       ?get_parameter_type@?$positional_parameter_base@_WV?$string_output_adapter@_W@__crt_stdio_output@@@__crt_stdio_output@@CA?AW4parameter_type@12@_K@Z 100265a3 f i libucrt:output.obj
 0001:000255a7       ?get_parameter_type@?$positional_parameter_base@_WV?$string_output_adapter@_W@__crt_stdio_output@@@__crt_stdio_output@@CA?AW4parameter_type@12@_W@Z 100265a7 f i libucrt:output.obj
 0001:000255ab       ?has_flag@?$output_processor@DV?$stream_output_adapter@D@__crt_stdio_output@@V?$format_validation_base@DV?$stream_output_adapter@D@__crt_stdio_output@@@2@@__crt_stdio_output@@ABE_NI@Z 100265ab f i libucrt:output.obj
 0001:000255c5       ?has_flag@?$output_processor@DV?$stream_output_adapter@D@__crt_stdio_output@@V?$positional_parameter_base@DV?$stream_output_adapter@D@__crt_stdio_output@@@2@@__crt_stdio_output@@ABE_NI@Z 100265c5 f i libucrt:output.obj
 0001:000255df       ?has_flag@?$output_processor@DV?$stream_output_adapter@D@__crt_stdio_output@@V?$standard_base@DV?$stream_output_adapter@D@__crt_stdio_output@@@2@@__crt_stdio_output@@ABE_NI@Z 100265df f i libucrt:output.obj
 0001:000255f9       ?has_flag@?$output_processor@DV?$string_output_adapter@D@__crt_stdio_output@@V?$format_validation_base@DV?$string_output_adapter@D@__crt_stdio_output@@@2@@__crt_stdio_output@@ABE_NI@Z 100265f9 f i libucrt:output.obj
 0001:00025613       ?has_flag@?$output_processor@DV?$string_output_adapter@D@__crt_stdio_output@@V?$positional_parameter_base@DV?$string_output_adapter@D@__crt_stdio_output@@@2@@__crt_stdio_output@@ABE_NI@Z 10026613 f i libucrt:output.obj
 0001:0002562d       ?has_flag@?$output_processor@DV?$string_output_adapter@D@__crt_stdio_output@@V?$standard_base@DV?$string_output_adapter@D@__crt_stdio_output@@@2@@__crt_stdio_output@@ABE_NI@Z 1002662d f i libucrt:output.obj
 0001:00025647       ?has_flag@?$output_processor@_WV?$stream_output_adapter@_W@__crt_stdio_output@@V?$format_validation_base@_WV?$stream_output_adapter@_W@__crt_stdio_output@@@2@@__crt_stdio_output@@ABE_NI@Z 10026647 f i libucrt:output.obj
 0001:00025661       ?has_flag@?$output_processor@_WV?$stream_output_adapter@_W@__crt_stdio_output@@V?$positional_parameter_base@_WV?$stream_output_adapter@_W@__crt_stdio_output@@@2@@__crt_stdio_output@@ABE_NI@Z 10026661 f i libucrt:output.obj
 0001:0002567b       ?has_flag@?$output_processor@_WV?$stream_output_adapter@_W@__crt_stdio_output@@V?$standard_base@_WV?$stream_output_adapter@_W@__crt_stdio_output@@@2@@__crt_stdio_output@@ABE_NI@Z 1002667b f i libucrt:output.obj
 0001:00025695       ?has_flag@?$output_processor@_WV?$string_output_adapter@_W@__crt_stdio_output@@V?$format_validation_base@_WV?$string_output_adapter@_W@__crt_stdio_output@@@2@@__crt_stdio_output@@ABE_NI@Z 10026695 f i libucrt:output.obj
 0001:000256af       ?has_flag@?$output_processor@_WV?$string_output_adapter@_W@__crt_stdio_output@@V?$positional_parameter_base@_WV?$string_output_adapter@_W@__crt_stdio_output@@@2@@__crt_stdio_output@@ABE_NI@Z 100266af f i libucrt:output.obj
 0001:000256c9       ?has_flag@?$output_processor@_WV?$string_output_adapter@_W@__crt_stdio_output@@V?$standard_base@_WV?$string_output_adapter@_W@__crt_stdio_output@@@2@@__crt_stdio_output@@ABE_NI@Z 100266c9 f i libucrt:output.obj
 0001:000256e3       ?is_positional_parameter_reappearance_consistent@?$positional_parameter_base@DV?$stream_output_adapter@D@__crt_stdio_output@@@__crt_stdio_output@@AAE_NABUparameter_data@12@W4parameter_type@12@DW4length_modifier@2@@Z 100266e3 f i libucrt:output.obj
 0001:0002585c       ?is_positional_parameter_reappearance_consistent@?$positional_parameter_base@DV?$string_output_adapter@D@__crt_stdio_output@@@__crt_stdio_output@@AAE_NABUparameter_data@12@W4parameter_type@12@DW4length_modifier@2@@Z 1002685c f i libucrt:output.obj
 0001:000259d5       ?is_positional_parameter_reappearance_consistent@?$positional_parameter_base@_WV?$stream_output_adapter@_W@__crt_stdio_output@@@__crt_stdio_output@@AAE_NABUparameter_data@12@W4parameter_type@12@_WW4length_modifier@2@@Z 100269d5 f i libucrt:output.obj
 0001:00025b40       ?is_positional_parameter_reappearance_consistent@?$positional_parameter_base@_WV?$string_output_adapter@_W@__crt_stdio_output@@@__crt_stdio_output@@AAE_NABUparameter_data@12@W4parameter_type@12@_WW4length_modifier@2@@Z 10026b40 f i libucrt:output.obj
 0001:00025cab       ?is_string_backed@__crt_stdio_stream@@QBE_NXZ 10026cab f i libucrt:output.obj
 0001:00025cba       ?narrow_null_string@?$output_processor@DV?$stream_output_adapter@D@__crt_stdio_output@@V?$format_validation_base@DV?$stream_output_adapter@D@__crt_stdio_output@@@2@@__crt_stdio_output@@CAPADXZ 10026cba f i libucrt:output.obj
 0001:00025cc0       ?narrow_null_string@?$output_processor@DV?$stream_output_adapter@D@__crt_stdio_output@@V?$positional_parameter_base@DV?$stream_output_adapter@D@__crt_stdio_output@@@2@@__crt_stdio_output@@CAPADXZ 10026cc0 f i libucrt:output.obj
 0001:00025cc6       ?narrow_null_string@?$output_processor@DV?$stream_output_adapter@D@__crt_stdio_output@@V?$standard_base@DV?$stream_output_adapter@D@__crt_stdio_output@@@2@@__crt_stdio_output@@CAPADXZ 10026cc6 f i libucrt:output.obj
 0001:00025ccc       ?narrow_null_string@?$output_processor@DV?$string_output_adapter@D@__crt_stdio_output@@V?$format_validation_base@DV?$string_output_adapter@D@__crt_stdio_output@@@2@@__crt_stdio_output@@CAPADXZ 10026ccc f i libucrt:output.obj
 0001:00025cd2       ?narrow_null_string@?$output_processor@DV?$string_output_adapter@D@__crt_stdio_output@@V?$positional_parameter_base@DV?$string_output_adapter@D@__crt_stdio_output@@@2@@__crt_stdio_output@@CAPADXZ 10026cd2 f i libucrt:output.obj
 0001:00025cd8       ?narrow_null_string@?$output_processor@DV?$string_output_adapter@D@__crt_stdio_output@@V?$standard_base@DV?$string_output_adapter@D@__crt_stdio_output@@@2@@__crt_stdio_output@@CAPADXZ 10026cd8 f i libucrt:output.obj
 0001:00025cde       ?narrow_null_string@?$output_processor@_WV?$stream_output_adapter@_W@__crt_stdio_output@@V?$format_validation_base@_WV?$stream_output_adapter@_W@__crt_stdio_output@@@2@@__crt_stdio_output@@CAPADXZ 10026cde f i libucrt:output.obj
 0001:00025ce4       ?narrow_null_string@?$output_processor@_WV?$stream_output_adapter@_W@__crt_stdio_output@@V?$positional_parameter_base@_WV?$stream_output_adapter@_W@__crt_stdio_output@@@2@@__crt_stdio_output@@CAPADXZ 10026ce4 f i libucrt:output.obj
 0001:00025cea       ?narrow_null_string@?$output_processor@_WV?$stream_output_adapter@_W@__crt_stdio_output@@V?$standard_base@_WV?$stream_output_adapter@_W@__crt_stdio_output@@@2@@__crt_stdio_output@@CAPADXZ 10026cea f i libucrt:output.obj
 0001:00025cf0       ?narrow_null_string@?$output_processor@_WV?$string_output_adapter@_W@__crt_stdio_output@@V?$format_validation_base@_WV?$string_output_adapter@_W@__crt_stdio_output@@@2@@__crt_stdio_output@@CAPADXZ 10026cf0 f i libucrt:output.obj
 0001:00025cf6       ?narrow_null_string@?$output_processor@_WV?$string_output_adapter@_W@__crt_stdio_output@@V?$positional_parameter_base@_WV?$string_output_adapter@_W@__crt_stdio_output@@@2@@__crt_stdio_output@@CAPADXZ 10026cf6 f i libucrt:output.obj
 0001:00025cfc       ?narrow_null_string@?$output_processor@_WV?$string_output_adapter@_W@__crt_stdio_output@@V?$standard_base@_WV?$string_output_adapter@_W@__crt_stdio_output@@@2@@__crt_stdio_output@@CAPADXZ 10026cfc f i libucrt:output.obj
 0001:00025d02       ?parse_int_from_format_string@?$output_processor@DV?$stream_output_adapter@D@__crt_stdio_output@@V?$format_validation_base@DV?$stream_output_adapter@D@__crt_stdio_output@@@2@@__crt_stdio_output@@AAE_NQAH@Z 10026d02 f i libucrt:output.obj
 0001:00025d75       ?parse_int_from_format_string@?$output_processor@DV?$stream_output_adapter@D@__crt_stdio_output@@V?$positional_parameter_base@DV?$stream_output_adapter@D@__crt_stdio_output@@@2@@__crt_stdio_output@@AAE_NQAH@Z 10026d75 f i libucrt:output.obj
 0001:00025de8       ?parse_int_from_format_string@?$output_processor@DV?$stream_output_adapter@D@__crt_stdio_output@@V?$standard_base@DV?$stream_output_adapter@D@__crt_stdio_output@@@2@@__crt_stdio_output@@AAE_NQAH@Z 10026de8 f i libucrt:output.obj
 0001:00025e5b       ?parse_int_from_format_string@?$output_processor@DV?$string_output_adapter@D@__crt_stdio_output@@V?$format_validation_base@DV?$string_output_adapter@D@__crt_stdio_output@@@2@@__crt_stdio_output@@AAE_NQAH@Z 10026e5b f i libucrt:output.obj
 0001:00025ece       ?parse_int_from_format_string@?$output_processor@DV?$string_output_adapter@D@__crt_stdio_output@@V?$positional_parameter_base@DV?$string_output_adapter@D@__crt_stdio_output@@@2@@__crt_stdio_output@@AAE_NQAH@Z 10026ece f i libucrt:output.obj
 0001:00025f41       ?parse_int_from_format_string@?$output_processor@DV?$string_output_adapter@D@__crt_stdio_output@@V?$standard_base@DV?$string_output_adapter@D@__crt_stdio_output@@@2@@__crt_stdio_output@@AAE_NQAH@Z 10026f41 f i libucrt:output.obj
 0001:00025fb4       ?parse_int_from_format_string@?$output_processor@_WV?$stream_output_adapter@_W@__crt_stdio_output@@V?$format_validation_base@_WV?$stream_output_adapter@_W@__crt_stdio_output@@@2@@__crt_stdio_output@@AAE_NQAH@Z 10026fb4 f i libucrt:output.obj
 0001:00026029       ?parse_int_from_format_string@?$output_processor@_WV?$stream_output_adapter@_W@__crt_stdio_output@@V?$positional_parameter_base@_WV?$stream_output_adapter@_W@__crt_stdio_output@@@2@@__crt_stdio_output@@AAE_NQAH@Z 10027029 f i libucrt:output.obj
 0001:0002609e       ?parse_int_from_format_string@?$output_processor@_WV?$stream_output_adapter@_W@__crt_stdio_output@@V?$standard_base@_WV?$stream_output_adapter@_W@__crt_stdio_output@@@2@@__crt_stdio_output@@AAE_NQAH@Z 1002709e f i libucrt:output.obj
 0001:00026113       ?parse_int_from_format_string@?$output_processor@_WV?$string_output_adapter@_W@__crt_stdio_output@@V?$format_validation_base@_WV?$string_output_adapter@_W@__crt_stdio_output@@@2@@__crt_stdio_output@@AAE_NQAH@Z 10027113 f i libucrt:output.obj
 0001:00026188       ?parse_int_from_format_string@?$output_processor@_WV?$string_output_adapter@_W@__crt_stdio_output@@V?$positional_parameter_base@_WV?$string_output_adapter@_W@__crt_stdio_output@@@2@@__crt_stdio_output@@AAE_NQAH@Z 10027188 f i libucrt:output.obj
 0001:000261fd       ?parse_int_from_format_string@?$output_processor@_WV?$string_output_adapter@_W@__crt_stdio_output@@V?$standard_base@_WV?$string_output_adapter@_W@__crt_stdio_output@@@2@@__crt_stdio_output@@AAE_NQAH@Z 100271fd f i libucrt:output.obj
 0001:00026272       ?process@?$output_processor@DV?$stream_output_adapter@D@__crt_stdio_output@@V?$format_validation_base@DV?$stream_output_adapter@D@__crt_stdio_output@@@2@@__crt_stdio_output@@QAEHXZ 10027272 f i libucrt:output.obj
 0001:000263e4       ?process@?$output_processor@DV?$stream_output_adapter@D@__crt_stdio_output@@V?$positional_parameter_base@DV?$stream_output_adapter@D@__crt_stdio_output@@@2@@__crt_stdio_output@@QAEHXZ 100273e4 f i libucrt:output.obj
 0001:00026597       ?process@?$output_processor@DV?$stream_output_adapter@D@__crt_stdio_output@@V?$standard_base@DV?$stream_output_adapter@D@__crt_stdio_output@@@2@@__crt_stdio_output@@QAEHXZ 10027597 f i libucrt:output.obj
 0001:000266fa       ?process@?$output_processor@DV?$string_output_adapter@D@__crt_stdio_output@@V?$format_validation_base@DV?$string_output_adapter@D@__crt_stdio_output@@@2@@__crt_stdio_output@@QAEHXZ 100276fa f i libucrt:output.obj
 0001:0002686c       ?process@?$output_processor@DV?$string_output_adapter@D@__crt_stdio_output@@V?$positional_parameter_base@DV?$string_output_adapter@D@__crt_stdio_output@@@2@@__crt_stdio_output@@QAEHXZ 1002786c f i libucrt:output.obj
 0001:00026a1f       ?process@?$output_processor@DV?$string_output_adapter@D@__crt_stdio_output@@V?$standard_base@DV?$string_output_adapter@D@__crt_stdio_output@@@2@@__crt_stdio_output@@QAEHXZ 10027a1f f i libucrt:output.obj
 0001:00026b82       ?process@?$output_processor@_WV?$stream_output_adapter@_W@__crt_stdio_output@@V?$format_validation_base@_WV?$stream_output_adapter@_W@__crt_stdio_output@@@2@@__crt_stdio_output@@QAEHXZ 10027b82 f i libucrt:output.obj
 0001:00026cfe       ?process@?$output_processor@_WV?$stream_output_adapter@_W@__crt_stdio_output@@V?$positional_parameter_base@_WV?$stream_output_adapter@_W@__crt_stdio_output@@@2@@__crt_stdio_output@@QAEHXZ 10027cfe f i libucrt:output.obj
 0001:00026eb6       ?process@?$output_processor@_WV?$stream_output_adapter@_W@__crt_stdio_output@@V?$standard_base@_WV?$stream_output_adapter@_W@__crt_stdio_output@@@2@@__crt_stdio_output@@QAEHXZ 10027eb6 f i libucrt:output.obj
 0001:0002701e       ?process@?$output_processor@_WV?$string_output_adapter@_W@__crt_stdio_output@@V?$format_validation_base@_WV?$string_output_adapter@_W@__crt_stdio_output@@@2@@__crt_stdio_output@@QAEHXZ 1002801e f i libucrt:output.obj
 0001:0002719a       ?process@?$output_processor@_WV?$string_output_adapter@_W@__crt_stdio_output@@V?$positional_parameter_base@_WV?$string_output_adapter@_W@__crt_stdio_output@@@2@@__crt_stdio_output@@QAEHXZ 1002819a f i libucrt:output.obj
 0001:00027352       ?process@?$output_processor@_WV?$string_output_adapter@_W@__crt_stdio_output@@V?$standard_base@_WV?$string_output_adapter@_W@__crt_stdio_output@@@2@@__crt_stdio_output@@QAEHXZ 10028352 f i libucrt:output.obj
 0001:000274ba       ?public_stream@__crt_stdio_stream@@QBEPAU_iobuf@@XZ 100284ba f i libucrt:output.obj
 0001:000274bd       ?set_flag@?$output_processor@DV?$stream_output_adapter@D@__crt_stdio_output@@V?$format_validation_base@DV?$stream_output_adapter@D@__crt_stdio_output@@@2@@__crt_stdio_output@@AAEXI@Z 100284bd f i libucrt:output.obj
 0001:000274cf       ?set_flag@?$output_processor@DV?$stream_output_adapter@D@__crt_stdio_output@@V?$positional_parameter_base@DV?$stream_output_adapter@D@__crt_stdio_output@@@2@@__crt_stdio_output@@AAEXI@Z 100284cf f i libucrt:output.obj
 0001:000274e1       ?set_flag@?$output_processor@DV?$stream_output_adapter@D@__crt_stdio_output@@V?$standard_base@DV?$stream_output_adapter@D@__crt_stdio_output@@@2@@__crt_stdio_output@@AAEXI@Z 100284e1 f i libucrt:output.obj
 0001:000274f3       ?set_flag@?$output_processor@DV?$string_output_adapter@D@__crt_stdio_output@@V?$format_validation_base@DV?$string_output_adapter@D@__crt_stdio_output@@@2@@__crt_stdio_output@@AAEXI@Z 100284f3 f i libucrt:output.obj
 0001:00027505       ?set_flag@?$output_processor@DV?$string_output_adapter@D@__crt_stdio_output@@V?$positional_parameter_base@DV?$string_output_adapter@D@__crt_stdio_output@@@2@@__crt_stdio_output@@AAEXI@Z 10028505 f i libucrt:output.obj
 0001:00027517       ?set_flag@?$output_processor@DV?$string_output_adapter@D@__crt_stdio_output@@V?$standard_base@DV?$string_output_adapter@D@__crt_stdio_output@@@2@@__crt_stdio_output@@AAEXI@Z 10028517 f i libucrt:output.obj
 0001:00027529       ?set_flag@?$output_processor@_WV?$stream_output_adapter@_W@__crt_stdio_output@@V?$format_validation_base@_WV?$stream_output_adapter@_W@__crt_stdio_output@@@2@@__crt_stdio_output@@AAEXI@Z 10028529 f i libucrt:output.obj
 0001:0002753b       ?set_flag@?$output_processor@_WV?$stream_output_adapter@_W@__crt_stdio_output@@V?$positional_parameter_base@_WV?$stream_output_adapter@_W@__crt_stdio_output@@@2@@__crt_stdio_output@@AAEXI@Z 1002853b f i libucrt:output.obj
 0001:0002754d       ?set_flag@?$output_processor@_WV?$stream_output_adapter@_W@__crt_stdio_output@@V?$standard_base@_WV?$stream_output_adapter@_W@__crt_stdio_output@@@2@@__crt_stdio_output@@AAEXI@Z 1002854d f i libucrt:output.obj
 0001:0002755f       ?set_flag@?$output_processor@_WV?$string_output_adapter@_W@__crt_stdio_output@@V?$format_validation_base@_WV?$string_output_adapter@_W@__crt_stdio_output@@@2@@__crt_stdio_output@@AAEXI@Z 1002855f f i libucrt:output.obj
 0001:00027571       ?set_flag@?$output_processor@_WV?$string_output_adapter@_W@__crt_stdio_output@@V?$positional_parameter_base@_WV?$string_output_adapter@_W@__crt_stdio_output@@@2@@__crt_stdio_output@@AAEXI@Z 10028571 f i libucrt:output.obj
 0001:00027583       ?set_flag@?$output_processor@_WV?$string_output_adapter@_W@__crt_stdio_output@@V?$standard_base@_WV?$string_output_adapter@_W@__crt_stdio_output@@@2@@__crt_stdio_output@@AAEXI@Z 10028583 f i libucrt:output.obj
 0001:00027595       ?should_format@?$positional_parameter_base@DV?$stream_output_adapter@D@__crt_stdio_output@@@__crt_stdio_output@@IAE_NXZ 10028595 f i libucrt:output.obj
 0001:000275b0       ?should_format@?$positional_parameter_base@DV?$string_output_adapter@D@__crt_stdio_output@@@__crt_stdio_output@@IAE_NXZ 100285b0 f i libucrt:output.obj
 0001:000275cb       ?should_format@?$positional_parameter_base@_WV?$stream_output_adapter@_W@__crt_stdio_output@@@__crt_stdio_output@@IAE_NXZ 100285cb f i libucrt:output.obj
 0001:000275e6       ?should_format@?$positional_parameter_base@_WV?$string_output_adapter@_W@__crt_stdio_output@@@__crt_stdio_output@@IAE_NXZ 100285e6 f i libucrt:output.obj
 0001:00027601       ?should_format@?$standard_base@DV?$stream_output_adapter@D@__crt_stdio_output@@@__crt_stdio_output@@IAE_NXZ 10028601 f i libucrt:output.obj
 0001:00027604       ?should_format@?$standard_base@DV?$string_output_adapter@D@__crt_stdio_output@@@__crt_stdio_output@@IAE_NXZ 10028604 f i libucrt:output.obj
 0001:00027607       ?should_format@?$standard_base@_WV?$stream_output_adapter@_W@__crt_stdio_output@@@__crt_stdio_output@@IAE_NXZ 10028607 f i libucrt:output.obj
 0001:0002760a       ?should_format@?$standard_base@_WV?$string_output_adapter@_W@__crt_stdio_output@@@__crt_stdio_output@@IAE_NXZ 1002860a f i libucrt:output.obj
 0001:0002760d       ?should_skip_normal_state_processing@?$positional_parameter_base@DV?$stream_output_adapter@D@__crt_stdio_output@@@__crt_stdio_output@@IAE_NXZ 1002860d f i libucrt:output.obj
 0001:0002763f       ?should_skip_normal_state_processing@?$positional_parameter_base@DV?$string_output_adapter@D@__crt_stdio_output@@@__crt_stdio_output@@IAE_NXZ 1002863f f i libucrt:output.obj
 0001:00027671       ?should_skip_normal_state_processing@?$positional_parameter_base@_WV?$stream_output_adapter@_W@__crt_stdio_output@@@__crt_stdio_output@@IAE_NXZ 10028671 f i libucrt:output.obj
 0001:000276a3       ?should_skip_normal_state_processing@?$positional_parameter_base@_WV?$string_output_adapter@_W@__crt_stdio_output@@@__crt_stdio_output@@IAE_NXZ 100286a3 f i libucrt:output.obj
 0001:000276d5       ?should_skip_normal_state_processing@?$standard_base@DV?$stream_output_adapter@D@__crt_stdio_output@@@__crt_stdio_output@@IAE_NXZ 100286d5 f i libucrt:output.obj
 0001:000276d8       ?should_skip_normal_state_processing@?$standard_base@DV?$string_output_adapter@D@__crt_stdio_output@@@__crt_stdio_output@@IAE_NXZ 100286d8 f i libucrt:output.obj
 0001:000276db       ?should_skip_normal_state_processing@?$standard_base@_WV?$stream_output_adapter@_W@__crt_stdio_output@@@__crt_stdio_output@@IAE_NXZ 100286db f i libucrt:output.obj
 0001:000276de       ?should_skip_normal_state_processing@?$standard_base@_WV?$string_output_adapter@_W@__crt_stdio_output@@@__crt_stdio_output@@IAE_NXZ 100286de f i libucrt:output.obj
 0001:000276e1       ?should_skip_type_state_output@?$positional_parameter_base@DV?$stream_output_adapter@D@__crt_stdio_output@@@__crt_stdio_output@@IBE_NXZ 100286e1 f i libucrt:output.obj
 0001:000276fd       ?should_skip_type_state_output@?$positional_parameter_base@DV?$string_output_adapter@D@__crt_stdio_output@@@__crt_stdio_output@@IBE_NXZ 100286fd f i libucrt:output.obj
 0001:00027719       ?should_skip_type_state_output@?$positional_parameter_base@_WV?$stream_output_adapter@_W@__crt_stdio_output@@@__crt_stdio_output@@IBE_NXZ 10028719 f i libucrt:output.obj
 0001:00027735       ?should_skip_type_state_output@?$positional_parameter_base@_WV?$string_output_adapter@_W@__crt_stdio_output@@@__crt_stdio_output@@IBE_NXZ 10028735 f i libucrt:output.obj
 0001:00027751       ?should_skip_type_state_output@?$standard_base@DV?$stream_output_adapter@D@__crt_stdio_output@@@__crt_stdio_output@@IBE_NXZ 10028751 f i libucrt:output.obj
 0001:00027754       ?should_skip_type_state_output@?$standard_base@DV?$string_output_adapter@D@__crt_stdio_output@@@__crt_stdio_output@@IBE_NXZ 10028754 f i libucrt:output.obj
 0001:00027757       ?should_skip_type_state_output@?$standard_base@_WV?$stream_output_adapter@_W@__crt_stdio_output@@@__crt_stdio_output@@IBE_NXZ 10028757 f i libucrt:output.obj
 0001:0002775a       ?should_skip_type_state_output@?$standard_base@_WV?$string_output_adapter@_W@__crt_stdio_output@@@__crt_stdio_output@@IBE_NXZ 1002875a f i libucrt:output.obj
 0001:0002775d       ?state_case_dot@?$output_processor@DV?$stream_output_adapter@D@__crt_stdio_output@@V?$format_validation_base@DV?$stream_output_adapter@D@__crt_stdio_output@@@2@@__crt_stdio_output@@AAE_NXZ 1002875d f i libucrt:output.obj
 0001:00027764       ?state_case_dot@?$output_processor@DV?$stream_output_adapter@D@__crt_stdio_output@@V?$positional_parameter_base@DV?$stream_output_adapter@D@__crt_stdio_output@@@2@@__crt_stdio_output@@AAE_NXZ 10028764 f i libucrt:output.obj
 0001:0002776b       ?state_case_dot@?$output_processor@DV?$stream_output_adapter@D@__crt_stdio_output@@V?$standard_base@DV?$stream_output_adapter@D@__crt_stdio_output@@@2@@__crt_stdio_output@@AAE_NXZ 1002876b f i libucrt:output.obj
 0001:00027772       ?state_case_dot@?$output_processor@DV?$string_output_adapter@D@__crt_stdio_output@@V?$format_validation_base@DV?$string_output_adapter@D@__crt_stdio_output@@@2@@__crt_stdio_output@@AAE_NXZ 10028772 f i libucrt:output.obj
 0001:00027779       ?state_case_dot@?$output_processor@DV?$string_output_adapter@D@__crt_stdio_output@@V?$positional_parameter_base@DV?$string_output_adapter@D@__crt_stdio_output@@@2@@__crt_stdio_output@@AAE_NXZ 10028779 f i libucrt:output.obj
 0001:00027780       ?state_case_dot@?$output_processor@DV?$string_output_adapter@D@__crt_stdio_output@@V?$standard_base@DV?$string_output_adapter@D@__crt_stdio_output@@@2@@__crt_stdio_output@@AAE_NXZ 10028780 f i libucrt:output.obj
 0001:00027787       ?state_case_dot@?$output_processor@_WV?$stream_output_adapter@_W@__crt_stdio_output@@V?$format_validation_base@_WV?$stream_output_adapter@_W@__crt_stdio_output@@@2@@__crt_stdio_output@@AAE_NXZ 10028787 f i libucrt:output.obj
 0001:0002778e       ?state_case_dot@?$output_processor@_WV?$stream_output_adapter@_W@__crt_stdio_output@@V?$positional_parameter_base@_WV?$stream_output_adapter@_W@__crt_stdio_output@@@2@@__crt_stdio_output@@AAE_NXZ 1002878e f i libucrt:output.obj
 0001:00027795       ?state_case_dot@?$output_processor@_WV?$stream_output_adapter@_W@__crt_stdio_output@@V?$standard_base@_WV?$stream_output_adapter@_W@__crt_stdio_output@@@2@@__crt_stdio_output@@AAE_NXZ 10028795 f i libucrt:output.obj
 0001:0002779c       ?state_case_dot@?$output_processor@_WV?$string_output_adapter@_W@__crt_stdio_output@@V?$format_validation_base@_WV?$string_output_adapter@_W@__crt_stdio_output@@@2@@__crt_stdio_output@@AAE_NXZ 1002879c f i libucrt:output.obj
 0001:000277a3       ?state_case_dot@?$output_processor@_WV?$string_output_adapter@_W@__crt_stdio_output@@V?$positional_parameter_base@_WV?$string_output_adapter@_W@__crt_stdio_output@@@2@@__crt_stdio_output@@AAE_NXZ 100287a3 f i libucrt:output.obj
 0001:000277aa       ?state_case_dot@?$output_processor@_WV?$string_output_adapter@_W@__crt_stdio_output@@V?$standard_base@_WV?$string_output_adapter@_W@__crt_stdio_output@@@2@@__crt_stdio_output@@AAE_NXZ 100287aa f i libucrt:output.obj
 0001:000277b1       ?state_case_flag@?$output_processor@DV?$stream_output_adapter@D@__crt_stdio_output@@V?$format_validation_base@DV?$stream_output_adapter@D@__crt_stdio_output@@@2@@__crt_stdio_output@@AAE_NXZ 100287b1 f i libucrt:output.obj
 0001:000277fd       ?state_case_flag@?$output_processor@DV?$stream_output_adapter@D@__crt_stdio_output@@V?$positional_parameter_base@DV?$stream_output_adapter@D@__crt_stdio_output@@@2@@__crt_stdio_output@@AAE_NXZ 100287fd f i libucrt:output.obj
 0001:00027849       ?state_case_flag@?$output_processor@DV?$stream_output_adapter@D@__crt_stdio_output@@V?$standard_base@DV?$stream_output_adapter@D@__crt_stdio_output@@@2@@__crt_stdio_output@@AAE_NXZ 10028849 f i libucrt:output.obj
 0001:00027895       ?state_case_flag@?$output_processor@DV?$string_output_adapter@D@__crt_stdio_output@@V?$format_validation_base@DV?$string_output_adapter@D@__crt_stdio_output@@@2@@__crt_stdio_output@@AAE_NXZ 10028895 f i libucrt:output.obj
 0001:000278e1       ?state_case_flag@?$output_processor@DV?$string_output_adapter@D@__crt_stdio_output@@V?$positional_parameter_base@DV?$string_output_adapter@D@__crt_stdio_output@@@2@@__crt_stdio_output@@AAE_NXZ 100288e1 f i libucrt:output.obj
 0001:0002792d       ?state_case_flag@?$output_processor@DV?$string_output_adapter@D@__crt_stdio_output@@V?$standard_base@DV?$string_output_adapter@D@__crt_stdio_output@@@2@@__crt_stdio_output@@AAE_NXZ 1002892d f i libucrt:output.obj
 0001:00027979       ?state_case_flag@?$output_processor@_WV?$stream_output_adapter@_W@__crt_stdio_output@@V?$format_validation_base@_WV?$stream_output_adapter@_W@__crt_stdio_output@@@2@@__crt_stdio_output@@AAE_NXZ 10028979 f i libucrt:output.obj
 0001:000279c5       ?state_case_flag@?$output_processor@_WV?$stream_output_adapter@_W@__crt_stdio_output@@V?$positional_parameter_base@_WV?$stream_output_adapter@_W@__crt_stdio_output@@@2@@__crt_stdio_output@@AAE_NXZ 100289c5 f i libucrt:output.obj
 0001:00027a11       ?state_case_flag@?$output_processor@_WV?$stream_output_adapter@_W@__crt_stdio_output@@V?$standard_base@_WV?$stream_output_adapter@_W@__crt_stdio_output@@@2@@__crt_stdio_output@@AAE_NXZ 10028a11 f i libucrt:output.obj
 0001:00027a5d       ?state_case_flag@?$output_processor@_WV?$string_output_adapter@_W@__crt_stdio_output@@V?$format_validation_base@_WV?$string_output_adapter@_W@__crt_stdio_output@@@2@@__crt_stdio_output@@AAE_NXZ 10028a5d f i libucrt:output.obj
 0001:00027aa9       ?state_case_flag@?$output_processor@_WV?$string_output_adapter@_W@__crt_stdio_output@@V?$positional_parameter_base@_WV?$string_output_adapter@_W@__crt_stdio_output@@@2@@__crt_stdio_output@@AAE_NXZ 10028aa9 f i libucrt:output.obj
 0001:00027af5       ?state_case_flag@?$output_processor@_WV?$string_output_adapter@_W@__crt_stdio_output@@V?$standard_base@_WV?$string_output_adapter@_W@__crt_stdio_output@@@2@@__crt_stdio_output@@AAE_NXZ 10028af5 f i libucrt:output.obj
 0001:00027b41       ?state_case_normal@?$output_processor@DV?$stream_output_adapter@D@__crt_stdio_output@@V?$format_validation_base@DV?$stream_output_adapter@D@__crt_stdio_output@@@2@@__crt_stdio_output@@AAE_NXZ 10028b41 f i libucrt:output.obj
 0001:00027b67       ?state_case_normal@?$output_processor@DV?$stream_output_adapter@D@__crt_stdio_output@@V?$positional_parameter_base@DV?$stream_output_adapter@D@__crt_stdio_output@@@2@@__crt_stdio_output@@AAE_NXZ 10028b67 f i libucrt:output.obj
 0001:00027ba4       ?state_case_normal@?$output_processor@DV?$stream_output_adapter@D@__crt_stdio_output@@V?$standard_base@DV?$stream_output_adapter@D@__crt_stdio_output@@@2@@__crt_stdio_output@@AAE_NXZ 10028ba4 f i libucrt:output.obj
 0001:00027bca       ?state_case_normal@?$output_processor@DV?$string_output_adapter@D@__crt_stdio_output@@V?$format_validation_base@DV?$string_output_adapter@D@__crt_stdio_output@@@2@@__crt_stdio_output@@AAE_NXZ 10028bca f i libucrt:output.obj
 0001:00027bf0       ?state_case_normal@?$output_processor@DV?$string_output_adapter@D@__crt_stdio_output@@V?$positional_parameter_base@DV?$string_output_adapter@D@__crt_stdio_output@@@2@@__crt_stdio_output@@AAE_NXZ 10028bf0 f i libucrt:output.obj
 0001:00027c2d       ?state_case_normal@?$output_processor@DV?$string_output_adapter@D@__crt_stdio_output@@V?$standard_base@DV?$string_output_adapter@D@__crt_stdio_output@@@2@@__crt_stdio_output@@AAE_NXZ 10028c2d f i libucrt:output.obj
 0001:00027c53       ?state_case_normal@?$output_processor@_WV?$stream_output_adapter@_W@__crt_stdio_output@@V?$format_validation_base@_WV?$stream_output_adapter@_W@__crt_stdio_output@@@2@@__crt_stdio_output@@AAE_NXZ 10028c53 f i libucrt:output.obj
 0001:00027c79       ?state_case_normal@?$output_processor@_WV?$stream_output_adapter@_W@__crt_stdio_output@@V?$positional_parameter_base@_WV?$stream_output_adapter@_W@__crt_stdio_output@@@2@@__crt_stdio_output@@AAE_NXZ 10028c79 f i libucrt:output.obj
 0001:00027cb6       ?state_case_normal@?$output_processor@_WV?$stream_output_adapter@_W@__crt_stdio_output@@V?$standard_base@_WV?$stream_output_adapter@_W@__crt_stdio_output@@@2@@__crt_stdio_output@@AAE_NXZ 10028cb6 f i libucrt:output.obj
 0001:00027cdc       ?state_case_normal@?$output_processor@_WV?$string_output_adapter@_W@__crt_stdio_output@@V?$format_validation_base@_WV?$string_output_adapter@_W@__crt_stdio_output@@@2@@__crt_stdio_output@@AAE_NXZ 10028cdc f i libucrt:output.obj
 0001:00027d02       ?state_case_normal@?$output_processor@_WV?$string_output_adapter@_W@__crt_stdio_output@@V?$positional_parameter_base@_WV?$string_output_adapter@_W@__crt_stdio_output@@@2@@__crt_stdio_output@@AAE_NXZ 10028d02 f i libucrt:output.obj
 0001:00027d3f       ?state_case_normal@?$output_processor@_WV?$string_output_adapter@_W@__crt_stdio_output@@V?$standard_base@_WV?$string_output_adapter@_W@__crt_stdio_output@@@2@@__crt_stdio_output@@AAE_NXZ 10028d3f f i libucrt:output.obj
 0001:00027d65       ?state_case_normal_common@?$output_processor@DV?$stream_output_adapter@D@__crt_stdio_output@@V?$format_validation_base@DV?$stream_output_adapter@D@__crt_stdio_output@@@2@@__crt_stdio_output@@AAE_NXZ 10028d65 f i libucrt:output.obj
 0001:00027d99       ?state_case_normal_common@?$output_processor@DV?$stream_output_adapter@D@__crt_stdio_output@@V?$positional_parameter_base@DV?$stream_output_adapter@D@__crt_stdio_output@@@2@@__crt_stdio_output@@AAE_NXZ 10028d99 f i libucrt:output.obj
 0001:00027dcd       ?state_case_normal_common@?$output_processor@DV?$stream_output_adapter@D@__crt_stdio_output@@V?$standard_base@DV?$stream_output_adapter@D@__crt_stdio_output@@@2@@__crt_stdio_output@@AAE_NXZ 10028dcd f i libucrt:output.obj
 0001:00027e01       ?state_case_normal_common@?$output_processor@DV?$string_output_adapter@D@__crt_stdio_output@@V?$format_validation_base@DV?$string_output_adapter@D@__crt_stdio_output@@@2@@__crt_stdio_output@@AAE_NXZ 10028e01 f i libucrt:output.obj
 0001:00027e35       ?state_case_normal_common@?$output_processor@DV?$string_output_adapter@D@__crt_stdio_output@@V?$positional_parameter_base@DV?$string_output_adapter@D@__crt_stdio_output@@@2@@__crt_stdio_output@@AAE_NXZ 10028e35 f i libucrt:output.obj
 0001:00027e69       ?state_case_normal_common@?$output_processor@DV?$string_output_adapter@D@__crt_stdio_output@@V?$standard_base@DV?$string_output_adapter@D@__crt_stdio_output@@@2@@__crt_stdio_output@@AAE_NXZ 10028e69 f i libucrt:output.obj
 0001:00027e9d       ?state_case_normal_common@?$output_processor@_WV?$stream_output_adapter@_W@__crt_stdio_output@@V?$format_validation_base@_WV?$stream_output_adapter@_W@__crt_stdio_output@@@2@@__crt_stdio_output@@AAE_NXZ 10028e9d f i libucrt:output.obj
 0001:00027ebe       ?state_case_normal_common@?$output_processor@_WV?$stream_output_adapter@_W@__crt_stdio_output@@V?$positional_parameter_base@_WV?$stream_output_adapter@_W@__crt_stdio_output@@@2@@__crt_stdio_output@@AAE_NXZ 10028ebe f i libucrt:output.obj
 0001:00027edf       ?state_case_normal_common@?$output_processor@_WV?$stream_output_adapter@_W@__crt_stdio_output@@V?$standard_base@_WV?$stream_output_adapter@_W@__crt_stdio_output@@@2@@__crt_stdio_output@@AAE_NXZ 10028edf f i libucrt:output.obj
 0001:00027f00       ?state_case_normal_common@?$output_processor@_WV?$string_output_adapter@_W@__crt_stdio_output@@V?$format_validation_base@_WV?$string_output_adapter@_W@__crt_stdio_output@@@2@@__crt_stdio_output@@AAE_NXZ 10028f00 f i libucrt:output.obj
 0001:00027f21       ?state_case_normal_common@?$output_processor@_WV?$string_output_adapter@_W@__crt_stdio_output@@V?$positional_parameter_base@_WV?$string_output_adapter@_W@__crt_stdio_output@@@2@@__crt_stdio_output@@AAE_NXZ 10028f21 f i libucrt:output.obj
 0001:00027f42       ?state_case_normal_common@?$output_processor@_WV?$string_output_adapter@_W@__crt_stdio_output@@V?$standard_base@_WV?$string_output_adapter@_W@__crt_stdio_output@@@2@@__crt_stdio_output@@AAE_NXZ 10028f42 f i libucrt:output.obj
 0001:00027f63       ?state_case_normal_tchar@?$output_processor@DV?$stream_output_adapter@D@__crt_stdio_output@@V?$format_validation_base@DV?$stream_output_adapter@D@__crt_stdio_output@@@2@@__crt_stdio_output@@AAE_ND@Z 10028f63 f i libucrt:output.obj
 0001:00027fdc       ?state_case_normal_tchar@?$output_processor@DV?$stream_output_adapter@D@__crt_stdio_output@@V?$positional_parameter_base@DV?$stream_output_adapter@D@__crt_stdio_output@@@2@@__crt_stdio_output@@AAE_ND@Z 10028fdc f i libucrt:output.obj
 0001:00028055       ?state_case_normal_tchar@?$output_processor@DV?$stream_output_adapter@D@__crt_stdio_output@@V?$standard_base@DV?$stream_output_adapter@D@__crt_stdio_output@@@2@@__crt_stdio_output@@AAE_ND@Z 10029055 f i libucrt:output.obj
 0001:000280ce       ?state_case_normal_tchar@?$output_processor@DV?$string_output_adapter@D@__crt_stdio_output@@V?$format_validation_base@DV?$string_output_adapter@D@__crt_stdio_output@@@2@@__crt_stdio_output@@AAE_ND@Z 100290ce f i libucrt:output.obj
 0001:00028147       ?state_case_normal_tchar@?$output_processor@DV?$string_output_adapter@D@__crt_stdio_output@@V?$positional_parameter_base@DV?$string_output_adapter@D@__crt_stdio_output@@@2@@__crt_stdio_output@@AAE_ND@Z 10029147 f i libucrt:output.obj
 0001:000281c0       ?state_case_normal_tchar@?$output_processor@DV?$string_output_adapter@D@__crt_stdio_output@@V?$standard_base@DV?$string_output_adapter@D@__crt_stdio_output@@@2@@__crt_stdio_output@@AAE_ND@Z 100291c0 f i libucrt:output.obj
 0001:00028239       ?state_case_normal_tchar@?$output_processor@_WV?$stream_output_adapter@_W@__crt_stdio_output@@V?$format_validation_base@_WV?$stream_output_adapter@_W@__crt_stdio_output@@@2@@__crt_stdio_output@@AAE_N_W@Z 10029239 f i libucrt:output.obj
 0001:00028244       ?state_case_normal_tchar@?$output_processor@_WV?$stream_output_adapter@_W@__crt_stdio_output@@V?$positional_parameter_base@_WV?$stream_output_adapter@_W@__crt_stdio_output@@@2@@__crt_stdio_output@@AAE_N_W@Z 10029244 f i libucrt:output.obj
 0001:0002824f       ?state_case_normal_tchar@?$output_processor@_WV?$stream_output_adapter@_W@__crt_stdio_output@@V?$standard_base@_WV?$stream_output_adapter@_W@__crt_stdio_output@@@2@@__crt_stdio_output@@AAE_N_W@Z 1002924f f i libucrt:output.obj
 0001:0002825a       ?state_case_normal_tchar@?$output_processor@_WV?$string_output_adapter@_W@__crt_stdio_output@@V?$format_validation_base@_WV?$string_output_adapter@_W@__crt_stdio_output@@@2@@__crt_stdio_output@@AAE_N_W@Z 1002925a f i libucrt:output.obj
 0001:00028265       ?state_case_normal_tchar@?$output_processor@_WV?$string_output_adapter@_W@__crt_stdio_output@@V?$positional_parameter_base@_WV?$string_output_adapter@_W@__crt_stdio_output@@@2@@__crt_stdio_output@@AAE_N_W@Z 10029265 f i libucrt:output.obj
 0001:00028270       ?state_case_normal_tchar@?$output_processor@_WV?$string_output_adapter@_W@__crt_stdio_output@@V?$standard_base@_WV?$string_output_adapter@_W@__crt_stdio_output@@@2@@__crt_stdio_output@@AAE_N_W@Z 10029270 f i libucrt:output.obj
 0001:0002827b       ?state_case_percent@?$output_processor@DV?$stream_output_adapter@D@__crt_stdio_output@@V?$format_validation_base@DV?$stream_output_adapter@D@__crt_stdio_output@@@2@@__crt_stdio_output@@AAE_NXZ 1002927b f i libucrt:output.obj
 0001:00028299       ?state_case_percent@?$output_processor@DV?$stream_output_adapter@D@__crt_stdio_output@@V?$positional_parameter_base@DV?$stream_output_adapter@D@__crt_stdio_output@@@2@@__crt_stdio_output@@AAE_NXZ 10029299 f i libucrt:output.obj
 0001:000282b7       ?state_case_percent@?$output_processor@DV?$stream_output_adapter@D@__crt_stdio_output@@V?$standard_base@DV?$stream_output_adapter@D@__crt_stdio_output@@@2@@__crt_stdio_output@@AAE_NXZ 100292b7 f i libucrt:output.obj
 0001:000282d5       ?state_case_percent@?$output_processor@DV?$string_output_adapter@D@__crt_stdio_output@@V?$format_validation_base@DV?$string_output_adapter@D@__crt_stdio_output@@@2@@__crt_stdio_output@@AAE_NXZ 100292d5 f i libucrt:output.obj
 0001:000282f3       ?state_case_percent@?$output_processor@DV?$string_output_adapter@D@__crt_stdio_output@@V?$positional_parameter_base@DV?$string_output_adapter@D@__crt_stdio_output@@@2@@__crt_stdio_output@@AAE_NXZ 100292f3 f i libucrt:output.obj
 0001:00028311       ?state_case_percent@?$output_processor@DV?$string_output_adapter@D@__crt_stdio_output@@V?$standard_base@DV?$string_output_adapter@D@__crt_stdio_output@@@2@@__crt_stdio_output@@AAE_NXZ 10029311 f i libucrt:output.obj
 0001:0002832f       ?state_case_percent@?$output_processor@_WV?$stream_output_adapter@_W@__crt_stdio_output@@V?$format_validation_base@_WV?$stream_output_adapter@_W@__crt_stdio_output@@@2@@__crt_stdio_output@@AAE_NXZ 1002932f f i libucrt:output.obj
 0001:0002834d       ?state_case_percent@?$output_processor@_WV?$stream_output_adapter@_W@__crt_stdio_output@@V?$positional_parameter_base@_WV?$stream_output_adapter@_W@__crt_stdio_output@@@2@@__crt_stdio_output@@AAE_NXZ 1002934d f i libucrt:output.obj
 0001:0002836b       ?state_case_percent@?$output_processor@_WV?$stream_output_adapter@_W@__crt_stdio_output@@V?$standard_base@_WV?$stream_output_adapter@_W@__crt_stdio_output@@@2@@__crt_stdio_output@@AAE_NXZ 1002936b f i libucrt:output.obj
 0001:00028389       ?state_case_percent@?$output_processor@_WV?$string_output_adapter@_W@__crt_stdio_output@@V?$format_validation_base@_WV?$string_output_adapter@_W@__crt_stdio_output@@@2@@__crt_stdio_output@@AAE_NXZ 10029389 f i libucrt:output.obj
 0001:000283a7       ?state_case_percent@?$output_processor@_WV?$string_output_adapter@_W@__crt_stdio_output@@V?$positional_parameter_base@_WV?$string_output_adapter@_W@__crt_stdio_output@@@2@@__crt_stdio_output@@AAE_NXZ 100293a7 f i libucrt:output.obj
 0001:000283c5       ?state_case_percent@?$output_processor@_WV?$string_output_adapter@_W@__crt_stdio_output@@V?$standard_base@_WV?$string_output_adapter@_W@__crt_stdio_output@@@2@@__crt_stdio_output@@AAE_NXZ 100293c5 f i libucrt:output.obj
 0001:000283e3       ?state_case_precision@?$output_processor@DV?$stream_output_adapter@D@__crt_stdio_output@@V?$format_validation_base@DV?$stream_output_adapter@D@__crt_stdio_output@@@2@@__crt_stdio_output@@AAE_NXZ 100293e3 f i libucrt:output.obj
 0001:00028415       ?state_case_precision@?$output_processor@DV?$stream_output_adapter@D@__crt_stdio_output@@V?$positional_parameter_base@DV?$stream_output_adapter@D@__crt_stdio_output@@@2@@__crt_stdio_output@@AAE_NXZ 10029415 f i libucrt:output.obj
 0001:0002845d       ?state_case_precision@?$output_processor@DV?$stream_output_adapter@D@__crt_stdio_output@@V?$standard_base@DV?$stream_output_adapter@D@__crt_stdio_output@@@2@@__crt_stdio_output@@AAE_NXZ 1002945d f i libucrt:output.obj
 0001:0002848f       ?state_case_precision@?$output_processor@DV?$string_output_adapter@D@__crt_stdio_output@@V?$format_validation_base@DV?$string_output_adapter@D@__crt_stdio_output@@@2@@__crt_stdio_output@@AAE_NXZ 1002948f f i libucrt:output.obj
 0001:000284c1       ?state_case_precision@?$output_processor@DV?$string_output_adapter@D@__crt_stdio_output@@V?$positional_parameter_base@DV?$string_output_adapter@D@__crt_stdio_output@@@2@@__crt_stdio_output@@AAE_NXZ 100294c1 f i libucrt:output.obj
 0001:00028509       ?state_case_precision@?$output_processor@DV?$string_output_adapter@D@__crt_stdio_output@@V?$standard_base@DV?$string_output_adapter@D@__crt_stdio_output@@@2@@__crt_stdio_output@@AAE_NXZ 10029509 f i libucrt:output.obj
 0001:0002853b       ?state_case_precision@?$output_processor@_WV?$stream_output_adapter@_W@__crt_stdio_output@@V?$format_validation_base@_WV?$stream_output_adapter@_W@__crt_stdio_output@@@2@@__crt_stdio_output@@AAE_NXZ 1002953b f i libucrt:output.obj
 0001:0002856e       ?state_case_precision@?$output_processor@_WV?$stream_output_adapter@_W@__crt_stdio_output@@V?$positional_parameter_base@_WV?$stream_output_adapter@_W@__crt_stdio_output@@@2@@__crt_stdio_output@@AAE_NXZ 1002956e f i libucrt:output.obj
 0001:000285b7       ?state_case_precision@?$output_processor@_WV?$stream_output_adapter@_W@__crt_stdio_output@@V?$standard_base@_WV?$stream_output_adapter@_W@__crt_stdio_output@@@2@@__crt_stdio_output@@AAE_NXZ 100295b7 f i libucrt:output.obj
 0001:000285ea       ?state_case_precision@?$output_processor@_WV?$string_output_adapter@_W@__crt_stdio_output@@V?$format_validation_base@_WV?$string_output_adapter@_W@__crt_stdio_output@@@2@@__crt_stdio_output@@AAE_NXZ 100295ea f i libucrt:output.obj
 0001:0002861d       ?state_case_precision@?$output_processor@_WV?$string_output_adapter@_W@__crt_stdio_output@@V?$positional_parameter_base@_WV?$string_output_adapter@_W@__crt_stdio_output@@@2@@__crt_stdio_output@@AAE_NXZ 1002961d f i libucrt:output.obj
 0001:00028666       ?state_case_precision@?$output_processor@_WV?$string_output_adapter@_W@__crt_stdio_output@@V?$standard_base@_WV?$string_output_adapter@_W@__crt_stdio_output@@@2@@__crt_stdio_output@@AAE_NXZ 10029666 f i libucrt:output.obj
 0001:00028699       ?state_case_size@?$output_processor@DV?$stream_output_adapter@D@__crt_stdio_output@@V?$format_validation_base@DV?$stream_output_adapter@D@__crt_stdio_output@@@2@@__crt_stdio_output@@AAE_NXZ 10029699 f i libucrt:output.obj
 0001:0002885c       ?state_case_size@?$output_processor@DV?$stream_output_adapter@D@__crt_stdio_output@@V?$positional_parameter_base@DV?$stream_output_adapter@D@__crt_stdio_output@@@2@@__crt_stdio_output@@AAE_NXZ 1002985c f i libucrt:output.obj
 0001:00028a1f       ?state_case_size@?$output_processor@DV?$stream_output_adapter@D@__crt_stdio_output@@V?$standard_base@DV?$stream_output_adapter@D@__crt_stdio_output@@@2@@__crt_stdio_output@@AAE_NXZ 10029a1f f i libucrt:output.obj
 0001:00028be2       ?state_case_size@?$output_processor@DV?$string_output_adapter@D@__crt_stdio_output@@V?$format_validation_base@DV?$string_output_adapter@D@__crt_stdio_output@@@2@@__crt_stdio_output@@AAE_NXZ 10029be2 f i libucrt:output.obj
 0001:00028da5       ?state_case_size@?$output_processor@DV?$string_output_adapter@D@__crt_stdio_output@@V?$positional_parameter_base@DV?$string_output_adapter@D@__crt_stdio_output@@@2@@__crt_stdio_output@@AAE_NXZ 10029da5 f i libucrt:output.obj
 0001:00028f68       ?state_case_size@?$output_processor@DV?$string_output_adapter@D@__crt_stdio_output@@V?$standard_base@DV?$string_output_adapter@D@__crt_stdio_output@@@2@@__crt_stdio_output@@AAE_NXZ 10029f68 f i libucrt:output.obj
 0001:0002912b       ?state_case_size@?$output_processor@_WV?$stream_output_adapter@_W@__crt_stdio_output@@V?$format_validation_base@_WV?$stream_output_adapter@_W@__crt_stdio_output@@@2@@__crt_stdio_output@@AAE_NXZ 1002a12b f i libucrt:output.obj
 0001:00029306       ?state_case_size@?$output_processor@_WV?$stream_output_adapter@_W@__crt_stdio_output@@V?$positional_parameter_base@_WV?$stream_output_adapter@_W@__crt_stdio_output@@@2@@__crt_stdio_output@@AAE_NXZ 1002a306 f i libucrt:output.obj
 0001:000294e1       ?state_case_size@?$output_processor@_WV?$stream_output_adapter@_W@__crt_stdio_output@@V?$standard_base@_WV?$stream_output_adapter@_W@__crt_stdio_output@@@2@@__crt_stdio_output@@AAE_NXZ 1002a4e1 f i libucrt:output.obj
 0001:000296bc       ?state_case_size@?$output_processor@_WV?$string_output_adapter@_W@__crt_stdio_output@@V?$format_validation_base@_WV?$string_output_adapter@_W@__crt_stdio_output@@@2@@__crt_stdio_output@@AAE_NXZ 1002a6bc f i libucrt:output.obj
 0001:00029897       ?state_case_size@?$output_processor@_WV?$string_output_adapter@_W@__crt_stdio_output@@V?$positional_parameter_base@_WV?$string_output_adapter@_W@__crt_stdio_output@@@2@@__crt_stdio_output@@AAE_NXZ 1002a897 f i libucrt:output.obj
 0001:00029a72       ?state_case_size@?$output_processor@_WV?$string_output_adapter@_W@__crt_stdio_output@@V?$standard_base@_WV?$string_output_adapter@_W@__crt_stdio_output@@@2@@__crt_stdio_output@@AAE_NXZ 1002aa72 f i libucrt:output.obj
 0001:00029c4d       ?state_case_type@?$output_processor@DV?$stream_output_adapter@D@__crt_stdio_output@@V?$format_validation_base@DV?$stream_output_adapter@D@__crt_stdio_output@@@2@@__crt_stdio_output@@AAE_NXZ 1002ac4d f i libucrt:output.obj
 0001:00029f07       ?state_case_type@?$output_processor@DV?$stream_output_adapter@D@__crt_stdio_output@@V?$positional_parameter_base@DV?$stream_output_adapter@D@__crt_stdio_output@@@2@@__crt_stdio_output@@AAE_NXZ 1002af07 f i libucrt:output.obj
 0001:0002a1cf       ?state_case_type@?$output_processor@DV?$stream_output_adapter@D@__crt_stdio_output@@V?$standard_base@DV?$stream_output_adapter@D@__crt_stdio_output@@@2@@__crt_stdio_output@@AAE_NXZ 1002b1cf f i libucrt:output.obj
 0001:0002a489       ?state_case_type@?$output_processor@DV?$string_output_adapter@D@__crt_stdio_output@@V?$format_validation_base@DV?$string_output_adapter@D@__crt_stdio_output@@@2@@__crt_stdio_output@@AAE_NXZ 1002b489 f i libucrt:output.obj
 0001:0002a743       ?state_case_type@?$output_processor@DV?$string_output_adapter@D@__crt_stdio_output@@V?$positional_parameter_base@DV?$string_output_adapter@D@__crt_stdio_output@@@2@@__crt_stdio_output@@AAE_NXZ 1002b743 f i libucrt:output.obj
 0001:0002aa0b       ?state_case_type@?$output_processor@DV?$string_output_adapter@D@__crt_stdio_output@@V?$standard_base@DV?$string_output_adapter@D@__crt_stdio_output@@@2@@__crt_stdio_output@@AAE_NXZ 1002ba0b f i libucrt:output.obj
 0001:0002acc5       ?state_case_type@?$output_processor@_WV?$stream_output_adapter@_W@__crt_stdio_output@@V?$format_validation_base@_WV?$stream_output_adapter@_W@__crt_stdio_output@@@2@@__crt_stdio_output@@AAE_NXZ 1002bcc5 f i libucrt:output.obj
 0001:0002afb9       ?state_case_type@?$output_processor@_WV?$stream_output_adapter@_W@__crt_stdio_output@@V?$positional_parameter_base@_WV?$stream_output_adapter@_W@__crt_stdio_output@@@2@@__crt_stdio_output@@AAE_NXZ 1002bfb9 f i libucrt:output.obj
 0001:0002b2c0       ?state_case_type@?$output_processor@_WV?$stream_output_adapter@_W@__crt_stdio_output@@V?$standard_base@_WV?$stream_output_adapter@_W@__crt_stdio_output@@@2@@__crt_stdio_output@@AAE_NXZ 1002c2c0 f i libucrt:output.obj
 0001:0002b5b4       ?state_case_type@?$output_processor@_WV?$string_output_adapter@_W@__crt_stdio_output@@V?$format_validation_base@_WV?$string_output_adapter@_W@__crt_stdio_output@@@2@@__crt_stdio_output@@AAE_NXZ 1002c5b4 f i libucrt:output.obj
 0001:0002b8a8       ?state_case_type@?$output_processor@_WV?$string_output_adapter@_W@__crt_stdio_output@@V?$positional_parameter_base@_WV?$string_output_adapter@_W@__crt_stdio_output@@@2@@__crt_stdio_output@@AAE_NXZ 1002c8a8 f i libucrt:output.obj
 0001:0002bbaf       ?state_case_type@?$output_processor@_WV?$string_output_adapter@_W@__crt_stdio_output@@V?$standard_base@_WV?$string_output_adapter@_W@__crt_stdio_output@@@2@@__crt_stdio_output@@AAE_NXZ 1002cbaf f i libucrt:output.obj
 0001:0002bea3       ?state_case_width@?$output_processor@DV?$stream_output_adapter@D@__crt_stdio_output@@V?$format_validation_base@DV?$stream_output_adapter@D@__crt_stdio_output@@@2@@__crt_stdio_output@@AAE_NXZ 1002cea3 f i libucrt:output.obj
 0001:0002bed8       ?state_case_width@?$output_processor@DV?$stream_output_adapter@D@__crt_stdio_output@@V?$positional_parameter_base@DV?$stream_output_adapter@D@__crt_stdio_output@@@2@@__crt_stdio_output@@AAE_NXZ 1002ced8 f i libucrt:output.obj
 0001:0002bf28       ?state_case_width@?$output_processor@DV?$stream_output_adapter@D@__crt_stdio_output@@V?$standard_base@DV?$stream_output_adapter@D@__crt_stdio_output@@@2@@__crt_stdio_output@@AAE_NXZ 1002cf28 f i libucrt:output.obj
 0001:0002bf5d       ?state_case_width@?$output_processor@DV?$string_output_adapter@D@__crt_stdio_output@@V?$format_validation_base@DV?$string_output_adapter@D@__crt_stdio_output@@@2@@__crt_stdio_output@@AAE_NXZ 1002cf5d f i libucrt:output.obj
 0001:0002bf92       ?state_case_width@?$output_processor@DV?$string_output_adapter@D@__crt_stdio_output@@V?$positional_parameter_base@DV?$string_output_adapter@D@__crt_stdio_output@@@2@@__crt_stdio_output@@AAE_NXZ 1002cf92 f i libucrt:output.obj
 0001:0002bfe2       ?state_case_width@?$output_processor@DV?$string_output_adapter@D@__crt_stdio_output@@V?$standard_base@DV?$string_output_adapter@D@__crt_stdio_output@@@2@@__crt_stdio_output@@AAE_NXZ 1002cfe2 f i libucrt:output.obj
 0001:0002c017       ?state_case_width@?$output_processor@_WV?$stream_output_adapter@_W@__crt_stdio_output@@V?$format_validation_base@_WV?$stream_output_adapter@_W@__crt_stdio_output@@@2@@__crt_stdio_output@@AAE_NXZ 1002d017 f i libucrt:output.obj
 0001:0002c04e       ?state_case_width@?$output_processor@_WV?$stream_output_adapter@_W@__crt_stdio_output@@V?$positional_parameter_base@_WV?$stream_output_adapter@_W@__crt_stdio_output@@@2@@__crt_stdio_output@@AAE_NXZ 1002d04e f i libucrt:output.obj
 0001:0002c09f       ?state_case_width@?$output_processor@_WV?$stream_output_adapter@_W@__crt_stdio_output@@V?$standard_base@_WV?$stream_output_adapter@_W@__crt_stdio_output@@@2@@__crt_stdio_output@@AAE_NXZ 1002d09f f i libucrt:output.obj
 0001:0002c0d6       ?state_case_width@?$output_processor@_WV?$string_output_adapter@_W@__crt_stdio_output@@V?$format_validation_base@_WV?$string_output_adapter@_W@__crt_stdio_output@@@2@@__crt_stdio_output@@AAE_NXZ 1002d0d6 f i libucrt:output.obj
 0001:0002c10d       ?state_case_width@?$output_processor@_WV?$string_output_adapter@_W@__crt_stdio_output@@V?$positional_parameter_base@_WV?$string_output_adapter@_W@__crt_stdio_output@@@2@@__crt_stdio_output@@AAE_NXZ 1002d10d f i libucrt:output.obj
 0001:0002c15e       ?state_case_width@?$output_processor@_WV?$string_output_adapter@_W@__crt_stdio_output@@V?$standard_base@_WV?$string_output_adapter@_W@__crt_stdio_output@@@2@@__crt_stdio_output@@AAE_NXZ 1002d15e f i libucrt:output.obj
 0001:0002c195       ?state_count@?$format_validation_base@DV?$stream_output_adapter@D@__crt_stdio_output@@@__crt_stdio_output@@KAIXZ 1002d195 f i libucrt:output.obj
 0001:0002c199       ?state_count@?$format_validation_base@DV?$string_output_adapter@D@__crt_stdio_output@@@__crt_stdio_output@@KAIXZ 1002d199 f i libucrt:output.obj
 0001:0002c19d       ?state_count@?$format_validation_base@_WV?$stream_output_adapter@_W@__crt_stdio_output@@@__crt_stdio_output@@KAIXZ 1002d19d f i libucrt:output.obj
 0001:0002c1a1       ?state_count@?$format_validation_base@_WV?$string_output_adapter@_W@__crt_stdio_output@@@__crt_stdio_output@@KAIXZ 1002d1a1 f i libucrt:output.obj
 0001:0002c1a5       ?state_count@?$standard_base@DV?$stream_output_adapter@D@__crt_stdio_output@@@__crt_stdio_output@@KAIXZ 1002d1a5 f i libucrt:output.obj
 0001:0002c1a9       ?state_count@?$standard_base@DV?$string_output_adapter@D@__crt_stdio_output@@@__crt_stdio_output@@KAIXZ 1002d1a9 f i libucrt:output.obj
 0001:0002c1ad       ?state_count@?$standard_base@_WV?$stream_output_adapter@_W@__crt_stdio_output@@@__crt_stdio_output@@KAIXZ 1002d1ad f i libucrt:output.obj
 0001:0002c1b1       ?state_count@?$standard_base@_WV?$string_output_adapter@_W@__crt_stdio_output@@@__crt_stdio_output@@KAIXZ 1002d1b1 f i libucrt:output.obj
 0001:0002c1b5       ?state_transition_table@?$format_validation_base@DV?$stream_output_adapter@D@__crt_stdio_output@@@__crt_stdio_output@@KAPBEXZ 1002d1b5 f i libucrt:output.obj
 0001:0002c1bb       ?state_transition_table@?$format_validation_base@DV?$string_output_adapter@D@__crt_stdio_output@@@__crt_stdio_output@@KAPBEXZ 1002d1bb f i libucrt:output.obj
 0001:0002c1c1       ?state_transition_table@?$format_validation_base@_WV?$stream_output_adapter@_W@__crt_stdio_output@@@__crt_stdio_output@@KAPBEXZ 1002d1c1 f i libucrt:output.obj
 0001:0002c1c7       ?state_transition_table@?$format_validation_base@_WV?$string_output_adapter@_W@__crt_stdio_output@@@__crt_stdio_output@@KAPBEXZ 1002d1c7 f i libucrt:output.obj
 0001:0002c1cd       ?state_transition_table@?$standard_base@DV?$stream_output_adapter@D@__crt_stdio_output@@@__crt_stdio_output@@KAPBEXZ 1002d1cd f i libucrt:output.obj
 0001:0002c1d3       ?state_transition_table@?$standard_base@DV?$string_output_adapter@D@__crt_stdio_output@@@__crt_stdio_output@@KAPBEXZ 1002d1d3 f i libucrt:output.obj
 0001:0002c1d9       ?state_transition_table@?$standard_base@_WV?$stream_output_adapter@_W@__crt_stdio_output@@@__crt_stdio_output@@KAPBEXZ 1002d1d9 f i libucrt:output.obj
 0001:0002c1df       ?state_transition_table@?$standard_base@_WV?$string_output_adapter@_W@__crt_stdio_output@@@__crt_stdio_output@@KAPBEXZ 1002d1df f i libucrt:output.obj
 0001:0002c1e5       ?to_integer_size@__crt_stdio_output@@YAIW4length_modifier@1@@Z 1002d1e5 f i libucrt:output.obj
 0001:0002c258       ?type_case_X@?$output_processor@DV?$stream_output_adapter@D@__crt_stdio_output@@V?$format_validation_base@DV?$stream_output_adapter@D@__crt_stdio_output@@@2@@__crt_stdio_output@@AAE_NXZ 1002d258 f i libucrt:output.obj
 0001:0002c264       ?type_case_X@?$output_processor@DV?$stream_output_adapter@D@__crt_stdio_output@@V?$positional_parameter_base@DV?$stream_output_adapter@D@__crt_stdio_output@@@2@@__crt_stdio_output@@AAE_NXZ 1002d264 f i libucrt:output.obj
 0001:0002c270       ?type_case_X@?$output_processor@DV?$stream_output_adapter@D@__crt_stdio_output@@V?$standard_base@DV?$stream_output_adapter@D@__crt_stdio_output@@@2@@__crt_stdio_output@@AAE_NXZ 1002d270 f i libucrt:output.obj
 0001:0002c27c       ?type_case_X@?$output_processor@DV?$string_output_adapter@D@__crt_stdio_output@@V?$format_validation_base@DV?$string_output_adapter@D@__crt_stdio_output@@@2@@__crt_stdio_output@@AAE_NXZ 1002d27c f i libucrt:output.obj
 0001:0002c288       ?type_case_X@?$output_processor@DV?$string_output_adapter@D@__crt_stdio_output@@V?$positional_parameter_base@DV?$string_output_adapter@D@__crt_stdio_output@@@2@@__crt_stdio_output@@AAE_NXZ 1002d288 f i libucrt:output.obj
 0001:0002c294       ?type_case_X@?$output_processor@DV?$string_output_adapter@D@__crt_stdio_output@@V?$standard_base@DV?$string_output_adapter@D@__crt_stdio_output@@@2@@__crt_stdio_output@@AAE_NXZ 1002d294 f i libucrt:output.obj
 0001:0002c2a0       ?type_case_X@?$output_processor@_WV?$stream_output_adapter@_W@__crt_stdio_output@@V?$format_validation_base@_WV?$stream_output_adapter@_W@__crt_stdio_output@@@2@@__crt_stdio_output@@AAE_NXZ 1002d2a0 f i libucrt:output.obj
 0001:0002c2ac       ?type_case_X@?$output_processor@_WV?$stream_output_adapter@_W@__crt_stdio_output@@V?$positional_parameter_base@_WV?$stream_output_adapter@_W@__crt_stdio_output@@@2@@__crt_stdio_output@@AAE_NXZ 1002d2ac f i libucrt:output.obj
 0001:0002c2b8       ?type_case_X@?$output_processor@_WV?$stream_output_adapter@_W@__crt_stdio_output@@V?$standard_base@_WV?$stream_output_adapter@_W@__crt_stdio_output@@@2@@__crt_stdio_output@@AAE_NXZ 1002d2b8 f i libucrt:output.obj
 0001:0002c2c4       ?type_case_X@?$output_processor@_WV?$string_output_adapter@_W@__crt_stdio_output@@V?$format_validation_base@_WV?$string_output_adapter@_W@__crt_stdio_output@@@2@@__crt_stdio_output@@AAE_NXZ 1002d2c4 f i libucrt:output.obj
 0001:0002c2d0       ?type_case_X@?$output_processor@_WV?$string_output_adapter@_W@__crt_stdio_output@@V?$positional_parameter_base@_WV?$string_output_adapter@_W@__crt_stdio_output@@@2@@__crt_stdio_output@@AAE_NXZ 1002d2d0 f i libucrt:output.obj
 0001:0002c2dc       ?type_case_X@?$output_processor@_WV?$string_output_adapter@_W@__crt_stdio_output@@V?$standard_base@_WV?$string_output_adapter@_W@__crt_stdio_output@@@2@@__crt_stdio_output@@AAE_NXZ 1002d2dc f i libucrt:output.obj
 0001:0002c2e8       ?type_case_Z@?$output_processor@DV?$stream_output_adapter@D@__crt_stdio_output@@V?$format_validation_base@DV?$stream_output_adapter@D@__crt_stdio_output@@@2@@__crt_stdio_output@@AAE_NXZ 1002d2e8 f i libucrt:output.obj
 0001:0002c363       ?type_case_Z@?$output_processor@DV?$stream_output_adapter@D@__crt_stdio_output@@V?$positional_parameter_base@DV?$stream_output_adapter@D@__crt_stdio_output@@@2@@__crt_stdio_output@@AAE_NXZ 1002d363 f i libucrt:output.obj
 0001:0002c401       ?type_case_Z@?$output_processor@DV?$stream_output_adapter@D@__crt_stdio_output@@V?$standard_base@DV?$stream_output_adapter@D@__crt_stdio_output@@@2@@__crt_stdio_output@@AAE_NXZ 1002d401 f i libucrt:output.obj
 0001:0002c47c       ?type_case_Z@?$output_processor@DV?$string_output_adapter@D@__crt_stdio_output@@V?$format_validation_base@DV?$string_output_adapter@D@__crt_stdio_output@@@2@@__crt_stdio_output@@AAE_NXZ 1002d47c f i libucrt:output.obj
 0001:0002c4f7       ?type_case_Z@?$output_processor@DV?$string_output_adapter@D@__crt_stdio_output@@V?$positional_parameter_base@DV?$string_output_adapter@D@__crt_stdio_output@@@2@@__crt_stdio_output@@AAE_NXZ 1002d4f7 f i libucrt:output.obj
 0001:0002c595       ?type_case_Z@?$output_processor@DV?$string_output_adapter@D@__crt_stdio_output@@V?$standard_base@DV?$string_output_adapter@D@__crt_stdio_output@@@2@@__crt_stdio_output@@AAE_NXZ 1002d595 f i libucrt:output.obj
 0001:0002c610       ?type_case_Z@?$output_processor@_WV?$stream_output_adapter@_W@__crt_stdio_output@@V?$format_validation_base@_WV?$stream_output_adapter@_W@__crt_stdio_output@@@2@@__crt_stdio_output@@AAE_NXZ 1002d610 f i libucrt:output.obj
 0001:0002c68b       ?type_case_Z@?$output_processor@_WV?$stream_output_adapter@_W@__crt_stdio_output@@V?$positional_parameter_base@_WV?$stream_output_adapter@_W@__crt_stdio_output@@@2@@__crt_stdio_output@@AAE_NXZ 1002d68b f i libucrt:output.obj
 0001:0002c729       ?type_case_Z@?$output_processor@_WV?$stream_output_adapter@_W@__crt_stdio_output@@V?$standard_base@_WV?$stream_output_adapter@_W@__crt_stdio_output@@@2@@__crt_stdio_output@@AAE_NXZ 1002d729 f i libucrt:output.obj
 0001:0002c7a4       ?type_case_Z@?$output_processor@_WV?$string_output_adapter@_W@__crt_stdio_output@@V?$format_validation_base@_WV?$string_output_adapter@_W@__crt_stdio_output@@@2@@__crt_stdio_output@@AAE_NXZ 1002d7a4 f i libucrt:output.obj
 0001:0002c81f       ?type_case_Z@?$output_processor@_WV?$string_output_adapter@_W@__crt_stdio_output@@V?$positional_parameter_base@_WV?$string_output_adapter@_W@__crt_stdio_output@@@2@@__crt_stdio_output@@AAE_NXZ 1002d81f f i libucrt:output.obj
 0001:0002c8bd       ?type_case_Z@?$output_processor@_WV?$string_output_adapter@_W@__crt_stdio_output@@V?$standard_base@_WV?$string_output_adapter@_W@__crt_stdio_output@@@2@@__crt_stdio_output@@AAE_NXZ 1002d8bd f i libucrt:output.obj
 0001:0002c938       ?type_case_a@?$output_processor@DV?$stream_output_adapter@D@__crt_stdio_output@@V?$format_validation_base@DV?$stream_output_adapter@D@__crt_stdio_output@@@2@@__crt_stdio_output@@AAE_NXZ 1002d938 f i libucrt:output.obj
 0001:0002cae8       ?type_case_a@?$output_processor@DV?$stream_output_adapter@D@__crt_stdio_output@@V?$positional_parameter_base@DV?$stream_output_adapter@D@__crt_stdio_output@@@2@@__crt_stdio_output@@AAE_NXZ 1002dae8 f i libucrt:output.obj
 0001:0002ccbf       ?type_case_a@?$output_processor@DV?$stream_output_adapter@D@__crt_stdio_output@@V?$standard_base@DV?$stream_output_adapter@D@__crt_stdio_output@@@2@@__crt_stdio_output@@AAE_NXZ 1002dcbf f i libucrt:output.obj
 0001:0002ce6f       ?type_case_a@?$output_processor@DV?$string_output_adapter@D@__crt_stdio_output@@V?$format_validation_base@DV?$string_output_adapter@D@__crt_stdio_output@@@2@@__crt_stdio_output@@AAE_NXZ 1002de6f f i libucrt:output.obj
 0001:0002d01f       ?type_case_a@?$output_processor@DV?$string_output_adapter@D@__crt_stdio_output@@V?$positional_parameter_base@DV?$string_output_adapter@D@__crt_stdio_output@@@2@@__crt_stdio_output@@AAE_NXZ 1002e01f f i libucrt:output.obj
 0001:0002d1f6       ?type_case_a@?$output_processor@DV?$string_output_adapter@D@__crt_stdio_output@@V?$standard_base@DV?$string_output_adapter@D@__crt_stdio_output@@@2@@__crt_stdio_output@@AAE_NXZ 1002e1f6 f i libucrt:output.obj
 0001:0002d3a6       ?type_case_a@?$output_processor@_WV?$stream_output_adapter@_W@__crt_stdio_output@@V?$format_validation_base@_WV?$stream_output_adapter@_W@__crt_stdio_output@@@2@@__crt_stdio_output@@AAE_NXZ 1002e3a6 f i libucrt:output.obj
 0001:0002d574       ?type_case_a@?$output_processor@_WV?$stream_output_adapter@_W@__crt_stdio_output@@V?$positional_parameter_base@_WV?$stream_output_adapter@_W@__crt_stdio_output@@@2@@__crt_stdio_output@@AAE_NXZ 1002e574 f i libucrt:output.obj
 0001:0002d769       ?type_case_a@?$output_processor@_WV?$stream_output_adapter@_W@__crt_stdio_output@@V?$standard_base@_WV?$stream_output_adapter@_W@__crt_stdio_output@@@2@@__crt_stdio_output@@AAE_NXZ 1002e769 f i libucrt:output.obj
 0001:0002d937       ?type_case_a@?$output_processor@_WV?$string_output_adapter@_W@__crt_stdio_output@@V?$format_validation_base@_WV?$string_output_adapter@_W@__crt_stdio_output@@@2@@__crt_stdio_output@@AAE_NXZ 1002e937 f i libucrt:output.obj
 0001:0002db05       ?type_case_a@?$output_processor@_WV?$string_output_adapter@_W@__crt_stdio_output@@V?$positional_parameter_base@_WV?$string_output_adapter@_W@__crt_stdio_output@@@2@@__crt_stdio_output@@AAE_NXZ 1002eb05 f i libucrt:output.obj
 0001:0002dcfa       ?type_case_a@?$output_processor@_WV?$string_output_adapter@_W@__crt_stdio_output@@V?$standard_base@_WV?$string_output_adapter@_W@__crt_stdio_output@@@2@@__crt_stdio_output@@AAE_NXZ 1002ecfa f i libucrt:output.obj
 0001:0002dec8       ?type_case_c@?$output_processor@DV?$stream_output_adapter@D@__crt_stdio_output@@V?$format_validation_base@DV?$stream_output_adapter@D@__crt_stdio_output@@@2@@__crt_stdio_output@@AAE_NXZ 1002eec8 f i libucrt:output.obj
 0001:0002ded2       ?type_case_c@?$output_processor@DV?$stream_output_adapter@D@__crt_stdio_output@@V?$positional_parameter_base@DV?$stream_output_adapter@D@__crt_stdio_output@@@2@@__crt_stdio_output@@AAE_NXZ 1002eed2 f i libucrt:output.obj
 0001:0002dedc       ?type_case_c@?$output_processor@DV?$stream_output_adapter@D@__crt_stdio_output@@V?$standard_base@DV?$stream_output_adapter@D@__crt_stdio_output@@@2@@__crt_stdio_output@@AAE_NXZ 1002eedc f i libucrt:output.obj
 0001:0002dee6       ?type_case_c@?$output_processor@DV?$string_output_adapter@D@__crt_stdio_output@@V?$format_validation_base@DV?$string_output_adapter@D@__crt_stdio_output@@@2@@__crt_stdio_output@@AAE_NXZ 1002eee6 f i libucrt:output.obj
 0001:0002def0       ?type_case_c@?$output_processor@DV?$string_output_adapter@D@__crt_stdio_output@@V?$positional_parameter_base@DV?$string_output_adapter@D@__crt_stdio_output@@@2@@__crt_stdio_output@@AAE_NXZ 1002eef0 f i libucrt:output.obj
 0001:0002defa       ?type_case_c@?$output_processor@DV?$string_output_adapter@D@__crt_stdio_output@@V?$standard_base@DV?$string_output_adapter@D@__crt_stdio_output@@@2@@__crt_stdio_output@@AAE_NXZ 1002eefa f i libucrt:output.obj
 0001:0002df04       ?type_case_c@?$output_processor@_WV?$stream_output_adapter@_W@__crt_stdio_output@@V?$format_validation_base@_WV?$stream_output_adapter@_W@__crt_stdio_output@@@2@@__crt_stdio_output@@AAE_NXZ 1002ef04 f i libucrt:output.obj
 0001:0002df0e       ?type_case_c@?$output_processor@_WV?$stream_output_adapter@_W@__crt_stdio_output@@V?$positional_parameter_base@_WV?$stream_output_adapter@_W@__crt_stdio_output@@@2@@__crt_stdio_output@@AAE_NXZ 1002ef0e f i libucrt:output.obj
 0001:0002df18       ?type_case_c@?$output_processor@_WV?$stream_output_adapter@_W@__crt_stdio_output@@V?$standard_base@_WV?$stream_output_adapter@_W@__crt_stdio_output@@@2@@__crt_stdio_output@@AAE_NXZ 1002ef18 f i libucrt:output.obj
 0001:0002df22       ?type_case_c@?$output_processor@_WV?$string_output_adapter@_W@__crt_stdio_output@@V?$format_validation_base@_WV?$string_output_adapter@_W@__crt_stdio_output@@@2@@__crt_stdio_output@@AAE_NXZ 1002ef22 f i libucrt:output.obj
 0001:0002df2c       ?type_case_c@?$output_processor@_WV?$string_output_adapter@_W@__crt_stdio_output@@V?$positional_parameter_base@_WV?$string_output_adapter@_W@__crt_stdio_output@@@2@@__crt_stdio_output@@AAE_NXZ 1002ef2c f i libucrt:output.obj
 0001:0002df36       ?type_case_c@?$output_processor@_WV?$string_output_adapter@_W@__crt_stdio_output@@V?$standard_base@_WV?$string_output_adapter@_W@__crt_stdio_output@@@2@@__crt_stdio_output@@AAE_NXZ 1002ef36 f i libucrt:output.obj
 0001:0002df40       ?type_case_c_tchar@?$output_processor@DV?$stream_output_adapter@D@__crt_stdio_output@@V?$format_validation_base@DV?$stream_output_adapter@D@__crt_stdio_output@@@2@@__crt_stdio_output@@AAE_ND@Z 1002ef40 f i libucrt:output.obj
 0001:0002dff4       ?type_case_c_tchar@?$output_processor@DV?$stream_output_adapter@D@__crt_stdio_output@@V?$positional_parameter_base@DV?$stream_output_adapter@D@__crt_stdio_output@@@2@@__crt_stdio_output@@AAE_ND@Z 1002eff4 f i libucrt:output.obj
 0001:0002e0e4       ?type_case_c_tchar@?$output_processor@DV?$stream_output_adapter@D@__crt_stdio_output@@V?$standard_base@DV?$stream_output_adapter@D@__crt_stdio_output@@@2@@__crt_stdio_output@@AAE_ND@Z 1002f0e4 f i libucrt:output.obj
 0001:0002e198       ?type_case_c_tchar@?$output_processor@DV?$string_output_adapter@D@__crt_stdio_output@@V?$format_validation_base@DV?$string_output_adapter@D@__crt_stdio_output@@@2@@__crt_stdio_output@@AAE_ND@Z 1002f198 f i libucrt:output.obj
 0001:0002e24c       ?type_case_c_tchar@?$output_processor@DV?$string_output_adapter@D@__crt_stdio_output@@V?$positional_parameter_base@DV?$string_output_adapter@D@__crt_stdio_output@@@2@@__crt_stdio_output@@AAE_ND@Z 1002f24c f i libucrt:output.obj
 0001:0002e33c       ?type_case_c_tchar@?$output_processor@DV?$string_output_adapter@D@__crt_stdio_output@@V?$standard_base@DV?$string_output_adapter@D@__crt_stdio_output@@@2@@__crt_stdio_output@@AAE_ND@Z 1002f33c f i libucrt:output.obj
 0001:0002e3f0       ?type_case_c_tchar@?$output_processor@_WV?$stream_output_adapter@_W@__crt_stdio_output@@V?$format_validation_base@_WV?$stream_output_adapter@_W@__crt_stdio_output@@@2@@__crt_stdio_output@@AAE_N_W@Z 1002f3f0 f i libucrt:output.obj
 0001:0002e4ae       ?type_case_c_tchar@?$output_processor@_WV?$stream_output_adapter@_W@__crt_stdio_output@@V?$positional_parameter_base@_WV?$stream_output_adapter@_W@__crt_stdio_output@@@2@@__crt_stdio_output@@AAE_N_W@Z 1002f4ae f i libucrt:output.obj
 0001:0002e588       ?type_case_c_tchar@?$output_processor@_WV?$stream_output_adapter@_W@__crt_stdio_output@@V?$standard_base@_WV?$stream_output_adapter@_W@__crt_stdio_output@@@2@@__crt_stdio_output@@AAE_N_W@Z 1002f588 f i libucrt:output.obj
 0001:0002e646       ?type_case_c_tchar@?$output_processor@_WV?$string_output_adapter@_W@__crt_stdio_output@@V?$format_validation_base@_WV?$string_output_adapter@_W@__crt_stdio_output@@@2@@__crt_stdio_output@@AAE_N_W@Z 1002f646 f i libucrt:output.obj
 0001:0002e704       ?type_case_c_tchar@?$output_processor@_WV?$string_output_adapter@_W@__crt_stdio_output@@V?$positional_parameter_base@_WV?$string_output_adapter@_W@__crt_stdio_output@@@2@@__crt_stdio_output@@AAE_N_W@Z 1002f704 f i libucrt:output.obj
 0001:0002e7de       ?type_case_c_tchar@?$output_processor@_WV?$string_output_adapter@_W@__crt_stdio_output@@V?$standard_base@_WV?$string_output_adapter@_W@__crt_stdio_output@@@2@@__crt_stdio_output@@AAE_N_W@Z 1002f7de f i libucrt:output.obj
 0001:0002e89c       ?type_case_d@?$output_processor@DV?$stream_output_adapter@D@__crt_stdio_output@@V?$format_validation_base@DV?$stream_output_adapter@D@__crt_stdio_output@@@2@@__crt_stdio_output@@AAE_NXZ 1002f89c f i libucrt:output.obj
 0001:0002e8ad       ?type_case_d@?$output_processor@DV?$stream_output_adapter@D@__crt_stdio_output@@V?$positional_parameter_base@DV?$stream_output_adapter@D@__crt_stdio_output@@@2@@__crt_stdio_output@@AAE_NXZ 1002f8ad f i libucrt:output.obj
 0001:0002e8be       ?type_case_d@?$output_processor@DV?$stream_output_adapter@D@__crt_stdio_output@@V?$standard_base@DV?$stream_output_adapter@D@__crt_stdio_output@@@2@@__crt_stdio_output@@AAE_NXZ 1002f8be f i libucrt:output.obj
 0001:0002e8cf       ?type_case_d@?$output_processor@DV?$string_output_adapter@D@__crt_stdio_output@@V?$format_validation_base@DV?$string_output_adapter@D@__crt_stdio_output@@@2@@__crt_stdio_output@@AAE_NXZ 1002f8cf f i libucrt:output.obj
 0001:0002e8e0       ?type_case_d@?$output_processor@DV?$string_output_adapter@D@__crt_stdio_output@@V?$positional_parameter_base@DV?$string_output_adapter@D@__crt_stdio_output@@@2@@__crt_stdio_output@@AAE_NXZ 1002f8e0 f i libucrt:output.obj
 0001:0002e8f1       ?type_case_d@?$output_processor@DV?$string_output_adapter@D@__crt_stdio_output@@V?$standard_base@DV?$string_output_adapter@D@__crt_stdio_output@@@2@@__crt_stdio_output@@AAE_NXZ 1002f8f1 f i libucrt:output.obj
 0001:0002e902       ?type_case_d@?$output_processor@_WV?$stream_output_adapter@_W@__crt_stdio_output@@V?$format_validation_base@_WV?$stream_output_adapter@_W@__crt_stdio_output@@@2@@__crt_stdio_output@@AAE_NXZ 1002f902 f i libucrt:output.obj
 0001:0002e913       ?type_case_d@?$output_processor@_WV?$stream_output_adapter@_W@__crt_stdio_output@@V?$positional_parameter_base@_WV?$stream_output_adapter@_W@__crt_stdio_output@@@2@@__crt_stdio_output@@AAE_NXZ 1002f913 f i libucrt:output.obj
 0001:0002e924       ?type_case_d@?$output_processor@_WV?$stream_output_adapter@_W@__crt_stdio_output@@V?$standard_base@_WV?$stream_output_adapter@_W@__crt_stdio_output@@@2@@__crt_stdio_output@@AAE_NXZ 1002f924 f i libucrt:output.obj
 0001:0002e935       ?type_case_d@?$output_processor@_WV?$string_output_adapter@_W@__crt_stdio_output@@V?$format_validation_base@_WV?$string_output_adapter@_W@__crt_stdio_output@@@2@@__crt_stdio_output@@AAE_NXZ 1002f935 f i libucrt:output.obj
 0001:0002e946       ?type_case_d@?$output_processor@_WV?$string_output_adapter@_W@__crt_stdio_output@@V?$positional_parameter_base@_WV?$string_output_adapter@_W@__crt_stdio_output@@@2@@__crt_stdio_output@@AAE_NXZ 1002f946 f i libucrt:output.obj
 0001:0002e957       ?type_case_d@?$output_processor@_WV?$string_output_adapter@_W@__crt_stdio_output@@V?$standard_base@_WV?$string_output_adapter@_W@__crt_stdio_output@@@2@@__crt_stdio_output@@AAE_NXZ 1002f957 f i libucrt:output.obj
 0001:0002e968       ?type_case_integer@?$output_processor@DV?$stream_output_adapter@D@__crt_stdio_output@@V?$format_validation_base@DV?$stream_output_adapter@D@__crt_stdio_output@@@2@@__crt_stdio_output@@AAE_NI_N@Z 1002f968 f i libucrt:output.obj
 0001:0002eb04       ?type_case_integer@?$output_processor@DV?$stream_output_adapter@D@__crt_stdio_output@@V?$positional_parameter_base@DV?$stream_output_adapter@D@__crt_stdio_output@@@2@@__crt_stdio_output@@AAE_NI_N@Z 1002fb04 f i libucrt:output.obj
 0001:0002ece1       ?type_case_integer@?$output_processor@DV?$stream_output_adapter@D@__crt_stdio_output@@V?$standard_base@DV?$stream_output_adapter@D@__crt_stdio_output@@@2@@__crt_stdio_output@@AAE_NI_N@Z 1002fce1 f i libucrt:output.obj
 0001:0002ee7d       ?type_case_integer@?$output_processor@DV?$string_output_adapter@D@__crt_stdio_output@@V?$format_validation_base@DV?$string_output_adapter@D@__crt_stdio_output@@@2@@__crt_stdio_output@@AAE_NI_N@Z 1002fe7d f i libucrt:output.obj
 0001:0002f019       ?type_case_integer@?$output_processor@DV?$string_output_adapter@D@__crt_stdio_output@@V?$positional_parameter_base@DV?$string_output_adapter@D@__crt_stdio_output@@@2@@__crt_stdio_output@@AAE_NI_N@Z 10030019 f i libucrt:output.obj
 0001:0002f1f6       ?type_case_integer@?$output_processor@DV?$string_output_adapter@D@__crt_stdio_output@@V?$standard_base@DV?$string_output_adapter@D@__crt_stdio_output@@@2@@__crt_stdio_output@@AAE_NI_N@Z 100301f6 f i libucrt:output.obj
 0001:0002f392       ?type_case_integer@?$output_processor@_WV?$stream_output_adapter@_W@__crt_stdio_output@@V?$format_validation_base@_WV?$stream_output_adapter@_W@__crt_stdio_output@@@2@@__crt_stdio_output@@AAE_NI_N@Z 10030392 f i libucrt:output.obj
 0001:0002f52e       ?type_case_integer@?$output_processor@_WV?$stream_output_adapter@_W@__crt_stdio_output@@V?$positional_parameter_base@_WV?$stream_output_adapter@_W@__crt_stdio_output@@@2@@__crt_stdio_output@@AAE_NI_N@Z 1003052e f i libucrt:output.obj
 0001:0002f70b       ?type_case_integer@?$output_processor@_WV?$stream_output_adapter@_W@__crt_stdio_output@@V?$standard_base@_WV?$stream_output_adapter@_W@__crt_stdio_output@@@2@@__crt_stdio_output@@AAE_NI_N@Z 1003070b f i libucrt:output.obj
 0001:0002f8a7       ?type_case_integer@?$output_processor@_WV?$string_output_adapter@_W@__crt_stdio_output@@V?$format_validation_base@_WV?$string_output_adapter@_W@__crt_stdio_output@@@2@@__crt_stdio_output@@AAE_NI_N@Z 100308a7 f i libucrt:output.obj
 0001:0002fa43       ?type_case_integer@?$output_processor@_WV?$string_output_adapter@_W@__crt_stdio_output@@V?$positional_parameter_base@_WV?$string_output_adapter@_W@__crt_stdio_output@@@2@@__crt_stdio_output@@AAE_NI_N@Z 10030a43 f i libucrt:output.obj
 0001:0002fc20       ?type_case_integer@?$output_processor@_WV?$string_output_adapter@_W@__crt_stdio_output@@V?$standard_base@_WV?$string_output_adapter@_W@__crt_stdio_output@@@2@@__crt_stdio_output@@AAE_NI_N@Z 10030c20 f i libucrt:output.obj
 0001:0002fdbc       ?type_case_n@?$output_processor@DV?$stream_output_adapter@D@__crt_stdio_output@@V?$format_validation_base@DV?$stream_output_adapter@D@__crt_stdio_output@@@2@@__crt_stdio_output@@AAE_NXZ 10030dbc f i libucrt:output.obj
 0001:0002fe4d       ?type_case_n@?$output_processor@DV?$stream_output_adapter@D@__crt_stdio_output@@V?$positional_parameter_base@DV?$stream_output_adapter@D@__crt_stdio_output@@@2@@__crt_stdio_output@@AAE_NXZ 10030e4d f i libucrt:output.obj
 0001:0002ff0c       ?type_case_n@?$output_processor@DV?$stream_output_adapter@D@__crt_stdio_output@@V?$standard_base@DV?$stream_output_adapter@D@__crt_stdio_output@@@2@@__crt_stdio_output@@AAE_NXZ 10030f0c f i libucrt:output.obj
 0001:0002ff9d       ?type_case_n@?$output_processor@DV?$string_output_adapter@D@__crt_stdio_output@@V?$format_validation_base@DV?$string_output_adapter@D@__crt_stdio_output@@@2@@__crt_stdio_output@@AAE_NXZ 10030f9d f i libucrt:output.obj
 0001:0003002e       ?type_case_n@?$output_processor@DV?$string_output_adapter@D@__crt_stdio_output@@V?$positional_parameter_base@DV?$string_output_adapter@D@__crt_stdio_output@@@2@@__crt_stdio_output@@AAE_NXZ 1003102e f i libucrt:output.obj
 0001:000300ed       ?type_case_n@?$output_processor@DV?$string_output_adapter@D@__crt_stdio_output@@V?$standard_base@DV?$string_output_adapter@D@__crt_stdio_output@@@2@@__crt_stdio_output@@AAE_NXZ 100310ed f i libucrt:output.obj
 0001:0003017e       ?type_case_n@?$output_processor@_WV?$stream_output_adapter@_W@__crt_stdio_output@@V?$format_validation_base@_WV?$stream_output_adapter@_W@__crt_stdio_output@@@2@@__crt_stdio_output@@AAE_NXZ 1003117e f i libucrt:output.obj
 0001:0003020f       ?type_case_n@?$output_processor@_WV?$stream_output_adapter@_W@__crt_stdio_output@@V?$positional_parameter_base@_WV?$stream_output_adapter@_W@__crt_stdio_output@@@2@@__crt_stdio_output@@AAE_NXZ 1003120f f i libucrt:output.obj
 0001:000302ce       ?type_case_n@?$output_processor@_WV?$stream_output_adapter@_W@__crt_stdio_output@@V?$standard_base@_WV?$stream_output_adapter@_W@__crt_stdio_output@@@2@@__crt_stdio_output@@AAE_NXZ 100312ce f i libucrt:output.obj
 0001:0003035f       ?type_case_n@?$output_processor@_WV?$string_output_adapter@_W@__crt_stdio_output@@V?$format_validation_base@_WV?$string_output_adapter@_W@__crt_stdio_output@@@2@@__crt_stdio_output@@AAE_NXZ 1003135f f i libucrt:output.obj
 0001:000303f0       ?type_case_n@?$output_processor@_WV?$string_output_adapter@_W@__crt_stdio_output@@V?$positional_parameter_base@_WV?$string_output_adapter@_W@__crt_stdio_output@@@2@@__crt_stdio_output@@AAE_NXZ 100313f0 f i libucrt:output.obj
 0001:000304af       ?type_case_n@?$output_processor@_WV?$string_output_adapter@_W@__crt_stdio_output@@V?$standard_base@_WV?$string_output_adapter@_W@__crt_stdio_output@@@2@@__crt_stdio_output@@AAE_NXZ 100314af f i libucrt:output.obj
 0001:00030540       ?type_case_o@?$output_processor@DV?$stream_output_adapter@D@__crt_stdio_output@@V?$format_validation_base@DV?$stream_output_adapter@D@__crt_stdio_output@@@2@@__crt_stdio_output@@AAE_NXZ 10031540 f i libucrt:output.obj
 0001:00030566       ?type_case_o@?$output_processor@DV?$stream_output_adapter@D@__crt_stdio_output@@V?$positional_parameter_base@DV?$stream_output_adapter@D@__crt_stdio_output@@@2@@__crt_stdio_output@@AAE_NXZ 10031566 f i libucrt:output.obj
 0001:0003058c       ?type_case_o@?$output_processor@DV?$stream_output_adapter@D@__crt_stdio_output@@V?$standard_base@DV?$stream_output_adapter@D@__crt_stdio_output@@@2@@__crt_stdio_output@@AAE_NXZ 1003158c f i libucrt:output.obj
 0001:000305b2       ?type_case_o@?$output_processor@DV?$string_output_adapter@D@__crt_stdio_output@@V?$format_validation_base@DV?$string_output_adapter@D@__crt_stdio_output@@@2@@__crt_stdio_output@@AAE_NXZ 100315b2 f i libucrt:output.obj
 0001:000305d8       ?type_case_o@?$output_processor@DV?$string_output_adapter@D@__crt_stdio_output@@V?$positional_parameter_base@DV?$string_output_adapter@D@__crt_stdio_output@@@2@@__crt_stdio_output@@AAE_NXZ 100315d8 f i libucrt:output.obj
 0001:000305fe       ?type_case_o@?$output_processor@DV?$string_output_adapter@D@__crt_stdio_output@@V?$standard_base@DV?$string_output_adapter@D@__crt_stdio_output@@@2@@__crt_stdio_output@@AAE_NXZ 100315fe f i libucrt:output.obj
 0001:00030624       ?type_case_o@?$output_processor@_WV?$stream_output_adapter@_W@__crt_stdio_output@@V?$format_validation_base@_WV?$stream_output_adapter@_W@__crt_stdio_output@@@2@@__crt_stdio_output@@AAE_NXZ 10031624 f i libucrt:output.obj
 0001:0003064a       ?type_case_o@?$output_processor@_WV?$stream_output_adapter@_W@__crt_stdio_output@@V?$positional_parameter_base@_WV?$stream_output_adapter@_W@__crt_stdio_output@@@2@@__crt_stdio_output@@AAE_NXZ 1003164a f i libucrt:output.obj
 0001:00030670       ?type_case_o@?$output_processor@_WV?$stream_output_adapter@_W@__crt_stdio_output@@V?$standard_base@_WV?$stream_output_adapter@_W@__crt_stdio_output@@@2@@__crt_stdio_output@@AAE_NXZ 10031670 f i libucrt:output.obj
 0001:00030696       ?type_case_o@?$output_processor@_WV?$string_output_adapter@_W@__crt_stdio_output@@V?$format_validation_base@_WV?$string_output_adapter@_W@__crt_stdio_output@@@2@@__crt_stdio_output@@AAE_NXZ 10031696 f i libucrt:output.obj
 0001:000306bc       ?type_case_o@?$output_processor@_WV?$string_output_adapter@_W@__crt_stdio_output@@V?$positional_parameter_base@_WV?$string_output_adapter@_W@__crt_stdio_output@@@2@@__crt_stdio_output@@AAE_NXZ 100316bc f i libucrt:output.obj
 0001:000306e2       ?type_case_o@?$output_processor@_WV?$string_output_adapter@_W@__crt_stdio_output@@V?$standard_base@_WV?$string_output_adapter@_W@__crt_stdio_output@@@2@@__crt_stdio_output@@AAE_NXZ 100316e2 f i libucrt:output.obj
 0001:00030708       ?type_case_p@?$output_processor@DV?$stream_output_adapter@D@__crt_stdio_output@@V?$format_validation_base@DV?$stream_output_adapter@D@__crt_stdio_output@@@2@@__crt_stdio_output@@AAE_NXZ 10031708 f i libucrt:output.obj
 0001:00030726       ?type_case_p@?$output_processor@DV?$stream_output_adapter@D@__crt_stdio_output@@V?$positional_parameter_base@DV?$stream_output_adapter@D@__crt_stdio_output@@@2@@__crt_stdio_output@@AAE_NXZ 10031726 f i libucrt:output.obj
 0001:00030744       ?type_case_p@?$output_processor@DV?$stream_output_adapter@D@__crt_stdio_output@@V?$standard_base@DV?$stream_output_adapter@D@__crt_stdio_output@@@2@@__crt_stdio_output@@AAE_NXZ 10031744 f i libucrt:output.obj
 0001:00030762       ?type_case_p@?$output_processor@DV?$string_output_adapter@D@__crt_stdio_output@@V?$format_validation_base@DV?$string_output_adapter@D@__crt_stdio_output@@@2@@__crt_stdio_output@@AAE_NXZ 10031762 f i libucrt:output.obj
 0001:00030780       ?type_case_p@?$output_processor@DV?$string_output_adapter@D@__crt_stdio_output@@V?$positional_parameter_base@DV?$string_output_adapter@D@__crt_stdio_output@@@2@@__crt_stdio_output@@AAE_NXZ 10031780 f i libucrt:output.obj
 0001:0003079e       ?type_case_p@?$output_processor@DV?$string_output_adapter@D@__crt_stdio_output@@V?$standard_base@DV?$string_output_adapter@D@__crt_stdio_output@@@2@@__crt_stdio_output@@AAE_NXZ 1003179e f i libucrt:output.obj
 0001:000307bc       ?type_case_p@?$output_processor@_WV?$stream_output_adapter@_W@__crt_stdio_output@@V?$format_validation_base@_WV?$stream_output_adapter@_W@__crt_stdio_output@@@2@@__crt_stdio_output@@AAE_NXZ 100317bc f i libucrt:output.obj
 0001:000307da       ?type_case_p@?$output_processor@_WV?$stream_output_adapter@_W@__crt_stdio_output@@V?$positional_parameter_base@_WV?$stream_output_adapter@_W@__crt_stdio_output@@@2@@__crt_stdio_output@@AAE_NXZ 100317da f i libucrt:output.obj
 0001:000307f8       ?type_case_p@?$output_processor@_WV?$stream_output_adapter@_W@__crt_stdio_output@@V?$standard_base@_WV?$stream_output_adapter@_W@__crt_stdio_output@@@2@@__crt_stdio_output@@AAE_NXZ 100317f8 f i libucrt:output.obj
 0001:00030816       ?type_case_p@?$output_processor@_WV?$string_output_adapter@_W@__crt_stdio_output@@V?$format_validation_base@_WV?$string_output_adapter@_W@__crt_stdio_output@@@2@@__crt_stdio_output@@AAE_NXZ 10031816 f i libucrt:output.obj
 0001:00030834       ?type_case_p@?$output_processor@_WV?$string_output_adapter@_W@__crt_stdio_output@@V?$positional_parameter_base@_WV?$string_output_adapter@_W@__crt_stdio_output@@@2@@__crt_stdio_output@@AAE_NXZ 10031834 f i libucrt:output.obj
 0001:00030852       ?type_case_p@?$output_processor@_WV?$string_output_adapter@_W@__crt_stdio_output@@V?$standard_base@_WV?$string_output_adapter@_W@__crt_stdio_output@@@2@@__crt_stdio_output@@AAE_NXZ 10031852 f i libucrt:output.obj
 0001:00030870       ?type_case_s@?$output_processor@DV?$stream_output_adapter@D@__crt_stdio_output@@V?$format_validation_base@DV?$stream_output_adapter@D@__crt_stdio_output@@@2@@__crt_stdio_output@@AAE_NXZ 10031870 f i libucrt:output.obj
 0001:000308ff       ?type_case_s@?$output_processor@DV?$stream_output_adapter@D@__crt_stdio_output@@V?$positional_parameter_base@DV?$stream_output_adapter@D@__crt_stdio_output@@@2@@__crt_stdio_output@@AAE_NXZ 100318ff f i libucrt:output.obj
 0001:0003099a       ?type_case_s@?$output_processor@DV?$stream_output_adapter@D@__crt_stdio_output@@V?$standard_base@DV?$stream_output_adapter@D@__crt_stdio_output@@@2@@__crt_stdio_output@@AAE_NXZ 1003199a f i libucrt:output.obj
 0001:00030a29       ?type_case_s@?$output_processor@DV?$string_output_adapter@D@__crt_stdio_output@@V?$format_validation_base@DV?$string_output_adapter@D@__crt_stdio_output@@@2@@__crt_stdio_output@@AAE_NXZ 10031a29 f i libucrt:output.obj
 0001:00030ab8       ?type_case_s@?$output_processor@DV?$string_output_adapter@D@__crt_stdio_output@@V?$positional_parameter_base@DV?$string_output_adapter@D@__crt_stdio_output@@@2@@__crt_stdio_output@@AAE_NXZ 10031ab8 f i libucrt:output.obj
 0001:00030b53       ?type_case_s@?$output_processor@DV?$string_output_adapter@D@__crt_stdio_output@@V?$standard_base@DV?$string_output_adapter@D@__crt_stdio_output@@@2@@__crt_stdio_output@@AAE_NXZ 10031b53 f i libucrt:output.obj
 0001:00030be2       ?type_case_s@?$output_processor@_WV?$stream_output_adapter@_W@__crt_stdio_output@@V?$format_validation_base@_WV?$stream_output_adapter@_W@__crt_stdio_output@@@2@@__crt_stdio_output@@AAE_NXZ 10031be2 f i libucrt:output.obj
 0001:00030c73       ?type_case_s@?$output_processor@_WV?$stream_output_adapter@_W@__crt_stdio_output@@V?$positional_parameter_base@_WV?$stream_output_adapter@_W@__crt_stdio_output@@@2@@__crt_stdio_output@@AAE_NXZ 10031c73 f i libucrt:output.obj
 0001:00030d10       ?type_case_s@?$output_processor@_WV?$stream_output_adapter@_W@__crt_stdio_output@@V?$standard_base@_WV?$stream_output_adapter@_W@__crt_stdio_output@@@2@@__crt_stdio_output@@AAE_NXZ 10031d10 f i libucrt:output.obj
 0001:00030da1       ?type_case_s@?$output_processor@_WV?$string_output_adapter@_W@__crt_stdio_output@@V?$format_validation_base@_WV?$string_output_adapter@_W@__crt_stdio_output@@@2@@__crt_stdio_output@@AAE_NXZ 10031da1 f i libucrt:output.obj
 0001:00030e32       ?type_case_s@?$output_processor@_WV?$string_output_adapter@_W@__crt_stdio_output@@V?$positional_parameter_base@_WV?$string_output_adapter@_W@__crt_stdio_output@@@2@@__crt_stdio_output@@AAE_NXZ 10031e32 f i libucrt:output.obj
 0001:00030ecf       ?type_case_s@?$output_processor@_WV?$string_output_adapter@_W@__crt_stdio_output@@V?$standard_base@_WV?$string_output_adapter@_W@__crt_stdio_output@@@2@@__crt_stdio_output@@AAE_NXZ 10031ecf f i libucrt:output.obj
 0001:00030f60       ?type_case_s_compute_narrow_string_length@?$output_processor@DV?$stream_output_adapter@D@__crt_stdio_output@@V?$format_validation_base@DV?$stream_output_adapter@D@__crt_stdio_output@@@2@@__crt_stdio_output@@ABEHHD@Z 10031f60 f i libucrt:output.obj
 0001:00030f7b       ?type_case_s_compute_narrow_string_length@?$output_processor@DV?$stream_output_adapter@D@__crt_stdio_output@@V?$positional_parameter_base@DV?$stream_output_adapter@D@__crt_stdio_output@@@2@@__crt_stdio_output@@ABEHHD@Z 10031f7b f i libucrt:output.obj
 0001:00030f96       ?type_case_s_compute_narrow_string_length@?$output_processor@DV?$stream_output_adapter@D@__crt_stdio_output@@V?$standard_base@DV?$stream_output_adapter@D@__crt_stdio_output@@@2@@__crt_stdio_output@@ABEHHD@Z 10031f96 f i libucrt:output.obj
 0001:00030fb1       ?type_case_s_compute_narrow_string_length@?$output_processor@DV?$string_output_adapter@D@__crt_stdio_output@@V?$format_validation_base@DV?$string_output_adapter@D@__crt_stdio_output@@@2@@__crt_stdio_output@@ABEHHD@Z 10031fb1 f i libucrt:output.obj
 0001:00030fcc       ?type_case_s_compute_narrow_string_length@?$output_processor@DV?$string_output_adapter@D@__crt_stdio_output@@V?$positional_parameter_base@DV?$string_output_adapter@D@__crt_stdio_output@@@2@@__crt_stdio_output@@ABEHHD@Z 10031fcc f i libucrt:output.obj
 0001:00030fe7       ?type_case_s_compute_narrow_string_length@?$output_processor@DV?$string_output_adapter@D@__crt_stdio_output@@V?$standard_base@DV?$string_output_adapter@D@__crt_stdio_output@@@2@@__crt_stdio_output@@ABEHHD@Z 10031fe7 f i libucrt:output.obj
 0001:00031002       ?type_case_s_compute_narrow_string_length@?$output_processor@_WV?$stream_output_adapter@_W@__crt_stdio_output@@V?$format_validation_base@_WV?$stream_output_adapter@_W@__crt_stdio_output@@@2@@__crt_stdio_output@@ABEHH_W@Z 10032002 f i libucrt:output.obj
 0001:00031052       ?type_case_s_compute_narrow_string_length@?$output_processor@_WV?$stream_output_adapter@_W@__crt_stdio_output@@V?$positional_parameter_base@_WV?$stream_output_adapter@_W@__crt_stdio_output@@@2@@__crt_stdio_output@@ABEHH_W@Z 10032052 f i libucrt:output.obj
 0001:000310a2       ?type_case_s_compute_narrow_string_length@?$output_processor@_WV?$stream_output_adapter@_W@__crt_stdio_output@@V?$standard_base@_WV?$stream_output_adapter@_W@__crt_stdio_output@@@2@@__crt_stdio_output@@ABEHH_W@Z 100320a2 f i libucrt:output.obj
 0001:000310f2       ?type_case_s_compute_narrow_string_length@?$output_processor@_WV?$string_output_adapter@_W@__crt_stdio_output@@V?$format_validation_base@_WV?$string_output_adapter@_W@__crt_stdio_output@@@2@@__crt_stdio_output@@ABEHH_W@Z 100320f2 f i libucrt:output.obj
 0001:00031142       ?type_case_s_compute_narrow_string_length@?$output_processor@_WV?$string_output_adapter@_W@__crt_stdio_output@@V?$positional_parameter_base@_WV?$string_output_adapter@_W@__crt_stdio_output@@@2@@__crt_stdio_output@@ABEHH_W@Z 10032142 f i libucrt:output.obj
 0001:00031192       ?type_case_s_compute_narrow_string_length@?$output_processor@_WV?$string_output_adapter@_W@__crt_stdio_output@@V?$standard_base@_WV?$string_output_adapter@_W@__crt_stdio_output@@@2@@__crt_stdio_output@@ABEHH_W@Z 10032192 f i libucrt:output.obj
 0001:000311e2       ?type_case_u@?$output_processor@DV?$stream_output_adapter@D@__crt_stdio_output@@V?$format_validation_base@DV?$stream_output_adapter@D@__crt_stdio_output@@@2@@__crt_stdio_output@@AAE_NXZ 100321e2 f i libucrt:output.obj
 0001:000311ee       ?type_case_u@?$output_processor@DV?$stream_output_adapter@D@__crt_stdio_output@@V?$positional_parameter_base@DV?$stream_output_adapter@D@__crt_stdio_output@@@2@@__crt_stdio_output@@AAE_NXZ 100321ee f i libucrt:output.obj
 0001:000311fa       ?type_case_u@?$output_processor@DV?$stream_output_adapter@D@__crt_stdio_output@@V?$standard_base@DV?$stream_output_adapter@D@__crt_stdio_output@@@2@@__crt_stdio_output@@AAE_NXZ 100321fa f i libucrt:output.obj
 0001:00031206       ?type_case_u@?$output_processor@DV?$string_output_adapter@D@__crt_stdio_output@@V?$format_validation_base@DV?$string_output_adapter@D@__crt_stdio_output@@@2@@__crt_stdio_output@@AAE_NXZ 10032206 f i libucrt:output.obj
 0001:00031212       ?type_case_u@?$output_processor@DV?$string_output_adapter@D@__crt_stdio_output@@V?$positional_parameter_base@DV?$string_output_adapter@D@__crt_stdio_output@@@2@@__crt_stdio_output@@AAE_NXZ 10032212 f i libucrt:output.obj
 0001:0003121e       ?type_case_u@?$output_processor@DV?$string_output_adapter@D@__crt_stdio_output@@V?$standard_base@DV?$string_output_adapter@D@__crt_stdio_output@@@2@@__crt_stdio_output@@AAE_NXZ 1003221e f i libucrt:output.obj
 0001:0003122a       ?type_case_u@?$output_processor@_WV?$stream_output_adapter@_W@__crt_stdio_output@@V?$format_validation_base@_WV?$stream_output_adapter@_W@__crt_stdio_output@@@2@@__crt_stdio_output@@AAE_NXZ 1003222a f i libucrt:output.obj
 0001:00031236       ?type_case_u@?$output_processor@_WV?$stream_output_adapter@_W@__crt_stdio_output@@V?$positional_parameter_base@_WV?$stream_output_adapter@_W@__crt_stdio_output@@@2@@__crt_stdio_output@@AAE_NXZ 10032236 f i libucrt:output.obj
 0001:00031242       ?type_case_u@?$output_processor@_WV?$stream_output_adapter@_W@__crt_stdio_output@@V?$standard_base@_WV?$stream_output_adapter@_W@__crt_stdio_output@@@2@@__crt_stdio_output@@AAE_NXZ 10032242 f i libucrt:output.obj
 0001:0003124e       ?type_case_u@?$output_processor@_WV?$string_output_adapter@_W@__crt_stdio_output@@V?$format_validation_base@_WV?$string_output_adapter@_W@__crt_stdio_output@@@2@@__crt_stdio_output@@AAE_NXZ 1003224e f i libucrt:output.obj
 0001:0003125a       ?type_case_u@?$output_processor@_WV?$string_output_adapter@_W@__crt_stdio_output@@V?$positional_parameter_base@_WV?$string_output_adapter@_W@__crt_stdio_output@@@2@@__crt_stdio_output@@AAE_NXZ 1003225a f i libucrt:output.obj
 0001:00031266       ?type_case_u@?$output_processor@_WV?$string_output_adapter@_W@__crt_stdio_output@@V?$standard_base@_WV?$string_output_adapter@_W@__crt_stdio_output@@@2@@__crt_stdio_output@@AAE_NXZ 10032266 f i libucrt:output.obj
 0001:00031272       ?type_case_x@?$output_processor@DV?$stream_output_adapter@D@__crt_stdio_output@@V?$format_validation_base@DV?$stream_output_adapter@D@__crt_stdio_output@@@2@@__crt_stdio_output@@AAE_NXZ 10032272 f i libucrt:output.obj
 0001:0003127e       ?type_case_x@?$output_processor@DV?$stream_output_adapter@D@__crt_stdio_output@@V?$positional_parameter_base@DV?$stream_output_adapter@D@__crt_stdio_output@@@2@@__crt_stdio_output@@AAE_NXZ 1003227e f i libucrt:output.obj
 0001:0003128a       ?type_case_x@?$output_processor@DV?$stream_output_adapter@D@__crt_stdio_output@@V?$standard_base@DV?$stream_output_adapter@D@__crt_stdio_output@@@2@@__crt_stdio_output@@AAE_NXZ 1003228a f i libucrt:output.obj
 0001:00031296       ?type_case_x@?$output_processor@DV?$string_output_adapter@D@__crt_stdio_output@@V?$format_validation_base@DV?$string_output_adapter@D@__crt_stdio_output@@@2@@__crt_stdio_output@@AAE_NXZ 10032296 f i libucrt:output.obj
 0001:000312a2       ?type_case_x@?$output_processor@DV?$string_output_adapter@D@__crt_stdio_output@@V?$positional_parameter_base@DV?$string_output_adapter@D@__crt_stdio_output@@@2@@__crt_stdio_output@@AAE_NXZ 100322a2 f i libucrt:output.obj
 0001:000312ae       ?type_case_x@?$output_processor@DV?$string_output_adapter@D@__crt_stdio_output@@V?$standard_base@DV?$string_output_adapter@D@__crt_stdio_output@@@2@@__crt_stdio_output@@AAE_NXZ 100322ae f i libucrt:output.obj
 0001:000312ba       ?type_case_x@?$output_processor@_WV?$stream_output_adapter@_W@__crt_stdio_output@@V?$format_validation_base@_WV?$stream_output_adapter@_W@__crt_stdio_output@@@2@@__crt_stdio_output@@AAE_NXZ 100322ba f i libucrt:output.obj
 0001:000312c6       ?type_case_x@?$output_processor@_WV?$stream_output_adapter@_W@__crt_stdio_output@@V?$positional_parameter_base@_WV?$stream_output_adapter@_W@__crt_stdio_output@@@2@@__crt_stdio_output@@AAE_NXZ 100322c6 f i libucrt:output.obj
 0001:000312d2       ?type_case_x@?$output_processor@_WV?$stream_output_adapter@_W@__crt_stdio_output@@V?$standard_base@_WV?$stream_output_adapter@_W@__crt_stdio_output@@@2@@__crt_stdio_output@@AAE_NXZ 100322d2 f i libucrt:output.obj
 0001:000312de       ?type_case_x@?$output_processor@_WV?$string_output_adapter@_W@__crt_stdio_output@@V?$format_validation_base@_WV?$string_output_adapter@_W@__crt_stdio_output@@@2@@__crt_stdio_output@@AAE_NXZ 100322de f i libucrt:output.obj
 0001:000312ea       ?type_case_x@?$output_processor@_WV?$string_output_adapter@_W@__crt_stdio_output@@V?$positional_parameter_base@_WV?$string_output_adapter@_W@__crt_stdio_output@@@2@@__crt_stdio_output@@AAE_NXZ 100322ea f i libucrt:output.obj
 0001:000312f6       ?type_case_x@?$output_processor@_WV?$string_output_adapter@_W@__crt_stdio_output@@V?$standard_base@_WV?$string_output_adapter@_W@__crt_stdio_output@@@2@@__crt_stdio_output@@AAE_NXZ 100322f6 f i libucrt:output.obj
 0001:00031302       ?unset_flag@?$output_processor@DV?$stream_output_adapter@D@__crt_stdio_output@@V?$format_validation_base@DV?$stream_output_adapter@D@__crt_stdio_output@@@2@@__crt_stdio_output@@AAEXI@Z 10032302 f i libucrt:output.obj
 0001:00031317       ?unset_flag@?$output_processor@DV?$stream_output_adapter@D@__crt_stdio_output@@V?$positional_parameter_base@DV?$stream_output_adapter@D@__crt_stdio_output@@@2@@__crt_stdio_output@@AAEXI@Z 10032317 f i libucrt:output.obj
 0001:0003132c       ?unset_flag@?$output_processor@DV?$stream_output_adapter@D@__crt_stdio_output@@V?$standard_base@DV?$stream_output_adapter@D@__crt_stdio_output@@@2@@__crt_stdio_output@@AAEXI@Z 1003232c f i libucrt:output.obj
 0001:00031341       ?unset_flag@?$output_processor@DV?$string_output_adapter@D@__crt_stdio_output@@V?$format_validation_base@DV?$string_output_adapter@D@__crt_stdio_output@@@2@@__crt_stdio_output@@AAEXI@Z 10032341 f i libucrt:output.obj
 0001:00031356       ?unset_flag@?$output_processor@DV?$string_output_adapter@D@__crt_stdio_output@@V?$positional_parameter_base@DV?$string_output_adapter@D@__crt_stdio_output@@@2@@__crt_stdio_output@@AAEXI@Z 10032356 f i libucrt:output.obj
 0001:0003136b       ?unset_flag@?$output_processor@DV?$string_output_adapter@D@__crt_stdio_output@@V?$standard_base@DV?$string_output_adapter@D@__crt_stdio_output@@@2@@__crt_stdio_output@@AAEXI@Z 1003236b f i libucrt:output.obj
 0001:00031380       ?unset_flag@?$output_processor@_WV?$stream_output_adapter@_W@__crt_stdio_output@@V?$format_validation_base@_WV?$stream_output_adapter@_W@__crt_stdio_output@@@2@@__crt_stdio_output@@AAEXI@Z 10032380 f i libucrt:output.obj
 0001:00031395       ?unset_flag@?$output_processor@_WV?$stream_output_adapter@_W@__crt_stdio_output@@V?$positional_parameter_base@_WV?$stream_output_adapter@_W@__crt_stdio_output@@@2@@__crt_stdio_output@@AAEXI@Z 10032395 f i libucrt:output.obj
 0001:000313aa       ?unset_flag@?$output_processor@_WV?$stream_output_adapter@_W@__crt_stdio_output@@V?$standard_base@_WV?$stream_output_adapter@_W@__crt_stdio_output@@@2@@__crt_stdio_output@@AAEXI@Z 100323aa f i libucrt:output.obj
 0001:000313bf       ?unset_flag@?$output_processor@_WV?$string_output_adapter@_W@__crt_stdio_output@@V?$format_validation_base@_WV?$string_output_adapter@_W@__crt_stdio_output@@@2@@__crt_stdio_output@@AAEXI@Z 100323bf f i libucrt:output.obj
 0001:000313d4       ?unset_flag@?$output_processor@_WV?$string_output_adapter@_W@__crt_stdio_output@@V?$positional_parameter_base@_WV?$string_output_adapter@_W@__crt_stdio_output@@@2@@__crt_stdio_output@@AAEXI@Z 100323d4 f i libucrt:output.obj
 0001:000313e9       ?unset_flag@?$output_processor@_WV?$string_output_adapter@_W@__crt_stdio_output@@V?$standard_base@_WV?$string_output_adapter@_W@__crt_stdio_output@@@2@@__crt_stdio_output@@AAEXI@Z 100323e9 f i libucrt:output.obj
 0001:000313fe       ?update_field_width@?$positional_parameter_base@DV?$stream_output_adapter@D@__crt_stdio_output@@@__crt_stdio_output@@IAE_NXZ 100323fe f i libucrt:output.obj
 0001:000314e1       ?update_field_width@?$positional_parameter_base@DV?$string_output_adapter@D@__crt_stdio_output@@@__crt_stdio_output@@IAE_NXZ 100324e1 f i libucrt:output.obj
 0001:000315c4       ?update_field_width@?$positional_parameter_base@_WV?$stream_output_adapter@_W@__crt_stdio_output@@@__crt_stdio_output@@IAE_NXZ 100325c4 f i libucrt:output.obj
 0001:000316a8       ?update_field_width@?$positional_parameter_base@_WV?$string_output_adapter@_W@__crt_stdio_output@@@__crt_stdio_output@@IAE_NXZ 100326a8 f i libucrt:output.obj
 0001:0003178c       ?update_field_width@?$standard_base@DV?$stream_output_adapter@D@__crt_stdio_output@@@__crt_stdio_output@@IAE_NXZ 1003278c f i libucrt:output.obj
 0001:000317a0       ?update_field_width@?$standard_base@DV?$string_output_adapter@D@__crt_stdio_output@@@__crt_stdio_output@@IAE_NXZ 100327a0 f i libucrt:output.obj
 0001:000317b4       ?update_field_width@?$standard_base@_WV?$stream_output_adapter@_W@__crt_stdio_output@@@__crt_stdio_output@@IAE_NXZ 100327b4 f i libucrt:output.obj
 0001:000317c8       ?update_field_width@?$standard_base@_WV?$string_output_adapter@_W@__crt_stdio_output@@@__crt_stdio_output@@IAE_NXZ 100327c8 f i libucrt:output.obj
 0001:000317dc       ?update_precision@?$positional_parameter_base@DV?$stream_output_adapter@D@__crt_stdio_output@@@__crt_stdio_output@@IAE_NXZ 100327dc f i libucrt:output.obj
 0001:000318bf       ?update_precision@?$positional_parameter_base@DV?$string_output_adapter@D@__crt_stdio_output@@@__crt_stdio_output@@IAE_NXZ 100328bf f i libucrt:output.obj
 0001:000319a2       ?update_precision@?$positional_parameter_base@_WV?$stream_output_adapter@_W@__crt_stdio_output@@@__crt_stdio_output@@IAE_NXZ 100329a2 f i libucrt:output.obj
 0001:00031a86       ?update_precision@?$positional_parameter_base@_WV?$string_output_adapter@_W@__crt_stdio_output@@@__crt_stdio_output@@IAE_NXZ 10032a86 f i libucrt:output.obj
 0001:00031b6a       ?update_precision@?$standard_base@DV?$stream_output_adapter@D@__crt_stdio_output@@@__crt_stdio_output@@IAE_NXZ 10032b6a f i libucrt:output.obj
 0001:00031b7e       ?update_precision@?$standard_base@DV?$string_output_adapter@D@__crt_stdio_output@@@__crt_stdio_output@@IAE_NXZ 10032b7e f i libucrt:output.obj
 0001:00031b92       ?update_precision@?$standard_base@_WV?$stream_output_adapter@_W@__crt_stdio_output@@@__crt_stdio_output@@IAE_NXZ 10032b92 f i libucrt:output.obj
 0001:00031ba6       ?update_precision@?$standard_base@_WV?$string_output_adapter@_W@__crt_stdio_output@@@__crt_stdio_output@@IAE_NXZ 10032ba6 f i libucrt:output.obj
 0001:00031bba       ?valid@__crt_stdio_stream@@QBE_NXZ 10032bba f i libucrt:output.obj
 0001:00031bc4       ?validate@?$stream_output_adapter@D@__crt_stdio_output@@QBE_NXZ 10032bc4 f i libucrt:output.obj
 0001:00031bed       ?validate@?$stream_output_adapter@_W@__crt_stdio_output@@QBE_NXZ 10032bed f i libucrt:output.obj
 0001:00031c0e       ?validate@?$string_output_adapter@D@__crt_stdio_output@@QBE_NXZ 10032c0e f i libucrt:output.obj
 0001:00031c2f       ?validate@?$string_output_adapter@_W@__crt_stdio_output@@QBE_NXZ 10032c2f f i libucrt:output.obj
 0001:00031c50       ?validate_and_store_parameter_data@?$positional_parameter_base@DV?$stream_output_adapter@D@__crt_stdio_output@@@__crt_stdio_output@@AAE_NAAUparameter_data@12@W4parameter_type@12@DW4length_modifier@2@@Z 10032c50 f i libucrt:output.obj
 0001:00031cad       ?validate_and_store_parameter_data@?$positional_parameter_base@DV?$string_output_adapter@D@__crt_stdio_output@@@__crt_stdio_output@@AAE_NAAUparameter_data@12@W4parameter_type@12@DW4length_modifier@2@@Z 10032cad f i libucrt:output.obj
 0001:00031d0a       ?validate_and_store_parameter_data@?$positional_parameter_base@_WV?$stream_output_adapter@_W@__crt_stdio_output@@@__crt_stdio_output@@AAE_NAAUparameter_data@12@W4parameter_type@12@_WW4length_modifier@2@@Z 10032d0a f i libucrt:output.obj
 0001:00031d6a       ?validate_and_store_parameter_data@?$positional_parameter_base@_WV?$string_output_adapter@_W@__crt_stdio_output@@@__crt_stdio_output@@AAE_NAAUparameter_data@12@W4parameter_type@12@_WW4length_modifier@2@@Z 10032d6a f i libucrt:output.obj
 0001:00031dca       ?validate_and_update_state_at_beginning_of_format_character@?$positional_parameter_base@DV?$stream_output_adapter@D@__crt_stdio_output@@@__crt_stdio_output@@IAE_NXZ 10032dca f i libucrt:output.obj
 0001:00031f00       ?validate_and_update_state_at_beginning_of_format_character@?$positional_parameter_base@DV?$string_output_adapter@D@__crt_stdio_output@@@__crt_stdio_output@@IAE_NXZ 10032f00 f i libucrt:output.obj
 0001:00032036       ?validate_and_update_state_at_beginning_of_format_character@?$positional_parameter_base@_WV?$stream_output_adapter@_W@__crt_stdio_output@@@__crt_stdio_output@@IAE_NXZ 10033036 f i libucrt:output.obj
 0001:00032178       ?validate_and_update_state_at_beginning_of_format_character@?$positional_parameter_base@_WV?$string_output_adapter@_W@__crt_stdio_output@@@__crt_stdio_output@@IAE_NXZ 10033178 f i libucrt:output.obj
 0001:000322ba       ?validate_and_update_state_at_beginning_of_format_character@?$standard_base@DV?$stream_output_adapter@D@__crt_stdio_output@@@__crt_stdio_output@@IAE_NXZ 100332ba f i libucrt:output.obj
 0001:000322bd       ?validate_and_update_state_at_beginning_of_format_character@?$standard_base@DV?$string_output_adapter@D@__crt_stdio_output@@@__crt_stdio_output@@IAE_NXZ 100332bd f i libucrt:output.obj
 0001:000322c0       ?validate_and_update_state_at_beginning_of_format_character@?$standard_base@_WV?$stream_output_adapter@_W@__crt_stdio_output@@@__crt_stdio_output@@IAE_NXZ 100332c0 f i libucrt:output.obj
 0001:000322c3       ?validate_and_update_state_at_beginning_of_format_character@?$standard_base@_WV?$string_output_adapter@_W@__crt_stdio_output@@@__crt_stdio_output@@IAE_NXZ 100332c3 f i libucrt:output.obj
 0001:000322c6       ?validate_and_update_state_at_end_of_format_string@?$format_validation_base@DV?$stream_output_adapter@D@__crt_stdio_output@@@__crt_stdio_output@@IBE_NXZ 100332c6 f i libucrt:output.obj
 0001:000322f0       ?validate_and_update_state_at_end_of_format_string@?$format_validation_base@DV?$string_output_adapter@D@__crt_stdio_output@@@__crt_stdio_output@@IBE_NXZ 100332f0 f i libucrt:output.obj
 0001:0003231a       ?validate_and_update_state_at_end_of_format_string@?$format_validation_base@_WV?$stream_output_adapter@_W@__crt_stdio_output@@@__crt_stdio_output@@IBE_NXZ 1003331a f i libucrt:output.obj
 0001:00032344       ?validate_and_update_state_at_end_of_format_string@?$format_validation_base@_WV?$string_output_adapter@_W@__crt_stdio_output@@@__crt_stdio_output@@IBE_NXZ 10033344 f i libucrt:output.obj
 0001:0003236e       ?validate_and_update_state_at_end_of_format_string@?$positional_parameter_base@DV?$stream_output_adapter@D@__crt_stdio_output@@@__crt_stdio_output@@IAE_NXZ 1003336e f i libucrt:output.obj
 0001:0003240e       ?validate_and_update_state_at_end_of_format_string@?$positional_parameter_base@DV?$string_output_adapter@D@__crt_stdio_output@@@__crt_stdio_output@@IAE_NXZ 1003340e f i libucrt:output.obj
 0001:000324ae       ?validate_and_update_state_at_end_of_format_string@?$positional_parameter_base@_WV?$stream_output_adapter@_W@__crt_stdio_output@@@__crt_stdio_output@@IAE_NXZ 100334ae f i libucrt:output.obj
 0001:0003254e       ?validate_and_update_state_at_end_of_format_string@?$positional_parameter_base@_WV?$string_output_adapter@_W@__crt_stdio_output@@@__crt_stdio_output@@IAE_NXZ 1003354e f i libucrt:output.obj
 0001:000325ee       ?validate_and_update_state_at_end_of_format_string@?$standard_base@DV?$stream_output_adapter@D@__crt_stdio_output@@@__crt_stdio_output@@IBE_NXZ 100335ee f i libucrt:output.obj
 0001:000325f1       ?validate_and_update_state_at_end_of_format_string@?$standard_base@DV?$string_output_adapter@D@__crt_stdio_output@@@__crt_stdio_output@@IBE_NXZ 100335f1 f i libucrt:output.obj
 0001:000325f4       ?validate_and_update_state_at_end_of_format_string@?$standard_base@_WV?$stream_output_adapter@_W@__crt_stdio_output@@@__crt_stdio_output@@IBE_NXZ 100335f4 f i libucrt:output.obj
 0001:000325f7       ?validate_and_update_state_at_end_of_format_string@?$standard_base@_WV?$string_output_adapter@_W@__crt_stdio_output@@@__crt_stdio_output@@IBE_NXZ 100335f7 f i libucrt:output.obj
 0001:000325fa       ?validate_state_for_type_case_a@?$positional_parameter_base@DV?$stream_output_adapter@D@__crt_stdio_output@@@__crt_stdio_output@@IAE_NXZ 100335fa f i libucrt:output.obj
 0001:00032661       ?validate_state_for_type_case_a@?$positional_parameter_base@DV?$string_output_adapter@D@__crt_stdio_output@@@__crt_stdio_output@@IAE_NXZ 10033661 f i libucrt:output.obj
 0001:000326c8       ?validate_state_for_type_case_a@?$positional_parameter_base@_WV?$stream_output_adapter@_W@__crt_stdio_output@@@__crt_stdio_output@@IAE_NXZ 100336c8 f i libucrt:output.obj
 0001:0003272f       ?validate_state_for_type_case_a@?$positional_parameter_base@_WV?$string_output_adapter@_W@__crt_stdio_output@@@__crt_stdio_output@@IAE_NXZ 1003372f f i libucrt:output.obj
 0001:00032796       ?validate_state_for_type_case_a@?$standard_base@DV?$stream_output_adapter@D@__crt_stdio_output@@@__crt_stdio_output@@IBE_NXZ 10033796 f i libucrt:output.obj
 0001:00032799       ?validate_state_for_type_case_a@?$standard_base@DV?$string_output_adapter@D@__crt_stdio_output@@@__crt_stdio_output@@IBE_NXZ 10033799 f i libucrt:output.obj
 0001:0003279c       ?validate_state_for_type_case_a@?$standard_base@_WV?$stream_output_adapter@_W@__crt_stdio_output@@@__crt_stdio_output@@IBE_NXZ 1003379c f i libucrt:output.obj
 0001:0003279f       ?validate_state_for_type_case_a@?$standard_base@_WV?$string_output_adapter@_W@__crt_stdio_output@@@__crt_stdio_output@@IBE_NXZ 1003379f f i libucrt:output.obj
 0001:000327a2       ?validate_stream_is_ansi_if_required@?$__acrt_stdio_char_traits@D@@SA_NQAU_iobuf@@@Z 100337a2 f i libucrt:output.obj
 0001:00032844       ?validate_stream_is_ansi_if_required@?$__acrt_stdio_char_traits@_W@@SA_NQAU_iobuf@@@Z 10033844 f i libucrt:output.obj
 0001:00032847       ?wide_null_string@?$output_processor@DV?$stream_output_adapter@D@__crt_stdio_output@@V?$format_validation_base@DV?$stream_output_adapter@D@__crt_stdio_output@@@2@@__crt_stdio_output@@CAPA_WXZ 10033847 f i libucrt:output.obj
 0001:0003284d       ?wide_null_string@?$output_processor@DV?$stream_output_adapter@D@__crt_stdio_output@@V?$positional_parameter_base@DV?$stream_output_adapter@D@__crt_stdio_output@@@2@@__crt_stdio_output@@CAPA_WXZ 1003384d f i libucrt:output.obj
 0001:00032853       ?wide_null_string@?$output_processor@DV?$stream_output_adapter@D@__crt_stdio_output@@V?$standard_base@DV?$stream_output_adapter@D@__crt_stdio_output@@@2@@__crt_stdio_output@@CAPA_WXZ 10033853 f i libucrt:output.obj
 0001:00032859       ?wide_null_string@?$output_processor@DV?$string_output_adapter@D@__crt_stdio_output@@V?$format_validation_base@DV?$string_output_adapter@D@__crt_stdio_output@@@2@@__crt_stdio_output@@CAPA_WXZ 10033859 f i libucrt:output.obj
 0001:0003285f       ?wide_null_string@?$output_processor@DV?$string_output_adapter@D@__crt_stdio_output@@V?$positional_parameter_base@DV?$string_output_adapter@D@__crt_stdio_output@@@2@@__crt_stdio_output@@CAPA_WXZ 1003385f f i libucrt:output.obj
 0001:00032865       ?wide_null_string@?$output_processor@DV?$string_output_adapter@D@__crt_stdio_output@@V?$standard_base@DV?$string_output_adapter@D@__crt_stdio_output@@@2@@__crt_stdio_output@@CAPA_WXZ 10033865 f i libucrt:output.obj
 0001:0003286b       ?wide_null_string@?$output_processor@_WV?$stream_output_adapter@_W@__crt_stdio_output@@V?$format_validation_base@_WV?$stream_output_adapter@_W@__crt_stdio_output@@@2@@__crt_stdio_output@@CAPA_WXZ 1003386b f i libucrt:output.obj
 0001:00032871       ?wide_null_string@?$output_processor@_WV?$stream_output_adapter@_W@__crt_stdio_output@@V?$positional_parameter_base@_WV?$stream_output_adapter@_W@__crt_stdio_output@@@2@@__crt_stdio_output@@CAPA_WXZ 10033871 f i libucrt:output.obj
 0001:00032877       ?wide_null_string@?$output_processor@_WV?$stream_output_adapter@_W@__crt_stdio_output@@V?$standard_base@_WV?$stream_output_adapter@_W@__crt_stdio_output@@@2@@__crt_stdio_output@@CAPA_WXZ 10033877 f i libucrt:output.obj
 0001:0003287d       ?wide_null_string@?$output_processor@_WV?$string_output_adapter@_W@__crt_stdio_output@@V?$format_validation_base@_WV?$string_output_adapter@_W@__crt_stdio_output@@@2@@__crt_stdio_output@@CAPA_WXZ 1003387d f i libucrt:output.obj
 0001:00032883       ?wide_null_string@?$output_processor@_WV?$string_output_adapter@_W@__crt_stdio_output@@V?$positional_parameter_base@_WV?$string_output_adapter@_W@__crt_stdio_output@@@2@@__crt_stdio_output@@CAPA_WXZ 10033883 f i libucrt:output.obj
 0001:00032889       ?wide_null_string@?$output_processor@_WV?$string_output_adapter@_W@__crt_stdio_output@@V?$standard_base@_WV?$string_output_adapter@_W@__crt_stdio_output@@@2@@__crt_stdio_output@@CAPA_WXZ 10033889 f i libucrt:output.obj
 0001:0003288f       ?write_character@?$stream_output_adapter@D@__crt_stdio_output@@QBEXDQAH@Z 1003388f f i libucrt:output.obj
 0001:000328db       ?write_character@?$stream_output_adapter@_W@__crt_stdio_output@@QBEX_WQAH@Z 100338db f i libucrt:output.obj
 0001:0003292b       ?write_character@?$string_output_adapter@D@__crt_stdio_output@@QBE_NDQAH@Z 1003392b f i libucrt:output.obj
 0001:0003297d       ?write_character@?$string_output_adapter@_W@__crt_stdio_output@@QBE_N_WQAH@Z 1003397d f i libucrt:output.obj
 0001:000329d3       ?write_stored_string_tchar@?$output_processor@DV?$stream_output_adapter@D@__crt_stdio_output@@V?$format_validation_base@DV?$stream_output_adapter@D@__crt_stdio_output@@@2@@__crt_stdio_output@@AAE_ND@Z 100339d3 f i libucrt:output.obj
 0001:00032aa3       ?write_stored_string_tchar@?$output_processor@DV?$stream_output_adapter@D@__crt_stdio_output@@V?$positional_parameter_base@DV?$stream_output_adapter@D@__crt_stdio_output@@@2@@__crt_stdio_output@@AAE_ND@Z 10033aa3 f i libucrt:output.obj
 0001:00032b73       ?write_stored_string_tchar@?$output_processor@DV?$stream_output_adapter@D@__crt_stdio_output@@V?$standard_base@DV?$stream_output_adapter@D@__crt_stdio_output@@@2@@__crt_stdio_output@@AAE_ND@Z 10033b73 f i libucrt:output.obj
 0001:00032c43       ?write_stored_string_tchar@?$output_processor@DV?$string_output_adapter@D@__crt_stdio_output@@V?$format_validation_base@DV?$string_output_adapter@D@__crt_stdio_output@@@2@@__crt_stdio_output@@AAE_ND@Z 10033c43 f i libucrt:output.obj
 0001:00032d13       ?write_stored_string_tchar@?$output_processor@DV?$string_output_adapter@D@__crt_stdio_output@@V?$positional_parameter_base@DV?$string_output_adapter@D@__crt_stdio_output@@@2@@__crt_stdio_output@@AAE_ND@Z 10033d13 f i libucrt:output.obj
 0001:00032de3       ?write_stored_string_tchar@?$output_processor@DV?$string_output_adapter@D@__crt_stdio_output@@V?$standard_base@DV?$string_output_adapter@D@__crt_stdio_output@@@2@@__crt_stdio_output@@AAE_ND@Z 10033de3 f i libucrt:output.obj
 0001:00032eb3       ?write_stored_string_tchar@?$output_processor@_WV?$stream_output_adapter@_W@__crt_stdio_output@@V?$format_validation_base@_WV?$stream_output_adapter@_W@__crt_stdio_output@@@2@@__crt_stdio_output@@AAE_N_W@Z 10033eb3 f i libucrt:output.obj
 0001:00032f60       ?write_stored_string_tchar@?$output_processor@_WV?$stream_output_adapter@_W@__crt_stdio_output@@V?$positional_parameter_base@_WV?$stream_output_adapter@_W@__crt_stdio_output@@@2@@__crt_stdio_output@@AAE_N_W@Z 10033f60 f i libucrt:output.obj
 0001:0003300d       ?write_stored_string_tchar@?$output_processor@_WV?$stream_output_adapter@_W@__crt_stdio_output@@V?$standard_base@_WV?$stream_output_adapter@_W@__crt_stdio_output@@@2@@__crt_stdio_output@@AAE_N_W@Z 1003400d f i libucrt:output.obj
 0001:000330ba       ?write_stored_string_tchar@?$output_processor@_WV?$string_output_adapter@_W@__crt_stdio_output@@V?$format_validation_base@_WV?$string_output_adapter@_W@__crt_stdio_output@@@2@@__crt_stdio_output@@AAE_N_W@Z 100340ba f i libucrt:output.obj
 0001:00033167       ?write_stored_string_tchar@?$output_processor@_WV?$string_output_adapter@_W@__crt_stdio_output@@V?$positional_parameter_base@_WV?$string_output_adapter@_W@__crt_stdio_output@@@2@@__crt_stdio_output@@AAE_N_W@Z 10034167 f i libucrt:output.obj
 0001:00033214       ?write_stored_string_tchar@?$output_processor@_WV?$string_output_adapter@_W@__crt_stdio_output@@V?$standard_base@_WV?$string_output_adapter@_W@__crt_stdio_output@@@2@@__crt_stdio_output@@AAE_N_W@Z 10034214 f i libucrt:output.obj
 0001:000332c1       ?write_string@?$stream_output_adapter@D@__crt_stdio_output@@QBEXQBDHQAH1@Z 100342c1 f i libucrt:output.obj
 0001:0003336d       ?write_string@?$stream_output_adapter@_W@__crt_stdio_output@@QBEXQB_WHQAH1@Z 1003436d f i libucrt:output.obj
 0001:0003341d       ?write_string@?$string_output_adapter@D@__crt_stdio_output@@QBEXQBDHQAH1@Z 1003441d f i libucrt:output.obj
 0001:000334d4       ?write_string@?$string_output_adapter@_W@__crt_stdio_output@@QBEXQB_WHQAH1@Z 100344d4 f i libucrt:output.obj
 0001:00033594       ___acrt_isleadbyte_l_noupdate 10034594 f i libucrt:output.obj
 0001:000335b5       ___acrt_locale_changed     100345b5 f i libucrt:output.obj
 0001:000335c6       ___stdio_common_vfprintf   100345c6 f   libucrt:output.obj
 0001:0003365a       ___stdio_common_vfprintf_p 1003465a f   libucrt:output.obj
 0001:000336ee       ___stdio_common_vfprintf_s 100346ee f   libucrt:output.obj
 0001:00033782       ___stdio_common_vfwprintf  10034782 f   libucrt:output.obj
 0001:00033816       ___stdio_common_vfwprintf_p 10034816 f   libucrt:output.obj
 0001:000338aa       ___stdio_common_vfwprintf_s 100348aa f   libucrt:output.obj
 0001:0003393e       ___stdio_common_vsnprintf_s 1003493e f   libucrt:output.obj
 0001:0003396e       ___stdio_common_vsnwprintf_s 1003496e f   libucrt:output.obj
 0001:0003399e       ___stdio_common_vsprintf   1003499e f   libucrt:output.obj
 0001:000339cb       ___stdio_common_vsprintf_p 100349cb f   libucrt:output.obj
 0001:000339f8       ___stdio_common_vsprintf_s 100349f8 f   libucrt:output.obj
 0001:00033a25       ___stdio_common_vswprintf  10034a25 f   libucrt:output.obj
 0001:00033a52       ___stdio_common_vswprintf_p 10034a52 f   libucrt:output.obj
 0001:00033a7f       ___stdio_common_vswprintf_s 10034a7f f   libucrt:output.obj
 0001:00033aac       _calloc                    10034aac f   libucrt:calloc.obj
 0001:00033ab9       _free                      10034ab9 f   libucrt:free.obj
 0001:00033abe       _realloc                   10034abe f   libucrt:realloc.obj
 0001:00033acb       ??$?B$$A6GXPAXK0@Z@__crt_fast_encoded_nullptr_t@@QBEP6GXPAXK0@ZXZ 10034acb f i libucrt:exit.obj
 0001:00033ae9       ??$__crt_fast_decode_pointer@P6GXPAXK0@Z@@YAP6GXPAXK0@ZQ6GX0K0@Z@Z 10034ae9 f i libucrt:exit.obj
 0001:00033b04       ??$__crt_fast_encode_pointer@P6GXPAXK0@Z@@YAP6GXPAXK0@ZQ6GX0K0@Z@Z 10034b04 f i libucrt:exit.obj
 0001:00033b2a       ??$__crt_get_proc_address@P6GXI@Z@@YAP6GXI@ZQAUHINSTANCE__@@QBD@Z 10034b2a f i libucrt:exit.obj
 0001:00033b41       ??0?$__crt_unique_handle_t@U__crt_hmodule_traits@@@@QAE@QAUHINSTANCE__@@@Z 10034b41 f i libucrt:exit.obj
 0001:00033b55       ??1?$__crt_unique_handle_t@U__crt_hmodule_traits@@@@QAE@XZ 10034b55 f i libucrt:exit.obj
 0001:00033b88       ?close@?$__crt_unique_handle_t@U__crt_hmodule_traits@@@@QAEXXZ 10034b88 f i libucrt:exit.obj
 0001:00033ba4       ?close@__crt_hmodule_traits@@SA_NPAUHINSTANCE__@@@Z 10034ba4 f i libucrt:exit.obj
 0001:00033d6f       ?get@?$__crt_unique_handle_t@U__crt_hmodule_traits@@@@QBEPAUHINSTANCE__@@XZ 10034d6f f i libucrt:exit.obj
 0001:00033d72       ?get_address_of@?$__crt_unique_handle_t@U__crt_hmodule_traits@@@@QAEPAPAUHINSTANCE__@@XZ 10034d72 f i libucrt:exit.obj
 0001:00033d75       ?get_invalid_value@__crt_hmodule_traits@@SAPAUHINSTANCE__@@XZ 10034d75 f i libucrt:exit.obj
 0001:00033e72       __Exit                     10034e72 f   libucrt:exit.obj
 0001:00033e8d       ___acrt_initialize_thread_local_exit_callback 10034e8d f   libucrt:exit.obj
 0001:00033e9f       __c_exit                   10034e9f f   libucrt:exit.obj
 0001:00033eb1       __cexit                    10034eb1 f   libucrt:exit.obj
 0001:00033ec3       __exit                     10034ec3 f   libucrt:exit.obj
 0001:00033ede       __is_c_termination_complete 10034ede f   libucrt:exit.obj
 0001:00033ee4       __register_thread_local_exe_atexit_callback 10034ee4 f   libucrt:exit.obj
 0001:00033f2a       _exit                      10034f2a f   libucrt:exit.obj
 0001:00033f45       _quick_exit                10034f45 f   libucrt:exit.obj
 0001:00033f60       _strncat                   10034f60 f   libucrt:strncat.obj
 0001:000340f0       _strncpy                   100350f0 f   libucrt:strncpy.obj
 0001:0003425d       ?is_in_use@__crt_stdio_stream@@QBE_NXZ 1003525d f i libucrt:fclose.obj
 0001:0003426c       __fclose_nolock            1003526c f   libucrt:fclose.obj
 0001:000342ff       _fclose                    100352ff f   libucrt:fclose.obj
 0001:00034631       ??$open_file@ABQBDABQBDABHPAU_iobuf@@@?$__crt_char_traits@D@@SAPAU_iobuf@@ABQBD0ABH$$QAPAU1@@Z 10035631 f i libucrt:fopen.obj
 0001:0003465c       ??$open_file@ABQB_WABQB_WABHPAU_iobuf@@@?$__crt_char_traits@_W@@SAPAU_iobuf@@ABQB_W0ABH$$QAPAU1@@Z 1003565c f i libucrt:fopen.obj
 0001:00034687       ?unlock@__crt_stdio_stream@@QBEXXZ 10035687 f i libucrt:fopen.obj
 0001:00034692       __fsopen                   10035692 f   libucrt:fopen.obj
 0001:0003469f       __wfopen                   1003569f f   libucrt:fopen.obj
 0001:000346bb       __wfopen_s                 100356bb f   libucrt:fopen.obj
 0001:00034713       __wfsopen                  10035713 f   libucrt:fopen.obj
 0001:00034720       _fopen                     10035720 f   libucrt:fopen.obj
 0001:0003473c       _fopen_s                   1003573c f   libucrt:fopen.obj
 0001:00034794       ?has_any_buffer@__crt_stdio_stream@@QBE_NXZ 10035794 f i libucrt:fread.obj
 0001:000347a9       ?has_any_of@__crt_stdio_stream@@QBE_NJ@Z 100357a9 f i libucrt:fread.obj
 0001:000347c5       ?set_flags@__crt_stdio_stream@@QBE_NJ@Z 100357c5 f i libucrt:fread.obj
 0001:000347f5       __fread_nolock             100357f5 f   libucrt:fread.obj
 0001:00034819       __fread_nolock_s           10035819 f   libucrt:fread.obj
 0001:00034a58       _fread                     10035a58 f   libucrt:fread.obj
 0001:00034a7c       _fread_s                   10035a7c f   libucrt:fread.obj
 0001:00034bd4       ??$?RV<lambda_11b4f7b0d3157825a5656a18eba1ae27>@@AAV<lambda_b51c0495177f500e782686251704ae76>@@V<lambda_cf89b47920b5017557bfe891e78aca36>@@@?$__crt_seh_guarded_call@I@@QAEI$$QAV<lambda_11b4f7b0d3157825a5656a18eba1ae27>@@AAV<lambda_b51c0495177f500e782686251704ae76>@@$$QAV<lambda_cf89b47920b5017557bfe891e78aca36>@@@Z 10035bd4 f i libucrt:fwrite.obj
 0001:00034c39       ??$__acrt_lock_stream_and_call@V<lambda_b51c0495177f500e782686251704ae76>@@@@YAIQAU_iobuf@@$$QAV<lambda_b51c0495177f500e782686251704ae76>@@@Z 10035c39 f i libucrt:fwrite.obj
 0001:00034d2e       ?has_big_buffer@__crt_stdio_stream@@QBE_NXZ 10035d2e f i libucrt:fwrite.obj
 0001:00034d3f       __fwrite_nolock            10035d3f f   libucrt:fwrite.obj
 0001:00034f16       _fwrite                    10035f16 f   libucrt:fwrite.obj
 0001:00034f84       ??$?R_W@__crt_internal_free_policy@@QBEXQB_W@Z 10035f84 f i libucrt:unlink.obj
 0001:00034f9a       ??0?$__crt_unique_heap_ptr@_WU__crt_internal_free_policy@@@@QAE@QA_W@Z 10035f9a f i libucrt:unlink.obj
 0001:00034fae       ??1?$__crt_unique_heap_ptr@_WU__crt_internal_free_policy@@@@QAE@XZ 10035fae f i libucrt:unlink.obj
 0001:00034fc4       ?get@?$__crt_unique_heap_ptr@_WU__crt_internal_free_policy@@@@QBEPA_WXZ 10035fc4 f i libucrt:unlink.obj
 0001:00034fc7       ?get_address_of@?$__crt_unique_heap_ptr@_WU__crt_internal_free_policy@@@@QAEPAPA_WXZ 10035fc7 f i libucrt:unlink.obj
 0001:00034fca       ?release@?$__crt_unique_heap_ptr@_WU__crt_internal_free_policy@@@@QAEXXZ 10035fca f i libucrt:unlink.obj
 0001:00034fe0       __unlink                   10035fe0 f   libucrt:unlink.obj
 0001:00034fed       _remove                    10035fed f   libucrt:unlink.obj
 0001:0003504d       ?__acrt_stdio_reset_buffer@@YAXV__crt_stdio_stream@@@Z 1003604d f i libucrt:rewind.obj
 0001:00035068       ?has_all_of@__crt_stdio_stream@@QBE_NJ@Z 10036068 f i libucrt:rewind.obj
 0001:00035087       ?unset_flags@__crt_stdio_stream@@QBE_NJ@Z 10036087 f i libucrt:rewind.obj
 0001:000350bb       _rewind                    100360bb f   libucrt:rewind.obj
 0001:000351bc       _ldexp                     100361bc f   libucrt:ldexp.obj
 0001:0003541c       ??$__vcrt_va_start_verify_argument_type@QB_W@@YAXXZ 1003641c f i libucrt:assert.obj
 0001:000363b9       ??$ftprintf@PAU_iobuf@@PBDABQBDABQBDABI@?$__crt_char_traits@D@@SAH$$QAPAU_iobuf@@$$QAPBDABQBD2ABI@Z 100373b9 f i libucrt:assert.obj
 0001:000363eb       ??$ftprintf@PAU_iobuf@@PB_WABQB_WABQB_WABI@?$__crt_char_traits@_W@@SAH$$QAPAU_iobuf@@$$QAPB_WABQB_W2ABI@Z 100373eb f i libucrt:assert.obj
 0001:0003641d       ??$get_module_file_name@AAPAUHINSTANCE__@@AAY0BAF@DK@?$__crt_char_traits@D@@SAKAAPAUHINSTANCE__@@AAY0BAF@D$$QAK@Z 1003741d f i libucrt:assert.obj
 0001:0003643d       ??$get_module_file_name@AAPAUHINSTANCE__@@AAY0BAF@_WK@?$__crt_char_traits@_W@@SAKAAPAUHINSTANCE__@@AAY0BAF@_W$$QAK@Z 1003743d f i libucrt:assert.obj
 0001:0003645d       ??$itot_s@ABIQAD$$CBIH@?$__crt_char_traits@D@@SAHABI$$QBQAD$$QBI$$QAH@Z 1003745d f i libucrt:assert.obj
 0001:00036488       ??$itot_s@ABIQA_W$$CBIH@?$__crt_char_traits@_W@@SAHABI$$QBQA_W$$QBI$$QAH@Z 10037488 f i libucrt:assert.obj
 0001:000364b3       ??$show_message_box@AAY0CEA@DPBDJ@?$__crt_char_traits@D@@SAHAAY0CEA@D$$QAPBD$$QAJ@Z 100374b3 f i libucrt:assert.obj
 0001:000364d6       ??$show_message_box@AAY0CEA@_WPB_WJ@?$__crt_char_traits@_W@@SAHAAY0CEA@_W$$QAPB_W$$QAJ@Z 100374d6 f i libucrt:assert.obj
 0001:000364f9       ??$tcscat_s@ABQADABIAAPAD@?$__crt_char_traits@D@@SAHABQADABIAAPAD@Z 100374f9 f i libucrt:assert.obj
 0001:0003651e       ??$tcscat_s@ABQADABIABQBD@?$__crt_char_traits@D@@SAHABQADABIABQBD@Z 1003751e f i libucrt:assert.obj
 0001:00036543       ??$tcscat_s@ABQADABIPBD@?$__crt_char_traits@D@@SAHABQADABI$$QAPBD@Z 10037543 f i libucrt:assert.obj
 0001:00036568       ??$tcscat_s@ABQA_WABIAAPA_W@?$__crt_char_traits@_W@@SAHABQA_WABIAAPA_W@Z 10037568 f i libucrt:assert.obj
 0001:0003658d       ??$tcscat_s@ABQA_WABIABQB_W@?$__crt_char_traits@_W@@SAHABQA_WABIABQB_W@Z 1003758d f i libucrt:assert.obj
 0001:000365b2       ??$tcscat_s@ABQA_WABIPB_W@?$__crt_char_traits@_W@@SAHABQA_WABI$$QAPB_W@Z 100375b2 f i libucrt:assert.obj
 0001:000365d7       ??$tcscpy_s@AAY0BAF@DIPBD@?$__crt_char_traits@D@@SAHAAY0BAF@D$$QAI$$QAPBD@Z 100375d7 f i libucrt:assert.obj
 0001:000365fa       ??$tcscpy_s@AAY0BAF@_WIPB_W@?$__crt_char_traits@_W@@SAHAAY0BAF@_W$$QAI$$QAPB_W@Z 100375fa f i libucrt:assert.obj
 0001:0003661d       ??$tcscpy_s@ABQADABIPBD@?$__crt_char_traits@D@@SAHABQADABI$$QAPBD@Z 1003761d f i libucrt:assert.obj
 0001:00036642       ??$tcscpy_s@ABQA_WABIPB_W@?$__crt_char_traits@_W@@SAHABQA_WABI$$QAPB_W@Z 10037642 f i libucrt:assert.obj
 0001:00036667       ??$tcslen@AAY0BAF@D@?$__crt_char_traits@D@@SAIAAY0BAF@D@Z 10037667 f i libucrt:assert.obj
 0001:00036682       ??$tcslen@AAY0BAF@_W@?$__crt_char_traits@_W@@SAIAAY0BAF@_W@Z 10037682 f i libucrt:assert.obj
 0001:000366a5       ??$tcslen@ABQAD@?$__crt_char_traits@D@@SAIABQAD@Z 100376a5 f i libucrt:assert.obj
 0001:000366c3       ??$tcslen@ABQA_W@?$__crt_char_traits@_W@@SAIABQA_W@Z 100376c3 f i libucrt:assert.obj
 0001:000366e8       ??$tcslen@ABQBD@?$__crt_char_traits@D@@SAIABQBD@Z 100376e8 f i libucrt:assert.obj
 0001:00036706       ??$tcslen@ABQB_W@?$__crt_char_traits@_W@@SAIABQB_W@Z 10037706 f i libucrt:assert.obj
 0001:0003672b       ??$tcsncat_s@ABQADABIAAPBD$$CBI@?$__crt_char_traits@D@@SAHABQADABIAAPBD$$QBI@Z 1003772b f i libucrt:assert.obj
 0001:00036756       ??$tcsncat_s@ABQADABIABQBDABI@?$__crt_char_traits@D@@SAHABQADABIABQBD1@Z 10037756 f i libucrt:assert.obj
 0001:00036781       ??$tcsncat_s@ABQADABIPBD$$CBI@?$__crt_char_traits@D@@SAHABQADABI$$QAPBD$$QBI@Z 10037781 f i libucrt:assert.obj
 0001:000367ac       ??$tcsncat_s@ABQA_WABIAAPB_W$$CBI@?$__crt_char_traits@_W@@SAHABQA_WABIAAPB_W$$QBI@Z 100377ac f i libucrt:assert.obj
 0001:000367d7       ??$tcsncat_s@ABQA_WABIABQB_WABI@?$__crt_char_traits@_W@@SAHABQA_WABIABQB_W1@Z 100377d7 f i libucrt:assert.obj
 0001:00036802       ??$tcsncat_s@ABQA_WABIPB_W$$CBI@?$__crt_char_traits@_W@@SAHABQA_WABI$$QAPB_W$$QBI@Z 10037802 f i libucrt:assert.obj
 0001:000369a7       __assert                   100379a7 f   libucrt:assert.obj
 0001:00036a01       __invoke_watson_if_error   10037a01 f i libucrt:assert.obj
 0001:00036a2b       __vfwprintf_l              10037a2b f i libucrt:assert.obj
 0001:00036a59       __vswprintf_c_l            10037a59 f i libucrt:assert.obj
 0001:00036a93       __wassert                  10037a93 f   libucrt:assert.obj
 0001:00036aed       _fwprintf                  10037aed f i libucrt:assert.obj
 0001:00036baf       _swprintf                  10037baf f i libucrt:assert.obj
 0001:00036bd4       __errcode                  10037bd4 f   libucrt:fpexcept.obj
 0001:00036c15       __except1                  10037c15 f   libucrt:fpexcept.obj
 0001:00036d16       __except2                  10037d16 f   libucrt:fpexcept.obj
 0001:00036e5f       __handle_exc               10037e5f f   libucrt:fpexcept.obj
 0001:000370b7       __handle_qnan2             100380b7 f   libucrt:fpexcept.obj
 0001:000370c7       __raise_exc                100380c7 f   libucrt:fpexcept.obj
 0001:000370f2       __raise_exc_ex             100380f2 f   libucrt:fpexcept.obj
 0001:0003749f       __raise_excf               1003849f f   libucrt:fpexcept.obj
 0001:000374ca       __set_errno_from_matherr   100384ca f   libucrt:fpexcept.obj
 0001:00037504       __umatherr                 10038504 f   libucrt:fpexcept.obj
 0001:000375ce       __initterm                 100385ce f   libucrt:initterm.obj
 0001:00037641       __initterm_e               10038641 f   libucrt:initterm.obj
 0001:000376c4       __seh_filter_dll           100386c4 f   libucrt:exception_filter.obj
 0001:000376ec       __seh_filter_exe           100386ec f   libucrt:exception_filter.obj
 0001:000378bb       ??$?RE@__crt_internal_free_policy@@QBEXQBE@Z 100388bb f i libucrt:argv_parsing.obj
 0001:000378d1       ??$?RPAD@__crt_internal_free_policy@@QBEXQBQAD@Z 100388d1 f i libucrt:argv_parsing.obj
 0001:000378e7       ??$?RPA_W@__crt_internal_free_policy@@QBEXQBQA_W@Z 100388e7 f i libucrt:argv_parsing.obj
 0001:00037bd0       ??$get_module_file_name@$$TAAY0BAF@DH@?$__crt_char_traits@D@@SAK$$QA$$TAAY0BAF@D$$QAH@Z 10038bd0 f i libucrt:argv_parsing.obj
 0001:00037bf0       ??$get_module_file_name@$$TAAY0BAF@_WH@?$__crt_char_traits@_W@@SAK$$QA$$TAAY0BAF@_W$$QAH@Z 10038bf0 f i libucrt:argv_parsing.obj
 0001:00037fc9       ??$set_program_name@PAD@?$__crt_char_traits@D@@SAX$$QAPAD@Z 10038fc9 f i libucrt:argv_parsing.obj
 0001:00037fde       ??$set_program_name@PA_W@?$__crt_char_traits@_W@@SAX$$QAPA_W@Z 10038fde f i libucrt:argv_parsing.obj
 0001:0003801b       ??0?$__crt_unique_heap_ptr@EU__crt_internal_free_policy@@@@QAE@QAE@Z 1003901b f i libucrt:argv_parsing.obj
 0001:0003802f       ??0?$__crt_unique_heap_ptr@PADU__crt_internal_free_policy@@@@QAE@QAPAD@Z 1003902f f i libucrt:argv_parsing.obj
 0001:00038043       ??0?$__crt_unique_heap_ptr@PA_WU__crt_internal_free_policy@@@@QAE@QAPA_W@Z 10039043 f i libucrt:argv_parsing.obj
 0001:00038057       ??1?$__crt_unique_heap_ptr@EU__crt_internal_free_policy@@@@QAE@XZ 10039057 f i libucrt:argv_parsing.obj
 0001:0003806d       ??1?$__crt_unique_heap_ptr@PADU__crt_internal_free_policy@@@@QAE@XZ 1003906d f i libucrt:argv_parsing.obj
 0001:00038083       ??1?$__crt_unique_heap_ptr@PA_WU__crt_internal_free_policy@@@@QAE@XZ 10039083 f i libucrt:argv_parsing.obj
 0001:00038099       ??B?$__crt_unique_heap_ptr@EU__crt_internal_free_policy@@@@QBE_NXZ 10039099 f i libucrt:argv_parsing.obj
 0001:000380d9       ?detach@?$__crt_unique_heap_ptr@EU__crt_internal_free_policy@@@@QAEPAEXZ 100390d9 f i libucrt:argv_parsing.obj
 0001:000380df       ?detach@?$__crt_unique_heap_ptr@PADU__crt_internal_free_policy@@@@QAEPAPADXZ 100390df f i libucrt:argv_parsing.obj
 0001:000380e5       ?detach@?$__crt_unique_heap_ptr@PA_WU__crt_internal_free_policy@@@@QAEPAPA_WXZ 100390e5 f i libucrt:argv_parsing.obj
 0001:0003810b       ?get@?$__crt_unique_heap_ptr@EU__crt_internal_free_policy@@@@QBEPAEXZ 1003910b f i libucrt:argv_parsing.obj
 0001:0003810e       ?get@?$__crt_unique_heap_ptr@PADU__crt_internal_free_policy@@@@QBEPAPADXZ 1003910e f i libucrt:argv_parsing.obj
 0001:00038111       ?get@?$__crt_unique_heap_ptr@PA_WU__crt_internal_free_policy@@@@QBEPAPA_WXZ 10039111 f i libucrt:argv_parsing.obj
 0001:00038114       ?get_address_of@?$__crt_unique_heap_ptr@PADU__crt_internal_free_policy@@@@QAEPAPAPADXZ 10039114 f i libucrt:argv_parsing.obj
 0001:00038117       ?get_address_of@?$__crt_unique_heap_ptr@PA_WU__crt_internal_free_policy@@@@QAEPAPAPA_WXZ 10039117 f i libucrt:argv_parsing.obj
 0001:00038132       ?is_valid@?$__crt_unique_heap_ptr@EU__crt_internal_free_policy@@@@QBE_NXZ 10039132 f i libucrt:argv_parsing.obj
 0001:0003813c       ?release@?$__crt_unique_heap_ptr@EU__crt_internal_free_policy@@@@QAEXXZ 1003913c f i libucrt:argv_parsing.obj
 0001:00038152       ?release@?$__crt_unique_heap_ptr@PADU__crt_internal_free_policy@@@@QAEXXZ 10039152 f i libucrt:argv_parsing.obj
 0001:00038168       ?release@?$__crt_unique_heap_ptr@PA_WU__crt_internal_free_policy@@@@QAEXXZ 10039168 f i libucrt:argv_parsing.obj
 0001:0003819f       ___acrt_allocate_buffer_for_argv 1003919f f   libucrt:argv_parsing.obj
 0001:00038209       __configure_narrow_argv    10039209 f   libucrt:argv_parsing.obj
 0001:00038216       __configure_wide_argv      10039216 f   libucrt:argv_parsing.obj
 0001:00038223       __set_pgmptr               10039223 f i libucrt:argv_parsing.obj
 0001:00038235       __set_wpgmptr              10039235 f i libucrt:argv_parsing.obj
 0001:0003870f       ??$get_environment_from_os@$$$V@?$__crt_char_traits@D@@SAPADXZ 1003970f f i libucrt:environment_initialization.obj
 0001:00038714       ??$get_environment_from_os@$$$V@?$__crt_char_traits@_W@@SAPA_WXZ 10039714 f i libucrt:environment_initialization.obj
 0001:0003884e       ??$set_variable_in_environment_nolock@PADH@?$__crt_char_traits@D@@SAH$$QAPAD$$QAH@Z 1003984e f i libucrt:environment_initialization.obj
 0001:0003886c       ??$set_variable_in_environment_nolock@PA_WH@?$__crt_char_traits@_W@@SAH$$QAPA_W$$QAH@Z 1003986c f i libucrt:environment_initialization.obj
 0001:0003888a       ??$tcscpy_s@PADABIAAPAD@?$__crt_char_traits@D@@SAH$$QAPADABIAAPAD@Z 1003988a f i libucrt:environment_initialization.obj
 0001:000388af       ??$tcscpy_s@PA_WABIAAPA_W@?$__crt_char_traits@_W@@SAH$$QAPA_WABIAAPA_W@Z 100398af f i libucrt:environment_initialization.obj
 0001:000388d4       ??$tcslen@AAPAD@?$__crt_char_traits@D@@SAIAAPAD@Z 100398d4 f i libucrt:environment_initialization.obj
 0001:000388f2       ??$tcslen@AAPA_W@?$__crt_char_traits@_W@@SAIAAPA_W@Z 100398f2 f i libucrt:environment_initialization.obj
 0001:00038917       ??$uninitialize@A6AXAAPAPAD@Z@?$dual_state_global@PAPAD@__crt_state_management@@QAEXA6AXAAPAPAD@Z@Z 10039917 f i libucrt:environment_initialization.obj
 0001:00038967       ??$uninitialize@A6AXAAPAPA_W@Z@?$dual_state_global@PAPA_W@__crt_state_management@@QAEXA6AXAAPAPA_W@Z@Z 10039967 f i libucrt:environment_initialization.obj
 0001:000389f9       ??B?$__crt_unique_heap_ptr@PADU__crt_internal_free_policy@@@@QBE_NXZ 100399f9 f i libucrt:environment_initialization.obj
 0001:00038a03       ??B?$__crt_unique_heap_ptr@PA_WU__crt_internal_free_policy@@@@QBE_NXZ 10039a03 f i libucrt:environment_initialization.obj
 0001:00038a0d       ??B?$__crt_unique_heap_ptr@_WU__crt_internal_free_policy@@@@QBE_NXZ 10039a0d f i libucrt:environment_initialization.obj
 0001:00038a17       ?__crt_compute_required_transform_buffer_count@@YAIIQBD@Z 10039a17 f i libucrt:environment_initialization.obj
 0001:00038a37       ?__crt_compute_required_transform_buffer_count@@YAIIQB_W@Z 10039a37 f i libucrt:environment_initialization.obj
 0001:00038a5a       ?__crt_transform_string@@YAIIQBDQA_WI@Z 10039a5a f i libucrt:environment_initialization.obj
 0001:00038a7e       ?__crt_transform_string@@YAIIQB_WQADI@Z 10039a7e f i libucrt:environment_initialization.obj
 0001:00038aa6       ?detach@?$__crt_unique_heap_ptr@DU__crt_internal_free_policy@@@@QAEPADXZ 10039aa6 f i libucrt:environment_initialization.obj
 0001:00038aac       ?detach@?$__crt_unique_heap_ptr@_WU__crt_internal_free_policy@@@@QAEPA_WXZ 10039aac f i libucrt:environment_initialization.obj
 0001:00038ab2       ?get_current_state_index@__crt_state_management@@YAIXZ 10039ab2 f i libucrt:environment_initialization.obj
 0001:00038ad9       ?initialize@?$dual_state_global@PAPAD@__crt_state_management@@QAEXQAPAD@Z 10039ad9 f i libucrt:environment_initialization.obj
 0001:00038b16       ?initialize@?$dual_state_global@PAPA_W@__crt_state_management@@QAEXQAPA_W@Z 10039b16 f i libucrt:environment_initialization.obj
 0001:00038b53       ?is_valid@?$__crt_unique_heap_ptr@PADU__crt_internal_free_policy@@@@QBE_NXZ 10039b53 f i libucrt:environment_initialization.obj
 0001:00038b5d       ?is_valid@?$__crt_unique_heap_ptr@PA_WU__crt_internal_free_policy@@@@QBE_NXZ 10039b5d f i libucrt:environment_initialization.obj
 0001:00038b67       ?is_valid@?$__crt_unique_heap_ptr@_WU__crt_internal_free_policy@@@@QBE_NXZ 10039b67 f i libucrt:environment_initialization.obj
 0001:00038b77       ?value@?$dual_state_global@PAPAD@__crt_state_management@@QAEAAPAPADXZ 10039b77 f i libucrt:environment_initialization.obj
 0001:00038b7a       ?value@?$dual_state_global@PAPA_W@__crt_state_management@@QAEAAPAPA_WXZ 10039b7a f i libucrt:environment_initialization.obj
 0001:00038b7d       ___dcrt_get_or_create_narrow_environment_nolock 10039b7d f   libucrt:environment_initialization.obj
 0001:00038b82       ___dcrt_get_or_create_wide_environment_nolock 10039b82 f   libucrt:environment_initialization.obj
 0001:00038b87       ___dcrt_uninitialize_environments_nolock 10039b87 f   libucrt:environment_initialization.obj
 0001:00038bcb       ___p__environ              10039bcb f   libucrt:environment_initialization.obj
 0001:00038bd1       ___p__wenviron             10039bd1 f   libucrt:environment_initialization.obj
 0001:00038bd7       __get_initial_narrow_environment 10039bd7 f   libucrt:environment_initialization.obj
 0001:00038bf0       __get_initial_wide_environment 10039bf0 f   libucrt:environment_initialization.obj
 0001:00038c09       __initialize_narrow_environment 10039c09 f   libucrt:environment_initialization.obj
 0001:00038c0e       __initialize_wide_environment 10039c0e f   libucrt:environment_initialization.obj
 0001:00038c13       ??$?BP6AXXZ@__crt_fast_encoded_nullptr_t@@QBEPAP6AXXZXZ 10039c13 f i libucrt:onexit.obj
 0001:00038c31       ??$?RP6AXXZ@__crt_internal_free_policy@@QBEXQBQ6AXXZ@Z 10039c31 f i libucrt:onexit.obj
 0001:00038c47       ??$?RV<lambda_800076c951b434888f4765a74a194fcc>@@AAV<lambda_4e60a939b0d047cfe11ddc22648dfba9>@@V<lambda_6dbb1268764f43b569ce7b67e331d33a>@@@?$__crt_seh_guarded_call@H@@QAEH$$QAV<lambda_800076c951b434888f4765a74a194fcc>@@AAV<lambda_4e60a939b0d047cfe11ddc22648dfba9>@@$$QAV<lambda_6dbb1268764f43b569ce7b67e331d33a>@@@Z 10039c47 f i libucrt:onexit.obj
 0001:00038cac       ??$?RV<lambda_995298e7d72eb4c2aab26c0585b3abe5>@@AAV<lambda_275893d493268fdec8709772e3fcec0e>@@V<lambda_293819299cbf9a7022e18b56a874bb5c>@@@?$__crt_seh_guarded_call@H@@QAEH$$QAV<lambda_995298e7d72eb4c2aab26c0585b3abe5>@@AAV<lambda_275893d493268fdec8709772e3fcec0e>@@$$QAV<lambda_293819299cbf9a7022e18b56a874bb5c>@@@Z 10039cac f i libucrt:onexit.obj
 0001:00038d11       ??$__acrt_lock_and_call@V<lambda_275893d493268fdec8709772e3fcec0e>@@@@YAHW4__acrt_lock_id@@$$QAV<lambda_275893d493268fdec8709772e3fcec0e>@@@Z 10039d11 f i libucrt:onexit.obj
 0001:00038d43       ??$__acrt_lock_and_call@V<lambda_4e60a939b0d047cfe11ddc22648dfba9>@@@@YAHW4__acrt_lock_id@@$$QAV<lambda_4e60a939b0d047cfe11ddc22648dfba9>@@@Z 10039d43 f i libucrt:onexit.obj
 0001:00038d75       ??$__crt_fast_encode_pointer@P6AHXZ@@YAP6AHXZQ6AHXZ@Z 10039d75 f i libucrt:onexit.obj
 0001:00038e22       ??0?$__crt_unique_heap_ptr@P6AXXZU__crt_internal_free_policy@@@@QAE@QAP6AXXZ@Z 10039e22 f i libucrt:onexit.obj
 0001:00038e36       ??1?$__crt_unique_heap_ptr@P6AXXZU__crt_internal_free_policy@@@@QAE@XZ 10039e36 f i libucrt:onexit.obj
 0001:00039171       ?detach@?$__crt_unique_heap_ptr@P6AXXZU__crt_internal_free_policy@@@@QAEPAP6AXXZXZ 1003a171 f i libucrt:onexit.obj
 0001:00039177       ?release@?$__crt_unique_heap_ptr@P6AXXZU__crt_internal_free_policy@@@@QAEXXZ 1003a177 f i libucrt:onexit.obj
 0001:0003918d       __crt_at_quick_exit        1003a18d f   libucrt:onexit.obj
 0001:000391a8       __crt_atexit               1003a1a8 f   libucrt:onexit.obj
 0001:000391c3       __execute_onexit_table     1003a1c3 f   libucrt:onexit.obj
 0001:000391e7       __initialize_onexit_table  1003a1e7 f   libucrt:onexit.obj
 0001:00039233       __register_onexit_function 1003a233 f   libucrt:onexit.obj
 0001:0003939a       ?initialize@?$dual_state_global@PAU__crt_locale_data@@@__crt_state_management@@QAEXQAU__crt_locale_data@@@Z 1003a39a f i libucrt:initialization.obj
 0001:000393d7       ___acrt_initialize         1003a3d7 f   libucrt:initialization.obj
 0001:000393ed       ___acrt_thread_attach      1003a3ed f   libucrt:initialization.obj
 0001:000393fa       ___acrt_thread_detach      1003a3fa f   libucrt:initialization.obj
 0001:00039404       ___acrt_uninitialize       1003a404 f   libucrt:initialization.obj
 0001:0003941a       ___acrt_uninitialize_critical 1003a41a f   libucrt:initialization.obj
 0001:0003944b       __get_terminate            1003a44b f   libucrt:terminate.obj
 0001:00039461       _set_terminate             1003a461 f   libucrt:terminate.obj
 0001:00039489       _terminate                 1003a489 f   libucrt:terminate.obj
 0001:000394d4       ??$__crt_interlocked_exchange_pointer@X$$T@@YAPAXPDSAX$$T@Z 1003a4d4 f i libucrt:free_base.obj
 0001:000394ec       ___acrt_get_msvcrt_heap_handle 1003a4ec f   libucrt:free_base.obj
 0001:0003957d       __free_base                1003a57d f   libucrt:free_base.obj
 0001:000395c5       __malloc_base              1003a5c5 f   libucrt:malloc_base.obj
 0001:00039696       _strcpy_s                  1003a696 f   libucrt:strcpy_s.obj
 0001:00039706       __set_abort_behavior       1003a706 f   libucrt:abort.obj
 0001:0003972f       _abort                     1003a72f f   libucrt:abort.obj
 0001:00039782       __calloc_base              1003a782 f   libucrt:calloc_base.obj
 0001:000397f6       ??$is_overflow_condition@K@__crt_strtox@@YA_NIK@Z 1003a7f6 f i libucrt:atox.obj
 0001:00039835       ??$is_overflow_condition@_K@__crt_strtox@@YA_NI_K@Z 1003a835 f i libucrt:atox.obj
 0001:00039888       ??$make_c_string_character_source@D$$T@__crt_strtox@@YA?AV?$c_string_character_source@D@0@QBD$$T@Z 1003a888 f i libucrt:atox.obj
 0001:000398a9       ??$make_c_string_character_source@_W$$T@__crt_strtox@@YA?AV?$c_string_character_source@_W@0@QB_W$$T@Z 1003a8a9 f i libucrt:atox.obj
 0001:000398ca       ??$parse_integer@KV?$c_string_character_source@D@__crt_strtox@@@__crt_strtox@@YAKQAU__crt_locale_pointers@@V?$c_string_character_source@D@0@H_N@Z 1003a8ca f i libucrt:atox.obj
 0001:00039b7c       ??$parse_integer@KV?$c_string_character_source@_W@__crt_strtox@@@__crt_strtox@@YAKQAU__crt_locale_pointers@@V?$c_string_character_source@_W@0@H_N@Z 1003ab7c f i libucrt:atox.obj
 0001:0003a41a       ??$parse_integer@_KV?$c_string_character_source@D@__crt_strtox@@@__crt_strtox@@YA_KQAU__crt_locale_pointers@@V?$c_string_character_source@D@0@H_N@Z 1003b41a f i libucrt:atox.obj
 0001:0003a769       ??$parse_integer@_KV?$c_string_character_source@_W@__crt_strtox@@@__crt_strtox@@YA_KQAU__crt_locale_pointers@@V?$c_string_character_source@_W@0@H_N@Z 1003b769 f i libucrt:atox.obj
 0001:0003aedb       ??$parse_integer_from_string@JD$$T@__crt_strtox@@YAJQBD$$THQAU__crt_locale_pointers@@@Z 1003bedb f i libucrt:atox.obj
 0001:0003af13       ??$parse_integer_from_string@J_W$$T@__crt_strtox@@YAJQB_W$$THQAU__crt_locale_pointers@@@Z 1003bf13 f i libucrt:atox.obj
 0001:0003af4b       ??$parse_integer_from_string@_JD$$T@__crt_strtox@@YA_JQBD$$THQAU__crt_locale_pointers@@@Z 1003bf4b f i libucrt:atox.obj
 0001:0003af83       ??$parse_integer_from_string@_J_W$$T@__crt_strtox@@YA_JQB_W$$THQAU__crt_locale_pointers@@@Z 1003bf83 f i libucrt:atox.obj
 0001:0003afbb       ??0?$c_string_character_source@D@__crt_strtox@@QAE@QBDQAPBD@Z 1003bfbb f i libucrt:atox.obj
 0001:0003afde       ??0?$c_string_character_source@_W@__crt_strtox@@QAE@QB_WQAPB_W@Z 1003bfde f i libucrt:atox.obj
 0001:0003b001       ??1?$c_string_character_source@D@__crt_strtox@@QAE@XZ 1003c001 f i libucrt:atox.obj
 0001:0003b010       ??1?$c_string_character_source@_W@__crt_strtox@@QAE@XZ 1003c010 f i libucrt:atox.obj
 0001:0003b01f       ?get@?$c_string_character_source@D@__crt_strtox@@QAEDXZ 1003c01f f i libucrt:atox.obj
 0001:0003b029       ?get@?$c_string_character_source@_W@__crt_strtox@@QAE_WXZ 1003c029 f i libucrt:atox.obj
 0001:0003b036       ?is_space@__crt_strtox@@YA_NDQAU__crt_locale_pointers@@@Z 1003c036 f i libucrt:atox.obj
 0001:0003b05c       ?is_space@__crt_strtox@@YA_N_WPAU__crt_locale_pointers@@@Z 1003c05c f i libucrt:atox.obj
 0001:0003b07b       ?maximum_signed_value@__crt_strtox@@YAJK@Z 1003c07b f i libucrt:atox.obj
 0001:0003b081       ?maximum_signed_value@__crt_strtox@@YA_J_K@Z 1003c081 f i libucrt:atox.obj
 0001:0003b08c       ?minimum_signed_value@__crt_strtox@@YAJK@Z 1003c08c f i libucrt:atox.obj
 0001:0003b092       ?minimum_signed_value@__crt_strtox@@YA_J_K@Z 1003c092 f i libucrt:atox.obj
 0001:0003b09c       ?parse_digit@__crt_strtox@@YAID@Z 1003c09c f i libucrt:atox.obj
 0001:0003b0e4       ?parse_digit@__crt_strtox@@YAI_W@Z 1003c0e4 f i libucrt:atox.obj
 0001:0003b341       ?restore_state@?$c_string_character_source@D@__crt_strtox@@QAE_NQBD@Z 1003c341 f i libucrt:atox.obj
 0001:0003b355       ?restore_state@?$c_string_character_source@_W@__crt_strtox@@QAE_NQB_W@Z 1003c355 f i libucrt:atox.obj
 0001:0003b369       ?save_state@?$c_string_character_source@D@__crt_strtox@@QBEPBDXZ 1003c369 f i libucrt:atox.obj
 0001:0003b36c       ?save_state@?$c_string_character_source@_W@__crt_strtox@@QBEPB_WXZ 1003c36c f i libucrt:atox.obj
 0001:0003b36f       ?unget@?$c_string_character_source@D@__crt_strtox@@QAEXD@Z 1003c36f f i libucrt:atox.obj
 0001:0003b3a1       ?unget@?$c_string_character_source@_W@__crt_strtox@@QAEX_W@Z 1003c3a1 f i libucrt:atox.obj
 0001:0003b3d8       ?validate@?$c_string_character_source@D@__crt_strtox@@QBE_NXZ 1003c3d8 f i libucrt:atox.obj
 0001:0003b3f9       ?validate@?$c_string_character_source@_W@__crt_strtox@@QBE_NXZ 1003c3f9 f i libucrt:atox.obj
 0001:0003b41a       ?wide_character_to_digit@__crt_strtox@@YAH_W@Z 1003c41a f i libucrt:atox.obj
 0001:0003b623       ___acrt_get_locale_data_prefix 1003c623 f i libucrt:atox.obj
 0001:0003b632       __atoi64                   1003c632 f   libucrt:atox.obj
 0001:0003b666       __atoi64_l                 1003c666 f   libucrt:atox.obj
 0001:0003b69b       __atoi_l                   1003c69b f   libucrt:atox.obj
 0001:0003b6d0       __atol_l                   1003c6d0 f   libucrt:atox.obj
 0001:0003b705       __atoll_l                  1003c705 f   libucrt:atox.obj
 0001:0003b73a       __chvalidchk_l             1003c73a f i libucrt:atox.obj
 0001:0003b76e       __ischartype_l             1003c76e f i libucrt:atox.obj
 0001:0003b7ad       __wtoi                     1003c7ad f   libucrt:atox.obj
 0001:0003b7e1       __wtoi64                   1003c7e1 f   libucrt:atox.obj
 0001:0003b815       __wtoi64_l                 1003c815 f   libucrt:atox.obj
 0001:0003b84a       __wtoi_l                   1003c84a f   libucrt:atox.obj
 0001:0003b87f       __wtol                     1003c87f f   libucrt:atox.obj
 0001:0003b8b3       __wtol_l                   1003c8b3 f   libucrt:atox.obj
 0001:0003b8e8       __wtoll                    1003c8e8 f   libucrt:atox.obj
 0001:0003b91c       __wtoll_l                  1003c91c f   libucrt:atox.obj
 0001:0003b951       _atoi                      1003c951 f   libucrt:atox.obj
 0001:0003b985       _atol                      1003c985 f   libucrt:atox.obj
 0001:0003b9b9       _atoll                     1003c9b9 f   libucrt:atox.obj
 0001:0003b9ed       ??$__crt_fast_decode_pointer@P6AXPB_W00II@Z@@YAP6AXPB_W00II@ZQ6AX000II@Z@Z 1003c9ed f i libucrt:invalid_parameter.obj
 0001:0003ba08       ??$__crt_fast_encode_pointer@P6AXPB_W00II@Z@@YAP6AXPB_W00II@ZQ6AX000II@Z@Z 1003ca08 f i libucrt:invalid_parameter.obj
 0001:0003ba2e       ?initialize@?$dual_state_global@P6AXPB_W00II@Z@__crt_state_management@@QAEXQ6AXPB_W00II@Z@Z 1003ca2e f i libucrt:invalid_parameter.obj
 0001:0003ba6b       ?value@?$dual_state_global@P6AXPB_W00II@Z@__crt_state_management@@QAEAAP6AXPB_W00II@ZXZ 1003ca6b f i libucrt:invalid_parameter.obj
 0001:0003ba6e       ___acrt_call_reportfault   1003ca6e f   libucrt:invalid_parameter.obj
 0001:0003bbf7       ___acrt_initialize_invalid_parameter_handler 1003cbf7 f   libucrt:invalid_parameter.obj
 0001:0003bc10       __get_invalid_parameter_handler 1003cc10 f   libucrt:invalid_parameter.obj
 0001:0003bc27       __get_thread_local_invalid_parameter_handler 1003cc27 f   libucrt:invalid_parameter.obj
 0001:0003bc3c       __invalid_parameter        1003cc3c f   libucrt:invalid_parameter.obj
 0001:0003bcd5       __invalid_parameter_noinfo 1003ccd5 f   libucrt:invalid_parameter.obj
 0001:0003bce9       __invalid_parameter_noinfo_noreturn 1003cce9 f   libucrt:invalid_parameter.obj
 0001:0003bd0d       __invoke_watson            1003cd0d f   libucrt:invalid_parameter.obj
 0001:0003bd4c       __set_invalid_parameter_handler 1003cd4c f   libucrt:invalid_parameter.obj
 0001:0003bd88       __set_thread_local_invalid_parameter_handler 1003cd88 f   libucrt:invalid_parameter.obj
 0001:0003bdac       ___acrt_errno_from_os_error 1003cdac f   libucrt:errno.obj
 0001:0003bdff       ___acrt_errno_map_os_error 1003cdff f   libucrt:errno.obj
 0001:0003be2a       ___doserrno                1003ce2a f   libucrt:errno.obj
 0001:0003be41       __errno                    1003ce41 f   libucrt:errno.obj
 0001:0003be58       __get_doserrno             1003ce58 f   libucrt:errno.obj
 0001:0003be86       __get_errno                1003ce86 f   libucrt:errno.obj
 0001:0003beb4       __set_doserrno             1003ceb4 f   libucrt:errno.obj
 0001:0003bedd       __set_errno                1003cedd f   libucrt:errno.obj
 0001:0003bf5d       ??$?B$$A6GHPA_WKJ@Z@__crt_fast_encoded_nullptr_t@@QBEP6GHPA_WKJ@ZXZ 1003cf5d f i libucrt:winapi_thunks.obj
 0001:0003bf7b       ??$?RV<lambda_9227be29367c048ad7fd93a717dcb1a1>@@AAV<lambda_a463b7b0560cfcaf9b17f27c6ef46564>@@V<lambda_ccea11b5727ccf69be64f5f5d9a08d9f>@@@?$__crt_seh_guarded_call@H@@QAEH$$QAV<lambda_9227be29367c048ad7fd93a717dcb1a1>@@AAV<lambda_a463b7b0560cfcaf9b17f27c6ef46564>@@$$QAV<lambda_ccea11b5727ccf69be64f5f5d9a08d9f>@@@Z 1003cf7b f i libucrt:winapi_thunks.obj
 0001:0003c020       ??$__acrt_lock_and_call@V<lambda_a463b7b0560cfcaf9b17f27c6ef46564>@@@@YAHW4__acrt_lock_id@@$$QAV<lambda_a463b7b0560cfcaf9b17f27c6ef46564>@@@Z 1003d020 f i libucrt:winapi_thunks.obj
 0001:0003c052       ??$__crt_fast_decode_pointer@P6GHPA_WKJ@Z@@YAP6GHPA_WKJ@ZQ6GH0KJ@Z@Z 1003d052 f i libucrt:winapi_thunks.obj
 0001:0003c06d       ??$__crt_fast_encode_pointer@P6GHPA_WKJ@Z@@YAP6GHPA_WKJ@ZQ6GH0KJ@Z@Z 1003d06d f i libucrt:winapi_thunks.obj
 0001:0003c79a       ___acrt_AreFileApisANSI@0  1003d79a f   libucrt:winapi_thunks.obj
 0001:0003c7fb       ___acrt_CompareStringEx@36 1003d7fb f   libucrt:winapi_thunks.obj
 0001:0003c88c       ___acrt_EnumSystemLocalesEx@16 1003d88c f   libucrt:winapi_thunks.obj
 0001:0003c914       ___acrt_FlsAlloc@4         1003d914 f   libucrt:winapi_thunks.obj
 0001:0003c97f       ___acrt_FlsFree@4          1003d97f f   libucrt:winapi_thunks.obj
 0001:0003c9ea       ___acrt_FlsGetValue@4      1003d9ea f   libucrt:winapi_thunks.obj
 0001:0003ca55       ___acrt_FlsSetValue@8      1003da55 f   libucrt:winapi_thunks.obj
 0001:0003cac4       ___acrt_GetDateFormatEx@28 1003dac4 f   libucrt:winapi_thunks.obj
 0001:0003cb66       ___acrt_GetEnabledXStateFeatures@0 1003db66 f   libucrt:winapi_thunks.obj
 0001:0003cbc8       ___acrt_GetFileInformationByHandleEx@16 1003dbc8 f   libucrt:winapi_thunks.obj
 0001:0003cc43       ___acrt_GetLocaleInfoEx@16 1003dc43 f   libucrt:winapi_thunks.obj
 0001:0003ccc7       ___acrt_GetSystemTimePreciseAsFileTime@4 1003dcc7 f   libucrt:winapi_thunks.obj
 0001:0003cd32       ___acrt_GetTimeFormatEx@24 1003dd32 f   libucrt:winapi_thunks.obj
 0001:0003cdbe       ___acrt_GetUserDefaultLocaleName@8 1003ddbe f   libucrt:winapi_thunks.obj
 0001:0003ce3e       ___acrt_GetXStateFeaturesMask@8 1003de3e f   libucrt:winapi_thunks.obj
 0001:0003ceaa       ___acrt_InitializeCriticalSectionEx@12 1003deaa f   libucrt:winapi_thunks.obj
 0001:0003cf24       ___acrt_IsValidLocaleName@4 1003df24 f   libucrt:winapi_thunks.obj
 0001:0003cf9f       ___acrt_LCIDToLocaleName@16 1003df9f f   libucrt:winapi_thunks.obj
 0001:0003d023       ___acrt_LCMapStringEx@36   1003e023 f   libucrt:winapi_thunks.obj
 0001:0003d0cd       ___acrt_LocaleNameToLCID@8 1003e0cd f   libucrt:winapi_thunks.obj
 0001:0003d140       ___acrt_LocateXStateFeature@12 1003e140 f   libucrt:winapi_thunks.obj
 0001:0003d197       ___acrt_MessageBoxA@16     1003e197 f   libucrt:winapi_thunks.obj
 0001:0003d1f2       ___acrt_MessageBoxW@16     1003e1f2 f   libucrt:winapi_thunks.obj
 0001:0003d24d       ___acrt_RoInitialize@4     1003e24d f   libucrt:winapi_thunks.obj
 0001:0003d2b3       ___acrt_RoUninitialize@0   1003e2b3 f   libucrt:winapi_thunks.obj
 0001:0003d30e       ___acrt_RtlGenRandom@8     1003e30e f   libucrt:winapi_thunks.obj
 0001:0003d37a       ___acrt_SetThreadStackGuarantee@4 1003e37a f   libucrt:winapi_thunks.obj
 0001:0003d3e0       ___acrt_can_show_message_box 1003e3e0 f   libucrt:winapi_thunks.obj
 0001:0003d3ff       ___acrt_can_use_vista_locale_apis 1003e3ff f   libucrt:winapi_thunks.obj
 0001:0003d40e       ___acrt_can_use_xstate_apis 1003e40e f   libucrt:winapi_thunks.obj
 0001:0003d41d       ___acrt_get_parent_window  1003e41d f   libucrt:winapi_thunks.obj
 0001:0003d4bb       ___acrt_initialize_winapi_thunks 1003e4bb f   libucrt:winapi_thunks.obj
 0001:0003d4ea       ___acrt_is_interactive     1003e4ea f   libucrt:winapi_thunks.obj
 0001:0003d5b9       ___acrt_is_packaged_app    1003e5b9 f   libucrt:winapi_thunks.obj
 0001:0003d661       ___acrt_uninitialize_winapi_thunks 1003e661 f   libucrt:winapi_thunks.obj
 0001:0003d6a4       ??0__crt_stdio_stream@@QAE@QAU__crt_stdio_stream_data@@@Z 1003e6a4 f i libucrt:closeall.obj
 0001:0003d6b8       __fcloseall                1003e6b8 f   libucrt:closeall.obj
 0001:0003d780       ___acrt_stdio_flush_nolock 1003e780 f   libucrt:fflush.obj
 0001:0003d7ff       __fflush_nolock            1003e7ff f   libucrt:fflush.obj
 0001:0003d857       __flushall                 1003e857 f   libucrt:fflush.obj
 0001:0003d970       _fflush                    1003e970 f   libucrt:fflush.obj
 0001:0003d9df       ?has_crt_buffer@__crt_stdio_stream@@QBE_NXZ 1003e9df f i libucrt:_freebuf.obj
 0001:0003d9ee       ___acrt_stdio_free_buffer_nolock 1003e9ee f   libucrt:_freebuf.obj
 0001:0003dc2b       ___acrt_initialize_lowio   1003ec2b f   libucrt:ioinit.obj
 0001:0003dc96       ___acrt_uninitialize_lowio 1003ec96 f   libucrt:ioinit.obj
 0001:0003dce8       ___isascii                 1003ece8 f i libucrt:_ctype.obj
 0001:0003dcfe       ___iscsym                  1003ecfe f i libucrt:_ctype.obj
 0001:0003dd28       ___iscsymf                 1003ed28 f i libucrt:_ctype.obj
 0001:0003dd4e       ___toascii                 1003ed4e f i libucrt:_ctype.obj
 0001:0003dd5e       __isalnum_l                1003ed5e f i libucrt:_ctype.obj
 0001:0003dda7       __isalpha_l                1003eda7 f i libucrt:_ctype.obj
 0001:0003ddf0       __isblank_l                1003edf0 f i libucrt:_ctype.obj
 0001:0003de43       __iscntrl_l                1003ee43 f i libucrt:_ctype.obj
 0001:0003de89       __iscsym_l                 1003ee89 f i libucrt:_ctype.obj
 0001:0003deb4       __iscsymf_l                1003eeb4 f i libucrt:_ctype.obj
 0001:0003dedf       __isdigit_l                1003eedf f i libucrt:_ctype.obj
 0001:0003df25       __isgraph_l                1003ef25 f i libucrt:_ctype.obj
 0001:0003df6e       __islower_l                1003ef6e f i libucrt:_ctype.obj
 0001:0003dfb4       __isprint_l                1003efb4 f i libucrt:_ctype.obj
 0001:0003dffd       __ispunct_l                1003effd f i libucrt:_ctype.obj
 0001:0003e043       __isspace_l                1003f043 f i libucrt:_ctype.obj
 0001:0003e089       __isupper_l                1003f089 f i libucrt:_ctype.obj
 0001:0003e0cf       __isxdigit_l               1003f0cf f i libucrt:_ctype.obj
 0001:0003e118       _isalnum                   1003f118 f i libucrt:_ctype.obj
 0001:0003e152       _isalpha                   1003f152 f i libucrt:_ctype.obj
 0001:0003e18c       _isblank                   1003f18c f i libucrt:_ctype.obj
 0001:0003e1d0       _iscntrl                   1003f1d0 f i libucrt:_ctype.obj
 0001:0003e208       _isdigit                   1003f208 f i libucrt:_ctype.obj
 0001:0003e240       _isgraph                   1003f240 f i libucrt:_ctype.obj
 0001:0003e27a       _islower                   1003f27a f i libucrt:_ctype.obj
 0001:0003e2b2       _isprint                   1003f2b2 f i libucrt:_ctype.obj
 0001:0003e2ec       _ispunct                   1003f2ec f i libucrt:_ctype.obj
 0001:0003e324       _isspace                   1003f324 f i libucrt:_ctype.obj
 0001:0003e35c       _isupper                   1003f35c f i libucrt:_ctype.obj
 0001:0003e394       _isxdigit                  1003f394 f i libucrt:_ctype.obj
 0001:0003e78c       __tolower                  1003f78c f   libucrt:tolower_toupper.obj
 0001:0003e79c       __tolower_l                1003f79c f   libucrt:tolower_toupper.obj
 0001:0003e7bc       __toupper                  1003f7bc f   libucrt:tolower_toupper.obj
 0001:0003e7cc       __toupper_l                1003f7cc f   libucrt:tolower_toupper.obj
 0001:0003e7ec       _tolower                   1003f7ec f   libucrt:tolower_toupper.obj
 0001:0003e828       _toupper                   1003f828 f   libucrt:tolower_toupper.obj
 0001:0003e864       ??$make_c_string_character_source@DPAPAD@__crt_strtox@@YA?AV?$c_string_character_source@D@0@QBDQAPAD@Z 1003f864 f i libucrt:strtox.obj
 0001:0003e885       ??$make_c_string_character_source@_WPAPA_W@__crt_strtox@@YA?AV?$c_string_character_source@_W@0@QB_WQAPA_W@Z 1003f885 f i libucrt:strtox.obj
 0001:0003e8a6       ??$parse_integer_from_string@JDPAPAD@__crt_strtox@@YAJQBDQAPADHQAU__crt_locale_pointers@@@Z 1003f8a6 f i libucrt:strtox.obj
 0001:0003e8de       ??$parse_integer_from_string@J_WPAPA_W@__crt_strtox@@YAJQB_WQAPA_WHQAU__crt_locale_pointers@@@Z 1003f8de f i libucrt:strtox.obj
 0001:0003e916       ??$parse_integer_from_string@KDPAPAD@__crt_strtox@@YAKQBDQAPADHQAU__crt_locale_pointers@@@Z 1003f916 f i libucrt:strtox.obj
 0001:0003e94e       ??$parse_integer_from_string@K_WPAPA_W@__crt_strtox@@YAKQB_WQAPA_WHQAU__crt_locale_pointers@@@Z 1003f94e f i libucrt:strtox.obj
 0001:0003e986       ??$parse_integer_from_string@_JDPAPAD@__crt_strtox@@YA_JQBDQAPADHQAU__crt_locale_pointers@@@Z 1003f986 f i libucrt:strtox.obj
 0001:0003e9be       ??$parse_integer_from_string@_J_WPAPA_W@__crt_strtox@@YA_JQB_WQAPA_WHQAU__crt_locale_pointers@@@Z 1003f9be f i libucrt:strtox.obj
 0001:0003e9f6       ??$parse_integer_from_string@_KDPAPAD@__crt_strtox@@YA_KQBDQAPADHQAU__crt_locale_pointers@@@Z 1003f9f6 f i libucrt:strtox.obj
 0001:0003ea2e       ??$parse_integer_from_string@_K_WPAPA_W@__crt_strtox@@YA_KQB_WQAPA_WHQAU__crt_locale_pointers@@@Z 1003fa2e f i libucrt:strtox.obj
 0001:0003ea66       __strtoi64                 1003fa66 f   libucrt:strtox.obj
 0001:0003ea9d       __strtoi64_l               1003fa9d f   libucrt:strtox.obj
 0001:0003ead5       __strtoimax_l              1003fad5 f   libucrt:strtox.obj
 0001:0003eb0d       __strtol_l                 1003fb0d f   libucrt:strtox.obj
 0001:0003eb45       __strtoll_l                1003fb45 f   libucrt:strtox.obj
 0001:0003eb7d       __strtoui64                1003fb7d f   libucrt:strtox.obj
 0001:0003ebb4       __strtoui64_l              1003fbb4 f   libucrt:strtox.obj
 0001:0003ebec       __strtoul_l                1003fbec f   libucrt:strtox.obj
 0001:0003ec24       __strtoull_l               1003fc24 f   libucrt:strtox.obj
 0001:0003ec5c       __strtoumax_l              1003fc5c f   libucrt:strtox.obj
 0001:0003ec94       __wcstoi64                 1003fc94 f   libucrt:strtox.obj
 0001:0003eccb       __wcstoi64_l               1003fccb f   libucrt:strtox.obj
 0001:0003ed03       __wcstoimax_l              1003fd03 f   libucrt:strtox.obj
 0001:0003ed3b       __wcstol_l                 1003fd3b f   libucrt:strtox.obj
 0001:0003ed73       __wcstoll_l                1003fd73 f   libucrt:strtox.obj
 0001:0003edab       __wcstoui64                1003fdab f   libucrt:strtox.obj
 0001:0003ede2       __wcstoui64_l              1003fde2 f   libucrt:strtox.obj
 0001:0003ee1a       __wcstoul_l                1003fe1a f   libucrt:strtox.obj
 0001:0003ee52       __wcstoull_l               1003fe52 f   libucrt:strtox.obj
 0001:0003ee8a       __wcstoumax_l              1003fe8a f   libucrt:strtox.obj
 0001:0003eec2       _strtoimax                 1003fec2 f   libucrt:strtox.obj
 0001:0003eef9       _strtol                    1003fef9 f   libucrt:strtox.obj
 0001:0003ef30       _strtoll                   1003ff30 f   libucrt:strtox.obj
 0001:0003ef67       _strtoul                   1003ff67 f   libucrt:strtox.obj
 0001:0003ef9e       _strtoull                  1003ff9e f   libucrt:strtox.obj
 0001:0003efd5       _strtoumax                 1003ffd5 f   libucrt:strtox.obj
 0001:0003f00c       _wcstoimax                 1004000c f   libucrt:strtox.obj
 0001:0003f043       _wcstol                    10040043 f   libucrt:strtox.obj
 0001:0003f07a       _wcstoll                   1004007a f   libucrt:strtox.obj
 0001:0003f0b1       _wcstoul                   100400b1 f   libucrt:strtox.obj
 0001:0003f0e8       _wcstoull                  100400e8 f   libucrt:strtox.obj
 0001:0003f11f       _wcstoumax                 1004011f f   libucrt:strtox.obj
 0001:0003f156       __mbtowc_l                 10040156 f   libucrt:mbtowc.obj
 0001:0003f28e       _mbtowc                    1004028e f   libucrt:mbtowc.obj
 0001:0003f2ae       __wctomb_l                 100402ae f   libucrt:wctomb.obj
 0001:0003f315       __wctomb_s_l               10040315 f   libucrt:wctomb.obj
 0001:0003f47e       _wctomb                    1004047e f   libucrt:wctomb.obj
 0001:0003f4bf       _wctomb_s                  100404bf f   libucrt:wctomb.obj
 0001:0003fbd7       ??1?$__crt_simd_cleanup_guard@$00@@QAE@XZ 10040bd7 f i libucrt:strnlen.obj
 0001:0003fbdb       ??1?$__crt_simd_cleanup_guard@$0A@@@QAE@XZ 10040bdb f i libucrt:strnlen.obj
 0001:0003fbdc       ?compare_equals@?$__crt_simd_traits@$00E@@SA?AT__m256i@@T2@0@Z 10040bdc f i libucrt:strnlen.obj
 0001:0003fbe1       ?compare_equals@?$__crt_simd_traits@$00G@@SA?AT__m256i@@T2@0@Z 10040be1 f i libucrt:strnlen.obj
 0001:0003fbe6       ?compare_equals@?$__crt_simd_traits@$0A@E@@SA?AT__m128i@@T2@0@Z 10040be6 f i libucrt:strnlen.obj
 0001:0003fbeb       ?compare_equals@?$__crt_simd_traits@$0A@G@@SA?AT__m128i@@T2@0@Z 10040beb f i libucrt:strnlen.obj
 0001:0003fbf0       ?compute_byte_mask@?$__crt_simd_pack_traits@$00@@SAHT__m256i@@@Z 10040bf0 f i libucrt:strnlen.obj
 0001:0003fbf5       ?compute_byte_mask@?$__crt_simd_pack_traits@$0A@@@SAHT__m128i@@@Z 10040bf5 f i libucrt:strnlen.obj
 0001:0003fbfa       ?get_zero_pack@?$__crt_simd_pack_traits@$00@@SA?AT__m256i@@XZ 10040bfa f i libucrt:strnlen.obj
 0001:0003fbff       ?get_zero_pack@?$__crt_simd_pack_traits@$0A@@@SA?AT__m128i@@XZ 10040bff f i libucrt:strnlen.obj
 0001:0003fc04       _strnlen                   10040c04 f   libucrt:strnlen.obj
 0001:0003fd74       _wcsnlen                   10040d74 f   libucrt:strnlen.obj
 0001:0003ff98       ??$?RU__acrt_ptd@@@__crt_internal_free_policy@@QBEXQBU__acrt_ptd@@@Z 10040f98 f i libucrt:per_thread_data.obj
 0001:0003ffae       ??$?RV<lambda_3518db117f0e7cdb002338c5d3c47b6c>@@AAV<lambda_b2ea41f6bbb362cd97d94c6828d90b61>@@V<lambda_abdedf541bb04549bc734292b4a045d4>@@@?$__crt_seh_guarded_call@X@@QAEX$$QAV<lambda_3518db117f0e7cdb002338c5d3c47b6c>@@AAV<lambda_b2ea41f6bbb362cd97d94c6828d90b61>@@$$QAV<lambda_abdedf541bb04549bc734292b4a045d4>@@@Z 10040fae f i libucrt:per_thread_data.obj
 0001:00040012       ??$?RV<lambda_51b6e8b1eb166f2a3faf91f424b38130>@@AAV<lambda_6250bd4b2a391816dd638c3bf72b0bcb>@@V<lambda_0b5a4a3e68152e1d9b943535f5f47bed>@@@?$__crt_seh_guarded_call@X@@QAEX$$QAV<lambda_51b6e8b1eb166f2a3faf91f424b38130>@@AAV<lambda_6250bd4b2a391816dd638c3bf72b0bcb>@@$$QAV<lambda_0b5a4a3e68152e1d9b943535f5f47bed>@@@Z 10041012 f i libucrt:per_thread_data.obj
 0001:0004008b       ??$?RV<lambda_5b71d36f03204c0beab531769a5b5694>@@AAV<lambda_be2b3da3f62db62e9dad5dc70221a656>@@V<lambda_8f9ce462984622f9bf76b59e2aaaf805>@@@?$__crt_seh_guarded_call@X@@QAEX$$QAV<lambda_5b71d36f03204c0beab531769a5b5694>@@AAV<lambda_be2b3da3f62db62e9dad5dc70221a656>@@$$QAV<lambda_8f9ce462984622f9bf76b59e2aaaf805>@@@Z 1004108b f i libucrt:per_thread_data.obj
 0001:000400e8       ??$?RV<lambda_9df27f884b057bc3edfc946cb5b7cf47>@@AAV<lambda_e69574bed617af4e071282c136b37893>@@V<lambda_cc0d902bcbbeb830f749456577db4721>@@@?$__crt_seh_guarded_call@X@@QAEX$$QAV<lambda_9df27f884b057bc3edfc946cb5b7cf47>@@AAV<lambda_e69574bed617af4e071282c136b37893>@@$$QAV<lambda_cc0d902bcbbeb830f749456577db4721>@@@Z 100410e8 f i libucrt:per_thread_data.obj
 0001:00040142       ??$__acrt_lock_and_call@V<lambda_6250bd4b2a391816dd638c3bf72b0bcb>@@@@YAXW4__acrt_lock_id@@$$QAV<lambda_6250bd4b2a391816dd638c3bf72b0bcb>@@@Z 10041142 f i libucrt:per_thread_data.obj
 0001:00040174       ??$__acrt_lock_and_call@V<lambda_b2ea41f6bbb362cd97d94c6828d90b61>@@@@YAXW4__acrt_lock_id@@$$QAV<lambda_b2ea41f6bbb362cd97d94c6828d90b61>@@@Z 10041174 f i libucrt:per_thread_data.obj
 0001:000401a6       ??$__acrt_lock_and_call@V<lambda_be2b3da3f62db62e9dad5dc70221a656>@@@@YAXW4__acrt_lock_id@@$$QAV<lambda_be2b3da3f62db62e9dad5dc70221a656>@@@Z 100411a6 f i libucrt:per_thread_data.obj
 0001:000401d8       ??$__acrt_lock_and_call@V<lambda_e69574bed617af4e071282c136b37893>@@@@YAXW4__acrt_lock_id@@$$QAV<lambda_e69574bed617af4e071282c136b37893>@@@Z 100411d8 f i libucrt:per_thread_data.obj
 0001:00040311       ??0?$__crt_unique_heap_ptr@U__acrt_ptd@@U__crt_internal_free_policy@@@@QAE@QAU__acrt_ptd@@@Z 10041311 f i libucrt:per_thread_data.obj
 0001:00040325       ??0__crt_scoped_get_last_error_reset@@QAE@XZ 10041325 f i libucrt:per_thread_data.obj
 0001:0004033a       ??1?$__crt_unique_heap_ptr@U__acrt_ptd@@U__crt_internal_free_policy@@@@QAE@XZ 1004133a f i libucrt:per_thread_data.obj
 0001:00040350       ??1__crt_scoped_get_last_error_reset@@QAE@XZ 10041350 f i libucrt:per_thread_data.obj
 0001:0004035b       ??B?$__crt_unique_heap_ptr@U__acrt_ptd@@U__crt_internal_free_policy@@@@QBE_NXZ 1004135b f i libucrt:per_thread_data.obj
 0001:000404d1       ?dangerous_get_state_array@?$dual_state_global@PAU__crt_locale_data@@@__crt_state_management@@QAEPAPAU__crt_locale_data@@XZ 100414d1 f i libucrt:per_thread_data.obj
 0001:000405d5       ?detach@?$__crt_unique_heap_ptr@U__acrt_ptd@@U__crt_internal_free_policy@@@@QAEPAU__acrt_ptd@@XZ 100415d5 f i libucrt:per_thread_data.obj
 0001:000405db       ?get@?$__crt_unique_heap_ptr@U__acrt_ptd@@U__crt_internal_free_policy@@@@QBEPAU__acrt_ptd@@XZ 100415db f i libucrt:per_thread_data.obj
 0001:000406ea       ?is_valid@?$__crt_unique_heap_ptr@U__acrt_ptd@@U__crt_internal_free_policy@@@@QBE_NXZ 100416ea f i libucrt:per_thread_data.obj
 0001:000406f4       ?release@?$__crt_unique_heap_ptr@U__acrt_ptd@@U__crt_internal_free_policy@@@@QAEXXZ 100416f4 f i libucrt:per_thread_data.obj
 0001:00040780       ?value@?$dual_state_global@PAU__crt_locale_data@@@__crt_state_management@@QAEAAPAU__crt_locale_data@@XZ 10041780 f i libucrt:per_thread_data.obj
 0001:00040783       ___acrt_freeptd            10041783 f   libucrt:per_thread_data.obj
 0001:000407ba       ___acrt_getptd             100417ba f   libucrt:per_thread_data.obj
 0001:0004085f       ___acrt_getptd_noexit      1004185f f   libucrt:per_thread_data.obj
 0001:00040905       ___acrt_initialize_ptd     10041905 f   libucrt:per_thread_data.obj
 0001:0004093c       ___acrt_uninitialize_ptd   1004193c f   libucrt:per_thread_data.obj
 0001:0004095c       ___threadhandle            1004195c f   libucrt:per_thread_data.obj
 0001:00040962       ___threadid                10041962 f   libucrt:per_thread_data.obj
 0001:00040968       ___acrt_update_locale_info 10041968 f   libucrt:locale_update.obj
 0001:000409a0       ___acrt_update_multibyte_info 100419a0 f   libucrt:locale_update.obj
 0001:000409d8       ?__acrt_fp_classify@@YA?AW4__acrt_fp_class@@ABN@Z 100419d8 f i libucrt:cvt.obj
 0001:00040a5f       ?__acrt_fp_is_negative@@YA_NABN@Z 10041a5f f i libucrt:cvt.obj
 0001:000414d2       ?strrchr@@YAPADQADH@Z      100424d2 f i libucrt:cvt.obj
 0001:000414df       ___acrt_fp_format          100424df f   libucrt:cvt.obj
 0001:000416b9       __fputwc_nolock            100426b9 f   libucrt:fputwc.obj
 0001:00041828       __fputwchar                10042828 f   libucrt:fputwc.obj
 0001:00041848       __putwc_nolock             10042848 f   libucrt:fputwc.obj
 0001:00041855       _fputwc                    10042855 f   libucrt:fputwc.obj
 0001:000418ee       _putwc                     100428ee f   libucrt:fputwc.obj
 0001:000418fb       _putwchar                  100428fb f   libucrt:fputwc.obj
 0001:00041908       ?lowio_handle@__crt_stdio_stream@@QBEHXZ 10042908 f i libucrt:fileno.obj
 0001:0004190e       __fileno                   1004290e f   libucrt:fileno.obj
 0001:0004193d       __fputc_nolock             1004293d f   libucrt:fputc.obj
 0001:00041970       __fputchar                 10042970 f   libucrt:fputc.obj
 0001:00041990       __putc_nolock              10042990 f   libucrt:fputc.obj
 0001:0004199d       _fputc                     1004299d f   libucrt:fputc.obj
 0001:00041ae2       _putc                      10042ae2 f   libucrt:fputc.obj
 0001:00041aef       _putchar                   10042aef f   libucrt:fputc.obj
 0001:00041afc       __get_printf_count_output  10042afc f   libucrt:printf_count_output.obj
 0001:00041b16       __set_printf_count_output  10042b16 f   libucrt:printf_count_output.obj
 0001:00041b4a       ?has_temporary_buffer@__crt_stdio_stream@@QBE_NXZ 10042b4a f i libucrt:_sftbuf.obj
 0001:00041b59       ___acrt_stdio_begin_temporary_buffering_nolock 10042b59 f   libucrt:_sftbuf.obj
 0001:00041c3b       ___acrt_stdio_end_temporary_buffering_nolock 10042c3b f   libucrt:_sftbuf.obj
 0001:00041c85       ??$?RU__crt_locale_data@@@__crt_internal_free_policy@@QBEXQBU__crt_locale_data@@@Z 10042c85 f i libucrt:wsetlocale.obj
 0001:00041c9b       ??$?RU__crt_locale_pointers@@@__crt_internal_free_policy@@QBEXQBU__crt_locale_pointers@@@Z 10042c9b f i libucrt:wsetlocale.obj
 0001:00041cb1       ??$?RU__crt_multibyte_data@@@__crt_internal_free_policy@@QBEXQBU__crt_multibyte_data@@@Z 10042cb1 f i libucrt:wsetlocale.obj
 0001:00041cc7       ??$?RV<lambda_70818de7b02deff9841e8b0962a60ed9>@@AAV<lambda_2af78c5f5901b1372d98f9ab3177dfa6>@@AAV<lambda_f51fe5fd7c79a33db34fc9310f277369>@@@?$__crt_seh_guarded_call@X@@QAEX$$QAV<lambda_70818de7b02deff9841e8b0962a60ed9>@@AAV<lambda_2af78c5f5901b1372d98f9ab3177dfa6>@@AAV<lambda_f51fe5fd7c79a33db34fc9310f277369>@@@Z 10042cc7 f i libucrt:wsetlocale.obj
 0001:00041d10       ??$?RV<lambda_76aaead6e312921abc834cb00a638bdd>@@AAV<lambda_176e34f99554166dd2fac165c457248c>@@V<lambda_998ee1c9f4290b119b936bcd6215875a>@@@?$__crt_seh_guarded_call@X@@QAEX$$QAV<lambda_76aaead6e312921abc834cb00a638bdd>@@AAV<lambda_176e34f99554166dd2fac165c457248c>@@$$QAV<lambda_998ee1c9f4290b119b936bcd6215875a>@@@Z 10042d10 f i libucrt:wsetlocale.obj
 0001:00041d6c       ??$?RV<lambda_c76fdea48760d5f9368b465f31df4405>@@AAV<lambda_e378711a6f6581bf7f0efd7cdf97f5d9>@@V<lambda_e927a58b2a85c081d733e8c6192ae2d2>@@@?$__crt_seh_guarded_call@X@@QAEX$$QAV<lambda_c76fdea48760d5f9368b465f31df4405>@@AAV<lambda_e378711a6f6581bf7f0efd7cdf97f5d9>@@$$QAV<lambda_e927a58b2a85c081d733e8c6192ae2d2>@@@Z 10042d6c f i libucrt:wsetlocale.obj
 0001:00041dbf       ??$?RV<lambda_c9469061b39d205f0f236529d4a41659>@@AAV<lambda_b7fb1a997d3ebc0cc0186c5835178808>@@V<lambda_14b92c79d699846b5cc916cd4cf280e4>@@@?$__crt_seh_guarded_call@X@@QAEX$$QAV<lambda_c9469061b39d205f0f236529d4a41659>@@AAV<lambda_b7fb1a997d3ebc0cc0186c5835178808>@@$$QAV<lambda_14b92c79d699846b5cc916cd4cf280e4>@@@Z 10042dbf f i libucrt:wsetlocale.obj
 0001:00041e19       ??$__acrt_lock_and_call@V<lambda_176e34f99554166dd2fac165c457248c>@@@@YAXW4__acrt_lock_id@@$$QAV<lambda_176e34f99554166dd2fac165c457248c>@@@Z 10042e19 f i libucrt:wsetlocale.obj
 0001:00041e4b       ??$__acrt_lock_and_call@V<lambda_b7fb1a997d3ebc0cc0186c5835178808>@@@@YAXW4__acrt_lock_id@@$$QAV<lambda_b7fb1a997d3ebc0cc0186c5835178808>@@@Z 10042e4b f i libucrt:wsetlocale.obj
 0001:00041e7d       ??$__acrt_lock_and_call@V<lambda_e378711a6f6581bf7f0efd7cdf97f5d9>@@@@YAXW4__acrt_lock_id@@$$QAV<lambda_e378711a6f6581bf7f0efd7cdf97f5d9>@@@Z 10042e7d f i libucrt:wsetlocale.obj
 0001:00041eaf       ??$__crt_call_and_cleanup@V<lambda_2af78c5f5901b1372d98f9ab3177dfa6>@@V<lambda_f51fe5fd7c79a33db34fc9310f277369>@@@@YAX$$QAV<lambda_2af78c5f5901b1372d98f9ab3177dfa6>@@$$QAV<lambda_f51fe5fd7c79a33db34fc9310f277369>@@@Z 10042eaf f i libucrt:wsetlocale.obj
 0001:00041ed2       ??$__vcrt_va_start_verify_argument_type@H@@YAXXZ 10042ed2 f i libucrt:wsetlocale.obj
 0001:00041ff7       ??0?$__crt_unique_heap_ptr@U__crt_locale_data@@U__crt_internal_free_policy@@@@QAE@QAU__crt_locale_data@@@Z 10042ff7 f i libucrt:wsetlocale.obj
 0001:0004200b       ??0?$__crt_unique_heap_ptr@U__crt_locale_pointers@@U__crt_internal_free_policy@@@@QAE@QAU__crt_locale_pointers@@@Z 1004300b f i libucrt:wsetlocale.obj
 0001:0004201f       ??0?$__crt_unique_heap_ptr@U__crt_multibyte_data@@U__crt_internal_free_policy@@@@QAE@QAU__crt_multibyte_data@@@Z 1004301f f i libucrt:wsetlocale.obj
 0001:00042033       ??1?$__crt_unique_heap_ptr@U__crt_locale_data@@U__crt_internal_free_policy@@@@QAE@XZ 10043033 f i libucrt:wsetlocale.obj
 0001:00042049       ??1?$__crt_unique_heap_ptr@U__crt_locale_pointers@@U__crt_internal_free_policy@@@@QAE@XZ 10043049 f i libucrt:wsetlocale.obj
 0001:0004205f       ??1?$__crt_unique_heap_ptr@U__crt_multibyte_data@@U__crt_internal_free_policy@@@@QAE@XZ 1004305f f i libucrt:wsetlocale.obj
 0001:00042075       ??B?$__crt_unique_heap_ptr@U__crt_locale_data@@U__crt_internal_free_policy@@@@QBE_NXZ 10043075 f i libucrt:wsetlocale.obj
 0001:0004207f       ??B?$__crt_unique_heap_ptr@U__crt_locale_pointers@@U__crt_internal_free_policy@@@@QBE_NXZ 1004307f f i libucrt:wsetlocale.obj
 0001:00042089       ??B?$__crt_unique_heap_ptr@U__crt_multibyte_data@@U__crt_internal_free_policy@@@@QBE_NXZ 10043089 f i libucrt:wsetlocale.obj
 0001:000422b2       ?detach@?$__crt_unique_heap_ptr@U__crt_locale_data@@U__crt_internal_free_policy@@@@QAEPAU__crt_locale_data@@XZ 100432b2 f i libucrt:wsetlocale.obj
 0001:000422b8       ?detach@?$__crt_unique_heap_ptr@U__crt_locale_pointers@@U__crt_internal_free_policy@@@@QAEPAU__crt_locale_pointers@@XZ 100432b8 f i libucrt:wsetlocale.obj
 0001:000422be       ?detach@?$__crt_unique_heap_ptr@U__crt_multibyte_data@@U__crt_internal_free_policy@@@@QAEPAU__crt_multibyte_data@@XZ 100432be f i libucrt:wsetlocale.obj
 0001:000422c4       ?get@?$__crt_unique_heap_ptr@U__crt_locale_data@@U__crt_internal_free_policy@@@@QBEPAU__crt_locale_data@@XZ 100432c4 f i libucrt:wsetlocale.obj
 0001:000422c7       ?get@?$__crt_unique_heap_ptr@U__crt_locale_pointers@@U__crt_internal_free_policy@@@@QBEPAU__crt_locale_pointers@@XZ 100432c7 f i libucrt:wsetlocale.obj
 0001:000422ca       ?get@?$__crt_unique_heap_ptr@U__crt_multibyte_data@@U__crt_internal_free_policy@@@@QBEPAU__crt_multibyte_data@@XZ 100432ca f i libucrt:wsetlocale.obj
 0001:000422cd       ?is_valid@?$__crt_unique_heap_ptr@U__crt_locale_data@@U__crt_internal_free_policy@@@@QBE_NXZ 100432cd f i libucrt:wsetlocale.obj
 0001:000422d7       ?is_valid@?$__crt_unique_heap_ptr@U__crt_locale_pointers@@U__crt_internal_free_policy@@@@QBE_NXZ 100432d7 f i libucrt:wsetlocale.obj
 0001:000422e1       ?is_valid@?$__crt_unique_heap_ptr@U__crt_multibyte_data@@U__crt_internal_free_policy@@@@QBE_NXZ 100432e1 f i libucrt:wsetlocale.obj
 0001:000422eb       ?release@?$__crt_unique_heap_ptr@U__crt_locale_data@@U__crt_internal_free_policy@@@@QAEXXZ 100432eb f i libucrt:wsetlocale.obj
 0001:00042301       ?release@?$__crt_unique_heap_ptr@U__crt_locale_pointers@@U__crt_internal_free_policy@@@@QAEXXZ 10043301 f i libucrt:wsetlocale.obj
 0001:00042317       ?release@?$__crt_unique_heap_ptr@U__crt_multibyte_data@@U__crt_internal_free_policy@@@@QAEXXZ 10043317 f i libucrt:wsetlocale.obj
 0001:0004232d       ___acrt_copy_locale_name   1004332d f   libucrt:wsetlocale.obj
 0001:000423ac       ___acrt_set_locale_changed 100433ac f   libucrt:wsetlocale.obj
 0001:000423b9       ___acrt_uninitialize_locale 100433b9 f   libucrt:wsetlocale.obj
 0001:0004241f       ___lc_lctowcs              1004341f f   libucrt:wsetlocale.obj
 0001:000424ab       ___lc_wcstolc              100434ab f   libucrt:wsetlocale.obj
 0001:00042625       __configthreadlocale       10043625 f   libucrt:wsetlocale.obj
 0001:000426d9       __create_locale            100436d9 f   libucrt:wsetlocale.obj
 0001:00042756       __expandlocale             10043756 f   libucrt:wsetlocale.obj
 0001:00042baa       __free_locale              10043baa f   libucrt:wsetlocale.obj
 0001:00042c90       __get_current_locale       10043c90 f   libucrt:wsetlocale.obj
 0001:00042d29       __wcreate_locale           10043d29 f   libucrt:wsetlocale.obj
 0001:00042e74       __wcscats                  10043e74 f   libucrt:wsetlocale.obj
 0001:00042ec5       __wsetlocale               10043ec5 f   libucrt:wsetlocale.obj
 0001:000439eb       ___p___mb_cur_max          100449eb f   libucrt:nlsdata.obj
 0001:00043a1b       __realloc_base             10044a1b f   libucrt:realloc_base.obj
 0001:00043a9e       ___acrt_initialize_locks   10044a9e f   libucrt:locks.obj
 0001:00043aef       ___acrt_lock               10044aef f   libucrt:locks.obj
 0001:00043b0b       ___acrt_uninitialize_locks 10044b0b f   libucrt:locks.obj
 0001:00043b48       ___acrt_unlock             10044b48 f   libucrt:locks.obj
 0001:00043b64       __lock_locales             10044b64 f   libucrt:locks.obj
 0001:00043b6f       __unlock_locales           10044b6f f   libucrt:locks.obj
 0001:00043b7a       ??$?RV<lambda_123407a5e2ac06da108355a851863b7a>@@AAV<lambda_2fe9b910cf3cbf4a0ab98a02ba45b3ec>@@V<lambda_ae55bdf541ad94d75914d381c370e64d>@@@?$__crt_seh_guarded_call@H@@QAEH$$QAV<lambda_123407a5e2ac06da108355a851863b7a>@@AAV<lambda_2fe9b910cf3cbf4a0ab98a02ba45b3ec>@@$$QAV<lambda_ae55bdf541ad94d75914d381c370e64d>@@@Z 10044b7a f i libucrt:close.obj
 0001:00043c1c       ??$__acrt_lowio_lock_fh_and_call@V<lambda_2fe9b910cf3cbf4a0ab98a02ba45b3ec>@@@@YAHH$$QAV<lambda_2fe9b910cf3cbf4a0ab98a02ba45b3ec>@@@Z 10044c1c f i libucrt:close.obj
 0001:00043d6f       __close                    10044d6f f   libucrt:close.obj
 0001:00043e0d       __close_nolock             10044e0d f   libucrt:close.obj
 0001:00043ed0       ??$?RU__crt_stdio_stream_data@@@__crt_internal_free_policy@@QBEXQBU__crt_stdio_stream_data@@@Z 10044ed0 f i libucrt:stream.obj
 0001:00043ee6       ??0?$__crt_unique_heap_ptr@U__crt_stdio_stream_data@@U__crt_internal_free_policy@@@@QAE@QAU__crt_stdio_stream_data@@@Z 10044ee6 f i libucrt:stream.obj
 0001:00043efa       ??0__crt_stdio_stream@@QAE@XZ 10044efa f i libucrt:stream.obj
 0001:00043f00       ??1?$__crt_unique_heap_ptr@U__crt_stdio_stream_data@@U__crt_internal_free_policy@@@@QAE@XZ 10044f00 f i libucrt:stream.obj
 0001:00043f16       ?__acrt_stdio_allocate_stream@@YA?AV__crt_stdio_stream@@XZ 10044f16 f   libucrt:stream.obj
 0001:00043f8c       ?__acrt_stdio_free_stream@@YAXV__crt_stdio_stream@@@Z 10044f8c f   libucrt:stream.obj
 0001:00043fd5       ?deallocate@__crt_stdio_stream@@QAEXXZ 10044fd5 f i libucrt:stream.obj
 0001:00043fe1       ?detach@?$__crt_unique_heap_ptr@U__crt_stdio_stream_data@@U__crt_internal_free_policy@@@@QAEPAU__crt_stdio_stream_data@@XZ 10044fe1 f i libucrt:stream.obj
 0001:000440da       ?lock@__crt_stdio_stream@@QBEXXZ 100450da f i libucrt:stream.obj
 0001:000440e5       ?release@?$__crt_unique_heap_ptr@U__crt_stdio_stream_data@@U__crt_internal_free_policy@@@@QAEXXZ 100450e5 f i libucrt:stream.obj
 0001:000440fb       ?try_allocate@__crt_stdio_stream@@QAE_NXZ 100450fb f i libucrt:stream.obj
 0001:00044124       ??$__acrt_stdio_parse_mode@D@@YA?AU__acrt_stdio_stream_mode@@QBD@Z 10045124 f i libucrt:openfile.obj
 0001:000443e2       ??$__acrt_stdio_parse_mode@_W@@YA?AU__acrt_stdio_stream_mode@@QB_W@Z 100453e2 f i libucrt:openfile.obj
 0001:00044803       ??$tcsncmp@AAPBDAAY02$$CBDI@?$__crt_char_traits@D@@SAHAAPBDAAY02$$CBD$$QAI@Z 10045803 f i libucrt:openfile.obj
 0001:00044826       ??$tcsncmp@AAPB_WAAY02$$CB_WI@?$__crt_char_traits@_W@@SAHAAPB_WAAY02$$CB_W$$QAI@Z 10045826 f i libucrt:openfile.obj
 0001:00044849       ??$tcsnicmp@AAPBDAAY04$$CBDI@?$__crt_char_traits@D@@SAHAAPBDAAY04$$CBD$$QAI@Z 10045849 f i libucrt:openfile.obj
 0001:0004486c       ??$tcsnicmp@AAPBDAAY06$$CBDI@?$__crt_char_traits@D@@SAHAAPBDAAY06$$CBD$$QAI@Z 1004586c f i libucrt:openfile.obj
 0001:0004488f       ??$tcsnicmp@AAPBDAAY07$$CBDI@?$__crt_char_traits@D@@SAHAAPBDAAY07$$CBD$$QAI@Z 1004588f f i libucrt:openfile.obj
 0001:000448b2       ??$tcsnicmp@AAPB_WAAY04$$CB_WI@?$__crt_char_traits@_W@@SAHAAPB_WAAY04$$CB_W$$QAI@Z 100458b2 f i libucrt:openfile.obj
 0001:000448d5       ??$tcsnicmp@AAPB_WAAY06$$CB_WI@?$__crt_char_traits@_W@@SAHAAPB_WAAY06$$CB_W$$QAI@Z 100458d5 f i libucrt:openfile.obj
 0001:000448f8       ??$tcsnicmp@AAPB_WAAY07$$CB_WI@?$__crt_char_traits@_W@@SAHAAPB_WAAY07$$CB_W$$QAI@Z 100458f8 f i libucrt:openfile.obj
 0001:0004491b       ??$tsopen_s@PAHABQBDABHABHH@?$__crt_char_traits@D@@SAH$$QAPAHABQBDABH2$$QAH@Z 1004591b f i libucrt:openfile.obj
 0001:0004494d       ??$tsopen_s@PAHABQB_WABHABHH@?$__crt_char_traits@_W@@SAH$$QAPAHABQB_WABH2$$QAH@Z 1004594d f i libucrt:openfile.obj
 0001:0004497f       ?__acrt_stdio_parse_mode_D@@YA_NAAU__acrt_stdio_stream_mode@@@Z 1004597f f i libucrt:openfile.obj
 0001:000449a0       ?__acrt_stdio_parse_mode_N@@YA_NAAU__acrt_stdio_stream_mode@@@Z 100459a0 f i libucrt:openfile.obj
 0001:000449b6       ?__acrt_stdio_parse_mode_R@@YA_NAAU__acrt_stdio_stream_mode@@AA_N@Z 100459b6 f i libucrt:openfile.obj
 0001:000449db       ?__acrt_stdio_parse_mode_S@@YA_NAAU__acrt_stdio_stream_mode@@AA_N@Z 100459db f i libucrt:openfile.obj
 0001:00044a00       ?__acrt_stdio_parse_mode_T@@YA_NAAU__acrt_stdio_stream_mode@@@Z 10045a00 f i libucrt:openfile.obj
 0001:00044a26       ?__acrt_stdio_parse_mode_b@@YA_NAAU__acrt_stdio_stream_mode@@@Z 10045a26 f i libucrt:openfile.obj
 0001:00044a4e       ?__acrt_stdio_parse_mode_c@@YA_NAAU__acrt_stdio_stream_mode@@AA_N@Z 10045a4e f i libucrt:openfile.obj
 0001:00044a78       ?__acrt_stdio_parse_mode_n@@YA_NAAU__acrt_stdio_stream_mode@@AA_N@Z 10045a78 f i libucrt:openfile.obj
 0001:00044aa2       ?__acrt_stdio_parse_mode_plus@@YA_NAAU__acrt_stdio_stream_mode@@AA_N@Z 10045aa2 f i libucrt:openfile.obj
 0001:00044ae4       ?__acrt_stdio_parse_mode_t@@YA_NAAU__acrt_stdio_stream_mode@@@Z 10045ae4 f i libucrt:openfile.obj
 0001:00044b0c       __openfile                 10045b0c f   libucrt:openfile.obj
 0001:00044b19       __wopenfile                10045b19 f   libucrt:openfile.obj
 0001:000451be       __read                     100461be f   libucrt:read.obj
 0001:00045315       __read_nolock              10046315 f   libucrt:read.obj
 0001:00045cad       ___acrt_stdio_refill_and_read_narrow_nolock 10046cad f   libucrt:_filbuf.obj
 0001:00045cba       ___acrt_stdio_refill_and_read_wide_nolock 10046cba f   libucrt:_filbuf.obj
 0001:00046419       __write                    10047419 f   libucrt:write.obj
 0001:0004653e       __write_nolock             1004753e f   libucrt:write.obj
 0001:00046c84       ___acrt_stdio_flush_and_write_narrow_nolock 10047c84 f   libucrt:_flsbuf.obj
 0001:00046c91       ___acrt_stdio_flush_and_write_wide_nolock 10047c91 f   libucrt:_flsbuf.obj
 0001:00046c9e       ___acrt_copy_path_to_wide_string 10047c9e f   libucrt:string_utilities.obj
 0001:00046d96       ___acrt_copy_to_char       10047d96 f   libucrt:string_utilities.obj
 0001:00046e81       __wremove                  10047e81 f   libucrt:wunlink.obj
 0001:00046eb3       __wunlink                  10047eb3 f   libucrt:wunlink.obj
 0001:00047327       __lseek                    10048327 f   libucrt:lseek.obj
 0001:00047334       __lseek_nolock             10048334 f   libucrt:lseek.obj
 0001:00047341       __lseeki64                 10048341 f   libucrt:lseek.obj
 0001:00047362       __lseeki64_nolock          10048362 f   libucrt:lseek.obj
 0001:00047383       __chgsign                  10048383 f   libucrt:ieeemisc.obj
 0001:000473bd       __chgsignf                 100483bd f   libucrt:ieeemisc.obj
 0001:000473e8       __copysign                 100483e8 f   libucrt:ieeemisc.obj
 0001:0004741c       __copysignf                1004841c f   libucrt:ieeemisc.obj
 0001:00047441       __finite                   10048441 f   libucrt:ieeemisc.obj
 0001:00047461       __fpclass                  10048461 f   libucrt:ieeemisc.obj
 0001:0004752e       __isnan                    1004852e f   libucrt:ieeemisc.obj
 0001:00047571       __logb                     10048571 f   libucrt:ieeemisc.obj
 0001:00047676       __nextafter                10048676 f   libucrt:ieeemisc.obj
 0001:0004769c       __scalb                    1004869c f   libucrt:ieeemisc.obj
 0001:000476bc       __add_exp                  100486bc f   libucrt:util.obj
 0001:000476f6       __decomp                   100486f6 f   libucrt:util.obj
 0001:000477ff       __get_exp                  100487ff f   libucrt:util.obj
 0001:0004781e       __set_bexp                 1004881e f   libucrt:util.obj
 0001:00047851       __set_exp                  10048851 f   libucrt:util.obj
 0001:0004788b       __sptype                   1004888b f   libucrt:util.obj
 0001:00047900       ___clrfp_sse2              10048900 f   libucrt:fpctrl.obj
 0001:00047929       ___ctrlfp_sse2             10048929 f   libucrt:fpctrl.obj
 0001:00047972       ___fclrf_sse2              10048972 f   libucrt:fpctrl.obj
 0001:00047998       ___get_fpsr_sse2           10048998 f   libucrt:fpctrl.obj
 0001:000479bd       ___set_fpsr_sse2           100489bd f   libucrt:fpctrl.obj
 0001:00047a50       ___set_statfp_sse2         10048a50 f   libucrt:fpctrl.obj
 0001:00047a71       ___statfp_sse2             10048a71 f   libucrt:fpctrl.obj
 0001:00047a8b       __clrfp                    10048a8b f   libucrt:fpctrl.obj
 0001:00047aa2       __ctrlfp                   10048aa2 f   libucrt:fpctrl.obj
 0001:00047ad9       __set_statfp               10048ad9 f   libucrt:fpctrl.obj
 0001:00047b4a       __statfp                   10048b4a f   libucrt:fpctrl.obj
 0001:00047c27       ___acrt_report_runtime_error 10048c27 f   libucrt:report_runtime_error.obj
 0001:00047d8d       __query_app_type           10048d8d f   libucrt:report_runtime_error.obj
 0001:00047d93       __set_app_type             10048d93 f   libucrt:report_runtime_error.obj
 0001:0004827f       __i64toa                   1004927f f   libucrt:xtoa.obj
 0001:000482d2       __i64toa_s                 100492d2 f   libucrt:xtoa.obj
 0001:00048323       __i64tow                   10049323 f   libucrt:xtoa.obj
 0001:00048376       __i64tow_s                 10049376 f   libucrt:xtoa.obj
 0001:000483c7       __itoa                     100493c7 f   libucrt:xtoa.obj
 0001:0004840b       __itoa_s                   1004940b f   libucrt:xtoa.obj
 0001:0004844d       __itow                     1004944d f   libucrt:xtoa.obj
 0001:00048491       __itow_s                   10049491 f   libucrt:xtoa.obj
 0001:000484d3       __ltoa                     100494d3 f   libucrt:xtoa.obj
 0001:00048517       __ltoa_s                   10049517 f   libucrt:xtoa.obj
 0001:00048559       __ltow                     10049559 f   libucrt:xtoa.obj
 0001:0004859d       __ltow_s                   1004959d f   libucrt:xtoa.obj
 0001:000485df       __ui64toa                  100495df f   libucrt:xtoa.obj
 0001:00048609       __ui64toa_s                10049609 f   libucrt:xtoa.obj
 0001:00048631       __ui64tow                  10049631 f   libucrt:xtoa.obj
 0001:0004865b       __ui64tow_s                1004965b f   libucrt:xtoa.obj
 0001:00048683       __ultoa                    10049683 f   libucrt:xtoa.obj
 0001:000486a9       __ultoa_s                  100496a9 f   libucrt:xtoa.obj
 0001:000486cd       __ultow                    100496cd f   libucrt:xtoa.obj
 0001:000486f3       __ultow_s                  100496f3 f   libucrt:xtoa.obj
 0001:00048717       __set_error_mode           10049717 f   libucrt:set_error_mode.obj
 0001:000487f3       _wcscat_s                  100497f3 f   libucrt:wcscat_s.obj
 0001:000488fd       _wcscpy_s                  100498fd f   libucrt:wcscpy_s.obj
 0001:00048a9d       _wcsncat_s                 10049a9d f   libucrt:wcsncat_s.obj
 0001:00048b2d       _strcat_s                  10049b2d f   libucrt:strcat_s.obj
 0001:00048cb4       _strncat_s                 10049cb4 f   libucrt:strncat_s.obj
 0001:00048edf       ??$message_box@$$TAAPBDAAPBDAAI@?$__crt_char_traits@D@@SAH$$QA$$TAAPBD1AAI@Z 10049edf f i libucrt:crtmbox.obj
 0001:00048f07       ??$message_box@$$TAAPB_WAAPB_WAAI@?$__crt_char_traits@_W@@SAH$$QA$$TAAPB_W1AAI@Z 10049f07 f i libucrt:crtmbox.obj
 0001:00048f2f       ??$message_box@$$TABQBDABQBDK@?$__crt_char_traits@D@@SAH$$QA$$TABQBD1$$QAK@Z 10049f2f f i libucrt:crtmbox.obj
 0001:00048f57       ??$message_box@$$TABQB_WABQB_WK@?$__crt_char_traits@_W@@SAH$$QA$$TABQB_W1$$QAK@Z 10049f57 f i libucrt:crtmbox.obj
 0001:00048f7f       ??$message_box@PAUHWND__@@ABQBDABQBDABI@?$__crt_char_traits@D@@SAH$$QAPAUHWND__@@ABQBD1ABI@Z 10049f7f f i libucrt:crtmbox.obj
 0001:00048fa7       ??$message_box@PAUHWND__@@ABQB_WABQB_WABI@?$__crt_char_traits@_W@@SAH$$QAPAUHWND__@@ABQB_W1ABI@Z 10049fa7 f i libucrt:crtmbox.obj
 0001:00049023       ??$output_debug_string@ABQBD@?$__crt_char_traits@D@@SAXABQBD@Z 1004a023 f i libucrt:crtmbox.obj
 0001:00049039       ??$output_debug_string@ABQB_W@?$__crt_char_traits@_W@@SAXABQB_W@Z 1004a039 f i libucrt:crtmbox.obj
 0001:0004904f       ??0?$__crt_unique_handle_t@U__crt_handle_traits@@@@QAE@QAX@Z 1004a04f f i libucrt:crtmbox.obj
 0001:00049063       ??1?$__crt_unique_handle_t@U__crt_handle_traits@@@@QAE@XZ 1004a063 f i libucrt:crtmbox.obj
 0001:0004907f       ??B?$__crt_unique_handle_t@U__crt_handle_traits@@@@QBE_NXZ 1004a07f f i libucrt:crtmbox.obj
 0001:0004908a       ?close@?$__crt_unique_handle_t@U__crt_handle_traits@@@@QAEXXZ 1004a08a f i libucrt:crtmbox.obj
 0001:000490a6       ?close@__crt_handle_traits@@SA_NPAX@Z 1004a0a6 f i libucrt:crtmbox.obj
 0001:000490c1       ?get@?$__crt_unique_handle_t@U__crt_handle_traits@@@@QBEPAXXZ 1004a0c1 f i libucrt:crtmbox.obj
 0001:000490c4       ?get_invalid_value@__crt_handle_traits@@SAPAXXZ 1004a0c4 f i libucrt:crtmbox.obj
 0001:000490c8       ?is_valid@?$__crt_unique_handle_t@U__crt_handle_traits@@@@QBE_NXZ 1004a0c8 f i libucrt:crtmbox.obj
 0001:000490d3       ___acrt_show_narrow_message_box 1004a0d3 f   libucrt:crtmbox.obj
 0001:000490e0       ___acrt_show_wide_message_box 1004a0e0 f   libucrt:crtmbox.obj
 0001:000490ed       ??$?RV<lambda_d92cfe8357b99225085016881b624cb0>@@AAV<lambda_b721fa326cdb32351d23dfa67958c160>@@V<lambda_42d75b0848218ec137fa420c8ba9fdf9>@@@?$__crt_seh_guarded_call@H@@QAEH$$QAV<lambda_d92cfe8357b99225085016881b624cb0>@@AAV<lambda_b721fa326cdb32351d23dfa67958c160>@@$$QAV<lambda_42d75b0848218ec137fa420c8ba9fdf9>@@@Z 1004a0ed f i libucrt:setvbuf.obj
 0001:00049152       ??$__acrt_lock_stream_and_call@V<lambda_b721fa326cdb32351d23dfa67958c160>@@@@YAHQAU_iobuf@@$$QAV<lambda_b721fa326cdb32351d23dfa67958c160>@@@Z 1004a152 f i libucrt:setvbuf.obj
 0001:000492ef       _setvbuf                   1004a2ef f   libucrt:setvbuf.obj
 0001:00049382       ??$?B$$A6AXH@Z@__crt_fast_encoded_nullptr_t@@QBEP6AXH@ZXZ 1004a382 f i libucrt:signal.obj
 0001:000493a0       ??$?RV<lambda_a048d3beccc847880fc8490e18b82769>@@AAV<lambda_ec61778202f4f5fc7e7711acc23c3bca>@@V<lambda_f7496a158712204296dd6628a163878e>@@@?$__crt_seh_guarded_call@P6AXH@Z@@QAEP6AXH@Z$$QAV<lambda_a048d3beccc847880fc8490e18b82769>@@AAV<lambda_ec61778202f4f5fc7e7711acc23c3bca>@@$$QAV<lambda_f7496a158712204296dd6628a163878e>@@@Z 1004a3a0 f i libucrt:signal.obj
 0001:00049410       ??$__acrt_lock_and_call@V<lambda_ec61778202f4f5fc7e7711acc23c3bca>@@@@YAP6AXH@ZW4__acrt_lock_id@@$$QAV<lambda_ec61778202f4f5fc7e7711acc23c3bca>@@@Z 1004a410 f i libucrt:signal.obj
 0001:00049442       ??$__crt_fast_decode_pointer@P6AXH@Z@@YAP6AXH@ZQ6AXH@Z@Z 1004a442 f i libucrt:signal.obj
 0001:0004945d       ??$__crt_fast_encode_pointer@P6AXH@Z@@YAP6AXH@ZQ6AXH@Z@Z 1004a45d f i libucrt:signal.obj
 0001:00049607       ?initialize@?$dual_state_global@P6AXH@Z@__crt_state_management@@QAEXQ6AXH@Z@Z 1004a607 f i libucrt:signal.obj
 0001:000496b3       ?value@?$dual_state_global@P6AXH@Z@__crt_state_management@@QAEAAP6AXH@ZXZ 1004a6b3 f i libucrt:signal.obj
 0001:000496b6       ___acrt_get_sigabrt_handler 1004a6b6 f   libucrt:signal.obj
 0001:000496d2       ___acrt_initialize_signal_handlers 1004a6d2 f   libucrt:signal.obj
 0001:0004971b       ___fpecode                 1004a71b f   libucrt:signal.obj
 0001:00049726       ___pxcptinfoptrs           1004a726 f   libucrt:signal.obj
 0001:00049731       _raise                     1004a731 f   libucrt:signal.obj
 0001:000499bb       _signal                    1004a9bb f   libucrt:signal.obj
 0001:00049bd9       ??$__crt_fast_decode_pointer@P6AHPAU_exception@@@Z@@YAP6AHPAU_exception@@@ZQ6AH0@Z@Z 1004abd9 f i libucrt:matherr.obj
 0001:00049bf4       ??$__crt_fast_encode_pointer@P6AHPAU_exception@@@Z@@YAP6AHPAU_exception@@@ZQ6AH0@Z@Z 1004abf4 f i libucrt:matherr.obj
 0001:00049c1a       ?initialize@?$dual_state_global@P6AHPAU_exception@@@Z@__crt_state_management@@QAEXQ6AHPAU_exception@@@Z@Z 1004ac1a f i libucrt:matherr.obj
 0001:00049c57       ?value@?$dual_state_global@P6AHPAU_exception@@@Z@__crt_state_management@@QAEAAP6AHPAU_exception@@@ZXZ 1004ac57 f i libucrt:matherr.obj
 0001:00049c5a       ___acrt_has_user_matherr   1004ac5a f   libucrt:matherr.obj
 0001:00049c79       ___acrt_initialize_user_matherr 1004ac79 f   libucrt:matherr.obj
 0001:00049c92       ___acrt_invoke_user_matherr 1004ac92 f   libucrt:matherr.obj
 0001:00049ced       ___setusermatherr          1004aced f   libucrt:matherr.obj
 0001:0004a6ff       ??$find_first_file_ex@ABQADW4_FINDEX_INFO_LEVELS@@PAU_WIN32_FIND_DATAA@@W4_FINDEX_SEARCH_OPS@@$$TH@?$__crt_char_traits@D@@SAPAXABQAD$$QAW4_FINDEX_INFO_LEVELS@@$$QAPAU_WIN32_FIND_DATAA@@$$QAW4_FINDEX_SEARCH_OPS@@$$QA$$T$$QAH@Z 1004b6ff f i libucrt:argv_wildcards.obj
 0001:0004a734       ??$find_first_file_ex@ABQA_WW4_FINDEX_INFO_LEVELS@@PAU_WIN32_FIND_DATAW@@W4_FINDEX_SEARCH_OPS@@$$TH@?$__crt_char_traits@_W@@SAPAXABQA_W$$QAW4_FINDEX_INFO_LEVELS@@$$QAPAU_WIN32_FIND_DATAW@@$$QAW4_FINDEX_SEARCH_OPS@@$$QA$$T$$QAH@Z 1004b734 f i libucrt:argv_wildcards.obj
 0001:0004a769       ??$find_next_file@PAXPAU_WIN32_FIND_DATAA@@@?$__crt_char_traits@D@@SAH$$QAPAX$$QAPAU_WIN32_FIND_DATAA@@@Z 1004b769 f i libucrt:argv_wildcards.obj
 0001:0004a785       ??$find_next_file@PAXPAU_WIN32_FIND_DATAW@@@?$__crt_char_traits@_W@@SAH$$QAPAX$$QAPAU_WIN32_FIND_DATAW@@@Z 1004b785 f i libucrt:argv_wildcards.obj
 0001:0004a7a1       ??$tcsncpy_s@AAPADIAAPADABI@?$__crt_char_traits@D@@SAHAAPAD$$QAI0ABI@Z 1004b7a1 f i libucrt:argv_wildcards.obj
 0001:0004a7cc       ??$tcsncpy_s@AAPA_WIAAPA_WABI@?$__crt_char_traits@_W@@SAHAAPA_W$$QAI0ABI@Z 1004b7cc f i libucrt:argv_wildcards.obj
 0001:0004a7f7       ??$tcsncpy_s@PAD$$CBIABQBDABI@?$__crt_char_traits@D@@SAH$$QAPAD$$QBIABQBDABI@Z 1004b7f7 f i libucrt:argv_wildcards.obj
 0001:0004a822       ??$tcsncpy_s@PADABIABQBDABI@?$__crt_char_traits@D@@SAH$$QAPADABIABQBD1@Z 1004b822 f i libucrt:argv_wildcards.obj
 0001:0004a84d       ??$tcsncpy_s@PA_W$$CBIABQB_WABI@?$__crt_char_traits@_W@@SAH$$QAPA_W$$QBIABQB_WABI@Z 1004b84d f i libucrt:argv_wildcards.obj
 0001:0004a878       ??$tcsncpy_s@PA_WABIABQB_WABI@?$__crt_char_traits@_W@@SAH$$QAPA_WABIABQB_W1@Z 1004b878 f i libucrt:argv_wildcards.obj
 0001:0004a8a3       ??$tcspbrk@AAPADAAY02$$CBD@?$__crt_char_traits@D@@SAPADAAPADAAY02$$CBD@Z 1004b8a3 f i libucrt:argv_wildcards.obj
 0001:0004a8be       ??$tcspbrk@AAPA_WAAY02$$CB_W@?$__crt_char_traits@_W@@SAPA_WAAPA_WAAY02$$CB_W@Z 1004b8be f i libucrt:argv_wildcards.obj
 0001:0004a8d9       ??0?$__crt_unique_handle_t@U__crt_findfile_traits@@@@QAE@QAX@Z 1004b8d9 f i libucrt:argv_wildcards.obj
 0001:0004a8ed       ??0?$argument_list@D@?A0xb0e4b824@@QAE@XZ 1004b8ed f i libucrt:argv_wildcards.obj
 0001:0004a8fd       ??0?$argument_list@_W@?A0xb0e4b824@@QAE@XZ 1004b8fd f i libucrt:argv_wildcards.obj
 0001:0004a90d       ??1?$__crt_unique_handle_t@U__crt_findfile_traits@@@@QAE@XZ 1004b90d f i libucrt:argv_wildcards.obj
 0001:0004a929       ??1?$argument_list@D@?A0xb0e4b824@@QAE@XZ 1004b929 f i libucrt:argv_wildcards.obj
 0001:0004a957       ??1?$argument_list@_W@?A0xb0e4b824@@QAE@XZ 1004b957 f i libucrt:argv_wildcards.obj
 0001:0004a9e5       ?append@?$argument_list@D@?A0xb0e4b824@@QAEHQAD@Z 1004b9e5 f i libucrt:argv_wildcards.obj
 0001:0004aa27       ?append@?$argument_list@_W@?A0xb0e4b824@@QAEHQA_W@Z 1004ba27 f i libucrt:argv_wildcards.obj
 0001:0004aa69       ?begin@?$argument_list@D@?A0xb0e4b824@@QBEPAPADXZ 1004ba69 f i libucrt:argv_wildcards.obj
 0001:0004aa6c       ?begin@?$argument_list@_W@?A0xb0e4b824@@QBEPAPA_WXZ 1004ba6c f i libucrt:argv_wildcards.obj
 0001:0004aa6f       ?close@?$__crt_unique_handle_t@U__crt_findfile_traits@@@@QAEXXZ 1004ba6f f i libucrt:argv_wildcards.obj
 0001:0004aa8b       ?close@__crt_findfile_traits@@SA_NPAX@Z 1004ba8b f i libucrt:argv_wildcards.obj
 0001:0004aaa6       ?end@?$argument_list@D@?A0xb0e4b824@@QBEPAPADXZ 1004baa6 f i libucrt:argv_wildcards.obj
 0001:0004aaaa       ?end@?$argument_list@_W@?A0xb0e4b824@@QBEPAPA_WXZ 1004baaa f i libucrt:argv_wildcards.obj
 0001:0004aaae       ?expand_if_necessary@?$argument_list@D@?A0xb0e4b824@@AAEHXZ 1004baae f i libucrt:argv_wildcards.obj
 0001:0004ab56       ?expand_if_necessary@?$argument_list@_W@?A0xb0e4b824@@AAEHXZ 1004bb56 f i libucrt:argv_wildcards.obj
 0001:0004abfe       ?get@?$__crt_unique_handle_t@U__crt_findfile_traits@@@@QBEPAXXZ 1004bbfe f i libucrt:argv_wildcards.obj
 0001:0004ac01       ?get_invalid_value@__crt_findfile_traits@@SAPAXXZ 1004bc01 f i libucrt:argv_wildcards.obj
 0001:0004ac22       ?size@?$argument_list@D@?A0xb0e4b824@@QBEIXZ 1004bc22 f i libucrt:argv_wildcards.obj
 0001:0004ac2d       ?size@?$argument_list@_W@?A0xb0e4b824@@QBEIXZ 1004bc2d f i libucrt:argv_wildcards.obj
 0001:0004ac38       ?strpbrk@@YAPADQADQBD@Z    1004bc38 f i libucrt:argv_wildcards.obj
 0001:0004ac45       ?wcspbrk@@YAPA_WPA_WPB_W@Z 1004bc45 f i libucrt:argv_wildcards.obj
 0001:0004ac52       ___acrt_expand_narrow_argv_wildcards 1004bc52 f   libucrt:argv_wildcards.obj
 0001:0004ac5f       ___acrt_expand_wide_argv_wildcards 1004bc5f f   libucrt:argv_wildcards.obj
 0001:0004ac6c       ??$?RV<lambda_978dc153c237d78434369da87b74ff60>@@AAV<lambda_ad1ced32f4ac17aa236e5ef05d6b3b7c>@@V<lambda_4a8533e2866a575feecb8298ce776b0d>@@@?$__crt_seh_guarded_call@X@@QAEX$$QAV<lambda_978dc153c237d78434369da87b74ff60>@@AAV<lambda_ad1ced32f4ac17aa236e5ef05d6b3b7c>@@$$QAV<lambda_4a8533e2866a575feecb8298ce776b0d>@@@Z 1004bc6c f i libucrt:mbctype.obj
 0001:0004acbf       ??$__acrt_lock_and_call@V<lambda_ad1ced32f4ac17aa236e5ef05d6b3b7c>@@@@YAXW4__acrt_lock_id@@$$QAV<lambda_ad1ced32f4ac17aa236e5ef05d6b3b7c>@@@Z 1004bcbf f i libucrt:mbctype.obj
 0001:0004b2d0       ___acrt_initialize_multibyte 1004c2d0 f   libucrt:mbctype.obj
 0001:0004b2f5       ___acrt_update_thread_multibyte_data 1004c2f5 f   libucrt:mbctype.obj
 0001:0004b3bf       ___p__mbcasemap            1004c3bf f   libucrt:mbctype.obj
 0001:0004b3c5       ___p__mbctype              1004c3c5 f   libucrt:mbctype.obj
 0001:0004b3cb       __getmbcp                  1004c3cb f   libucrt:mbctype.obj
 0001:0004b40e       __setmbcp                  1004c40e f   libucrt:mbctype.obj
 0001:0004b425       __setmbcp_nolock           1004c425 f   libucrt:mbctype.obj
 0001:0004b7a2       __ismbbalnum               1004c7a2 f   libucrt:ismbbyte.obj
 0001:0004b7c3       __ismbbalnum_l             1004c7c3 f   libucrt:ismbbyte.obj
 0001:0004b7e6       __ismbbalpha               1004c7e6 f   libucrt:ismbbyte.obj
 0001:0004b807       __ismbbalpha_l             1004c807 f   libucrt:ismbbyte.obj
 0001:0004b82a       __ismbbblank               1004c82a f   libucrt:ismbbyte.obj
 0001:0004b855       __ismbbblank_l             1004c855 f   libucrt:ismbbyte.obj
 0001:0004b882       __ismbbgraph               1004c882 f   libucrt:ismbbyte.obj
 0001:0004b8a3       __ismbbgraph_l             1004c8a3 f   libucrt:ismbbyte.obj
 0001:0004b8c6       __ismbbkalnum              1004c8c6 f   libucrt:ismbbyte.obj
 0001:0004b8e4       __ismbbkalnum_l            1004c8e4 f   libucrt:ismbbyte.obj
 0001:0004b903       __ismbbkana                1004c903 f   libucrt:ismbbyte.obj
 0001:0004b91a       __ismbbkana_l              1004c91a f   libucrt:ismbbyte.obj
 0001:0004b97f       __ismbbkprint              1004c97f f   libucrt:ismbbyte.obj
 0001:0004b99d       __ismbbkprint_l            1004c99d f   libucrt:ismbbyte.obj
 0001:0004b9bc       __ismbbkpunct              1004c9bc f   libucrt:ismbbyte.obj
 0001:0004b9da       __ismbbkpunct_l            1004c9da f   libucrt:ismbbyte.obj
 0001:0004b9f9       __ismbblead                1004c9f9 f   libucrt:ismbbyte.obj
 0001:0004ba17       __ismbblead_l              1004ca17 f   libucrt:ismbbyte.obj
 0001:0004ba36       __ismbbprint               1004ca36 f   libucrt:ismbbyte.obj
 0001:0004ba57       __ismbbprint_l             1004ca57 f   libucrt:ismbbyte.obj
 0001:0004ba7a       __ismbbpunct               1004ca7a f   libucrt:ismbbyte.obj
 0001:0004ba98       __ismbbpunct_l             1004ca98 f   libucrt:ismbbyte.obj
 0001:0004bab7       __ismbbtrail               1004cab7 f   libucrt:ismbbyte.obj
 0001:0004bad5       __ismbbtrail_l             1004cad5 f   libucrt:ismbbyte.obj
 0001:0004baf4       ___acrt_initialize_command_line 1004caf4 f   libucrt:argv_data.obj
 0001:0004bb13       ___acrt_uninitialize_command_line 1004cb13 f   libucrt:argv_data.obj
 0001:0004bb16       ___p___argc                1004cb16 f   libucrt:argv_data.obj
 0001:0004bb1c       ___p___argv                1004cb1c f   libucrt:argv_data.obj
 0001:0004bb22       ___p___wargv               1004cb22 f   libucrt:argv_data.obj
 0001:0004bb28       ___p__acmdln               1004cb28 f   libucrt:argv_data.obj
 0001:0004bb2e       ___p__pgmptr               1004cb2e f   libucrt:argv_data.obj
 0001:0004bb34       ___p__wcmdln               1004cb34 f   libucrt:argv_data.obj
 0001:0004bb3a       ___p__wpgmptr              1004cb3a f   libucrt:argv_data.obj
 0001:0004bb40       __get_pgmptr               1004cb40 f   libucrt:argv_data.obj
 0001:0004bb7d       __get_wpgmptr              1004cb7d f   libucrt:argv_data.obj
 0001:0004bbba       ??0?$__crt_unique_handle_t@Uenvironment_strings_traits@?A0x588e5281@@@@QAE@QA_W@Z 1004cbba f i libucrt:get_environment_from_os.obj
 0001:0004bbce       ??1?$__crt_unique_handle_t@Uenvironment_strings_traits@?A0x588e5281@@@@QAE@XZ 1004cbce f i libucrt:get_environment_from_os.obj
 0001:0004bbea       ??B?$__crt_unique_handle_t@Uenvironment_strings_traits@?A0x588e5281@@@@QBE_NXZ 1004cbea f i libucrt:get_environment_from_os.obj
 0001:0004bbf4       ?close@?$__crt_unique_handle_t@Uenvironment_strings_traits@?A0x588e5281@@@@QAEXXZ 1004cbf4 f i libucrt:get_environment_from_os.obj
 0001:0004bc10       ?close@environment_strings_traits@?A0x588e5281@@SA_NPA_W@Z 1004cc10 f i libucrt:get_environment_from_os.obj
 0001:0004bc6a       ?get@?$__crt_unique_handle_t@Uenvironment_strings_traits@?A0x588e5281@@@@QBEPA_WXZ 1004cc6a f i libucrt:get_environment_from_os.obj
 0001:0004bc6d       ?get_invalid_value@environment_strings_traits@?A0x588e5281@@SAPA_WXZ 1004cc6d f i libucrt:get_environment_from_os.obj
 0001:0004bc70       ?is_valid@?$__crt_unique_handle_t@Uenvironment_strings_traits@?A0x588e5281@@@@QBE_NXZ 1004cc70 f i libucrt:get_environment_from_os.obj
 0001:0004bc7a       ___dcrt_get_narrow_environment_from_os 1004cc7a f   libucrt:get_environment_from_os.obj
 0001:0004bd1d       ___dcrt_get_wide_environment_from_os 1004cd1d f   libucrt:get_environment_from_os.obj
 0001:0004c5b5       ??$get_or_create_environment_nolock@$$$V@?$__crt_char_traits@D@@SAPAPADXZ 1004d5b5 f i libucrt:setenv.obj
 0001:0004c5ba       ??$get_or_create_environment_nolock@$$$V@?$__crt_char_traits@_W@@SAPAPA_WXZ 1004d5ba f i libucrt:setenv.obj
 0001:0004c5bf       ??$set_environment_variable@ABQADQAD@?$__crt_char_traits@D@@SAHABQAD$$QBQAD@Z 1004d5bf f i libucrt:setenv.obj
 0001:0004c5db       ??$set_environment_variable@ABQA_WQA_W@?$__crt_char_traits@_W@@SAHABQA_W$$QBQA_W@Z 1004d5db f i libucrt:setenv.obj
 0001:0004c5f7       ??$tcschr@ABQADD@?$__crt_char_traits@D@@SAPADABQAD$$QAD@Z 1004d5f7 f i libucrt:setenv.obj
 0001:0004c617       ??$tcschr@ABQA_WD@?$__crt_char_traits@_W@@SAPA_WABQA_W$$QAD@Z 1004d617 f i libucrt:setenv.obj
 0001:0004c63c       ??$tcscpy_s@AAPADABIAAPAD@?$__crt_char_traits@D@@SAHAAPADABI0@Z 1004d63c f i libucrt:setenv.obj
 0001:0004c661       ??$tcscpy_s@AAPA_WABIAAPA_W@?$__crt_char_traits@_W@@SAHAAPA_WABI0@Z 1004d661 f i libucrt:setenv.obj
 0001:0004c686       ??$tcscpy_s@ABQADABIABQAD@?$__crt_char_traits@D@@SAHABQADABI0@Z 1004d686 f i libucrt:setenv.obj
 0001:0004c6ab       ??$tcscpy_s@ABQA_WABIABQA_W@?$__crt_char_traits@_W@@SAHABQA_WABI0@Z 1004d6ab f i libucrt:setenv.obj
 0001:0004c6d0       ??$tcsnicoll@ABQBDAAPADABI@?$__crt_char_traits@D@@SAHABQBDAAPADABI@Z 1004d6d0 f i libucrt:setenv.obj
 0001:0004c6f5       ??$tcsnicoll@ABQB_WAAPA_WABI@?$__crt_char_traits@_W@@SAHABQB_WAAPA_WABI@Z 1004d6f5 f i libucrt:setenv.obj
 0001:0004c73e       ?strchr@@YAPADQADH@Z       1004d73e f i libucrt:setenv.obj
 0001:0004c74b       ?wcschr@@YAPA_WPA_W_W@Z    1004d74b f i libucrt:setenv.obj
 0001:0004c758       ___dcrt_set_variable_in_narrow_environment_nolock 1004d758 f   libucrt:setenv.obj
 0001:0004c765       ___dcrt_set_variable_in_wide_environment_nolock 1004d765 f   libucrt:setenv.obj
 0001:0004c772       __recalloc                 1004d772 f   libucrt:recalloc.obj
 0001:0004c77f       __recalloc_base            1004d77f f   libucrt:recalloc.obj
 0001:0004c807       ___acrt_getheap            1004d807 f   libucrt:heap_handle.obj
 0001:0004c80d       ___acrt_initialize_heap    1004d80d f   libucrt:heap_handle.obj
 0001:0004c822       ___acrt_uninitialize_heap  1004d822 f   libucrt:heap_handle.obj
 0001:0004c82e       __get_heap_handle          1004d82e f   libucrt:heap_handle.obj
 0001:0004c834       ___acrt_execute_initializers 1004d834 f   libucrt:shared_initialization.obj
 0001:0004c8d7       ___acrt_execute_uninitializers 1004d8d7 f   libucrt:shared_initialization.obj
 0001:0004c937       ??$?B$$A6AHI@Z@__crt_fast_encoded_nullptr_t@@QBEP6AHI@ZXZ 1004d937 f i libucrt:new_handler.obj
 0001:0004c955       ??$__crt_fast_decode_pointer@P6AHI@Z@@YAP6AHI@ZQ6AHI@Z@Z 1004d955 f i libucrt:new_handler.obj
 0001:0004c970       ??$__crt_fast_encode_pointer@P6AHI@Z@@YAP6AHI@ZQ6AHI@Z@Z 1004d970 f i libucrt:new_handler.obj
 0001:0004c996       ?_set_new_handler@@YAP6AHI@ZH@Z 1004d996 f   libucrt:new_handler.obj
 0001:0004c9bc       ?initialize@?$dual_state_global@P6AHI@Z@__crt_state_management@@QAEXQ6AHI@Z@Z 1004d9bc f i libucrt:new_handler.obj
 0001:0004c9f9       ?value@?$dual_state_global@P6AHI@Z@__crt_state_management@@QAEAAP6AHI@ZXZ 1004d9f9 f i libucrt:new_handler.obj
 0001:0004c9fc       ___acrt_initialize_new_handler 1004d9fc f   libucrt:new_handler.obj
 0001:0004ca15       __callnewh                 1004da15 f   libucrt:new_handler.obj
 0001:0004ca6a       __query_new_handler        1004da6a f   libucrt:new_handler.obj
 0001:0004cad0       __set_new_handler          1004dad0 f   libucrt:new_handler.obj
 0001:0004cb48       ?value@?$dual_state_global@J@__crt_state_management@@QAEAAJXZ 1004db48 f i libucrt:new_mode.obj
 0001:0004cb4b       __query_new_mode           1004db4b f   libucrt:new_mode.obj
 0001:0004cb51       __set_new_mode             1004db51 f   libucrt:new_mode.obj
 0001:0004cb8b       ___pctype_func             1004db8b f   libucrt:ctype.obj
 0001:0004cbba       ___pwctype_func            1004dbba f   libucrt:ctype.obj
 0001:0004cbc0       __iswctype_l               1004dbc0 f   libucrt:iswctype.obj
 0001:0004cbd9       _iswctype                  1004dbd9 f   libucrt:iswctype.obj
 0001:0004cc4f       __isctype                  1004dc4f f   libucrt:isctype.obj
 0001:0004cc8c       __isctype_l                1004dc8c f   libucrt:isctype.obj
 0001:0004cf53       ___acrt_DownlevelLCIDToLocaleName 1004df53 f   libucrt:lcidtoname_downlevel.obj
 0001:0004d027       ___acrt_DownlevelLocaleNameToLCID 1004e027 f   libucrt:lcidtoname_downlevel.obj
 0001:0004d05e       ??$?RV<lambda_61cee617f5178ae960314fd4d05640a0>@@AAV<lambda_6978c1fb23f02e42e1d9e99668cc68aa>@@V<lambda_9cd88cf8ad10232537feb2133f08c833>@@@?$__crt_seh_guarded_call@H@@QAEH$$QAV<lambda_61cee617f5178ae960314fd4d05640a0>@@AAV<lambda_6978c1fb23f02e42e1d9e99668cc68aa>@@$$QAV<lambda_9cd88cf8ad10232537feb2133f08c833>@@@Z 1004e05e f i libucrt:commit.obj
 0001:0004d11c       ??$__acrt_lowio_lock_fh_and_call@V<lambda_6978c1fb23f02e42e1d9e99668cc68aa>@@@@YAHH$$QAV<lambda_6978c1fb23f02e42e1d9e99668cc68aa>@@@Z 1004e11c f i libucrt:commit.obj
 0001:0004d20e       __commit                   1004e20e f   libucrt:commit.obj
 0001:0004d298       ??$?RU__crt_lowio_handle_data@@@__crt_internal_free_policy@@QBEXQBU__crt_lowio_handle_data@@@Z 1004e298 f i libucrt:osfinfo.obj
 0001:0004d2ae       ??0?$__crt_unique_heap_ptr@U__crt_lowio_handle_data@@U__crt_internal_free_policy@@@@QAE@QAU__crt_lowio_handle_data@@@Z 1004e2ae f i libucrt:osfinfo.obj
 0001:0004d2c2       ??1?$__crt_unique_heap_ptr@U__crt_lowio_handle_data@@U__crt_internal_free_policy@@@@QAE@XZ 1004e2c2 f i libucrt:osfinfo.obj
 0001:0004d2d8       ??B?$__crt_unique_heap_ptr@U__crt_lowio_handle_data@@U__crt_internal_free_policy@@@@QBE_NXZ 1004e2d8 f i libucrt:osfinfo.obj
 0001:0004d2e2       ?detach@?$__crt_unique_heap_ptr@U__crt_lowio_handle_data@@U__crt_internal_free_policy@@@@QAEPAU__crt_lowio_handle_data@@XZ 1004e2e2 f i libucrt:osfinfo.obj
 0001:0004d2e8       ?get@?$__crt_unique_heap_ptr@U__crt_lowio_handle_data@@U__crt_internal_free_policy@@@@QBEPAU__crt_lowio_handle_data@@XZ 1004e2e8 f i libucrt:osfinfo.obj
 0001:0004d2eb       ?is_valid@?$__crt_unique_heap_ptr@U__crt_lowio_handle_data@@U__crt_internal_free_policy@@@@QBE_NXZ 1004e2eb f i libucrt:osfinfo.obj
 0001:0004d2f5       ?release@?$__crt_unique_heap_ptr@U__crt_lowio_handle_data@@U__crt_internal_free_policy@@@@QAEXXZ 1004e2f5 f i libucrt:osfinfo.obj
 0001:0004d30b       ___acrt_lowio_create_handle_array 1004e30b f   libucrt:osfinfo.obj
 0001:0004d3a3       ___acrt_lowio_destroy_handle_array 1004e3a3 f   libucrt:osfinfo.obj
 0001:0004d3e5       ___acrt_lowio_ensure_fh_exists 1004e3e5 f   libucrt:osfinfo.obj
 0001:0004d4a3       ___acrt_lowio_lock_fh      1004e4a3 f   libucrt:osfinfo.obj
 0001:0004d4ce       ___acrt_lowio_set_os_handle 1004e4ce f   libucrt:osfinfo.obj
 0001:0004d587       ___acrt_lowio_unlock_fh    1004e587 f   libucrt:osfinfo.obj
 0001:0004d5b2       __alloc_osfhnd             1004e5b2 f   libucrt:osfinfo.obj
 0001:0004d708       __free_osfhnd              1004e708 f   libucrt:osfinfo.obj
 0001:0004d7bd       __get_osfhandle            1004e7bd f   libucrt:osfinfo.obj
 0001:0004d841       __open_osfhandle           1004e841 f   libucrt:osfinfo.obj
 0001:0004d992       ___iswcsym                 1004e992 f i libucrt:_wctype.obj
 0001:0004d9c1       ___iswcsymf                1004e9c1 f i libucrt:_wctype.obj
 0001:0004d9f0       __isleadbyte_l             1004e9f0 f i libucrt:_wctype.obj
 0001:0004da37       __iswalnum_l               1004ea37 f i libucrt:_wctype.obj
 0001:0004da52       __iswalpha_l               1004ea52 f i libucrt:_wctype.obj
 0001:0004da6d       __iswblank_l               1004ea6d f i libucrt:_wctype.obj
 0001:0004da91       __iswcntrl_l               1004ea91 f i libucrt:_wctype.obj
 0001:0004daa8       __iswcsym_l                1004eaa8 f i libucrt:_wctype.obj
 0001:0004dad7       __iswcsymf_l               1004ead7 f i libucrt:_wctype.obj
 0001:0004db06       __iswdigit_l               1004eb06 f i libucrt:_wctype.obj
 0001:0004db1d       __iswgraph_l               1004eb1d f i libucrt:_wctype.obj
 0001:0004db38       __iswlower_l               1004eb38 f i libucrt:_wctype.obj
 0001:0004db4f       __iswprint_l               1004eb4f f i libucrt:_wctype.obj
 0001:0004db6a       __iswpunct_l               1004eb6a f i libucrt:_wctype.obj
 0001:0004db81       __iswspace_l               1004eb81 f i libucrt:_wctype.obj
 0001:0004db98       __iswupper_l               1004eb98 f i libucrt:_wctype.obj
 0001:0004dbaf       __iswxdigit_l              1004ebaf f i libucrt:_wctype.obj
 0001:0004dbca       _isleadbyte                1004ebca f i libucrt:_wctype.obj
 0001:0004dbe1       _iswalnum                  1004ebe1 f i libucrt:_wctype.obj
 0001:0004dbfc       _iswalpha                  1004ebfc f i libucrt:_wctype.obj
 0001:0004dc17       _iswascii                  1004ec17 f i libucrt:_wctype.obj
 0001:0004dc30       _iswblank                  1004ec30 f i libucrt:_wctype.obj
 0001:0004dc54       _iswcntrl                  1004ec54 f i libucrt:_wctype.obj
 0001:0004dc6b       _iswdigit                  1004ec6b f i libucrt:_wctype.obj
 0001:0004dc82       _iswgraph                  1004ec82 f i libucrt:_wctype.obj
 0001:0004dc9d       _iswlower                  1004ec9d f i libucrt:_wctype.obj
 0001:0004dcb4       _iswprint                  1004ecb4 f i libucrt:_wctype.obj
 0001:0004dccf       _iswpunct                  1004eccf f i libucrt:_wctype.obj
 0001:0004dce6       _iswspace                  1004ece6 f i libucrt:_wctype.obj
 0001:0004dcfd       _iswupper                  1004ecfd f i libucrt:_wctype.obj
 0001:0004dd14       _iswxdigit                 1004ed14 f i libucrt:_wctype.obj
 0001:0004dd2f       ??0?$__crt_scoped_stack_ptr@_W@@QAE@U?$__crt_scoped_stack_ptr_tag@_W@@@Z 1004ed2f f i libucrt:lcmapstringa.obj
 0001:0004dd43       ??0?$__crt_scoped_stack_ptr_tag@_W@@QAE@QA_W@Z 1004ed43 f i libucrt:lcmapstringa.obj
 0001:0004dd57       ??1?$__crt_scoped_stack_ptr@_W@@QAE@XZ 1004ed57 f i libucrt:lcmapstringa.obj
 0001:0004dd62       ??B?$__crt_scoped_stack_ptr@_W@@QBE_NXZ 1004ed62 f i libucrt:lcmapstringa.obj
 0001:0004e010       ?get@?$__crt_scoped_stack_ptr@_W@@QBEPA_WXZ 1004f010 f i libucrt:lcmapstringa.obj
 0001:0004e013       __MallocaComputeSize       1004f013 f i libucrt:lcmapstringa.obj
 0001:0004e02a       __MarkAllocaS              1004f02a f i libucrt:lcmapstringa.obj
 0001:0004e045       ___acrt_LCMapStringA       1004f045 f   libucrt:lcmapstringa.obj
 0001:0004e0a2       __freea_crt                1004f0a2 f i libucrt:lcmapstringa.obj
 0001:0004e0ca       ??$?RG@__crt_internal_free_policy@@QBEXQBG@Z 1004f0ca f i libucrt:initctype.obj
 0001:0004e0e0       ??$?RJ@__crt_internal_free_policy@@QBEXQBJ@Z 1004f0e0 f i libucrt:initctype.obj
 0001:0004e0f6       ??0?$__crt_unique_heap_ptr@GU__crt_internal_free_policy@@@@QAE@QAG@Z 1004f0f6 f i libucrt:initctype.obj
 0001:0004e10a       ??0?$__crt_unique_heap_ptr@JU__crt_internal_free_policy@@@@QAE@QAJ@Z 1004f10a f i libucrt:initctype.obj
 0001:0004e11e       ??1?$__crt_unique_heap_ptr@GU__crt_internal_free_policy@@@@QAE@XZ 1004f11e f i libucrt:initctype.obj
 0001:0004e134       ??1?$__crt_unique_heap_ptr@JU__crt_internal_free_policy@@@@QAE@XZ 1004f134 f i libucrt:initctype.obj
 0001:0004e14a       ?detach@?$__crt_unique_heap_ptr@GU__crt_internal_free_policy@@@@QAEPAGXZ 1004f14a f i libucrt:initctype.obj
 0001:0004e150       ?detach@?$__crt_unique_heap_ptr@JU__crt_internal_free_policy@@@@QAEPAJXZ 1004f150 f i libucrt:initctype.obj
 0001:0004e156       ?release@?$__crt_unique_heap_ptr@GU__crt_internal_free_policy@@@@QAEXXZ 1004f156 f i libucrt:initctype.obj
 0001:0004e16c       ?release@?$__crt_unique_heap_ptr@JU__crt_internal_free_policy@@@@QAEXXZ 1004f16c f i libucrt:initctype.obj
 0001:0004e182       ____lc_codepage_func       1004f182 f   libucrt:initctype.obj
 0001:0004e1b2       ____lc_collate_cp_func     1004f1b2 f   libucrt:initctype.obj
 0001:0004e1e2       ____lc_locale_name_func    1004f1e2 f   libucrt:initctype.obj
 0001:0004e215       ____mb_cur_max_func        1004f215 f   libucrt:initctype.obj
 0001:0004e245       ____mb_cur_max_l_func      1004f245 f   libucrt:initctype.obj
 0001:0004e264       ___acrt_locale_initialize_ctype 1004f264 f   libucrt:initctype.obj
 0001:0004e6e9       ___acrt_add_locale_ref     1004f6e9 f   libucrt:locale_refcounting.obj
 0001:0004e785       ___acrt_free_locale        1004f785 f   libucrt:locale_refcounting.obj
 0001:0004e921       ___acrt_locale_add_lc_time_reference 1004f921 f   libucrt:locale_refcounting.obj
 0001:0004e954       ___acrt_locale_free_lc_time_if_unreferenced 1004f954 f   libucrt:locale_refcounting.obj
 0001:0004e990       ___acrt_locale_release_lc_time_reference 1004f990 f   libucrt:locale_refcounting.obj
 0001:0004e9c3       ___acrt_release_locale_ref 1004f9c3 f   libucrt:locale_refcounting.obj
 0001:0004ea64       ___acrt_update_thread_locale_data 1004fa64 f   libucrt:locale_refcounting.obj
 0001:0004eaf8       __updatetlocinfoEx_nolock  1004faf8 f   libucrt:locale_refcounting.obj
 0001:0004eb5c       ___acrt_fp_strflt_to_string 1004fb5c f   libucrt:_fptostr.obj
 0001:00050390       ??0big_integer@__crt_strtox@@QAE@ABU01@@Z 10051390 f i libucrt:cfout.obj
 0001:000503d0       ??0big_integer@__crt_strtox@@QAE@XZ 100513d0 f i libucrt:cfout.obj
 0001:000503db       ??0scoped_fp_state_reset@?A0x48fbfdd4@@QAE@XZ 100513db f i libucrt:cfout.obj
 0001:0005040f       ??1scoped_fp_state_reset@?A0x48fbfdd4@@QAE@XZ 1005140f f i libucrt:cfout.obj
 0001:00050420       ??4big_integer@__crt_strtox@@QAEAAU01@ABU01@@Z 10051420 f i libucrt:cfout.obj
 0001:00050460       ??8__crt_strtox@@YA_NABUbig_integer@0@0@Z 10051460 f i libucrt:cfout.obj
 0001:000504b0       ??9__crt_strtox@@YA_NABUbig_integer@0@0@Z 100514b0 f i libucrt:cfout.obj
 0001:00050510       ?add_carry@__crt_strtox@@YAIAAIII@Z 10051510 f i libucrt:cfout.obj
 0001:00050540       ?add_multiply_carry@__crt_strtox@@YAIAAIIII@Z 10051540 f i libucrt:cfout.obj
 0001:00050570       ?bit_scan_reverse@__crt_strtox@@YAII@Z 10051570 f i libucrt:cfout.obj
 0001:000505a0       ?count_sequential_high_zeroes@__crt_strtox@@YAII@Z 100515a0 f i libucrt:cfout.obj
 0001:000505d0       ?divide@__crt_strtox@@YA_KAAUbig_integer@1@ABU21@@Z 100515d0 f i libucrt:cfout.obj
 0001:00050bb0       ?is_zero@__crt_strtox@@YA_NABUbig_integer@1@@Z 10051bb0 f i libucrt:cfout.obj
 0001:00050bd0       ?make_big_integer@__crt_strtox@@YA?AUbig_integer@1@_K@Z 10051bd0 f i libucrt:cfout.obj
 0001:00050c00       ?make_big_integer_power_of_two@__crt_strtox@@YA?AUbig_integer@1@I@Z 10051c00 f i libucrt:cfout.obj
 0001:00050c60       ?multiply@__crt_strtox@@YA_NAAUbig_integer@1@ABU21@@Z 10051c60 f i libucrt:cfout.obj
 0001:00051110       ?multiply@__crt_strtox@@YA_NAAUbig_integer@1@I@Z 10052110 f i libucrt:cfout.obj
 0001:00051210       ?multiply_64_32@__crt_strtox@@YA_K_KI@Z 10052210 f i libucrt:cfout.obj
 0001:00051230       ?multiply_by_power_of_ten@__crt_strtox@@YA_NAAUbig_integer@1@I@Z 10052230 f i libucrt:cfout.obj
 0001:00051930       ?multiply_core@__crt_strtox@@YAIQAIII@Z 10052930 f i libucrt:cfout.obj
 0001:00051980       ?shift_left@__crt_strtox@@YA_NAAUbig_integer@1@I@Z 10052980 f i libucrt:cfout.obj
 0001:00051b22       ___acrt_fltout             10052b22 f   libucrt:cfout.obj
 0001:00053446       __isatty                   10054446 f   libucrt:isatty.obj
 0001:000534b1       ??$?RUlconv@@@__crt_internal_free_policy@@QBEXQBUlconv@@@Z 100544b1 f i libucrt:initmon.obj
 0001:000534c7       ??0?$__crt_unique_heap_ptr@Ulconv@@U__crt_internal_free_policy@@@@QAE@QAUlconv@@@Z 100544c7 f i libucrt:initmon.obj
 0001:000534db       ??1?$__crt_unique_heap_ptr@Ulconv@@U__crt_internal_free_policy@@@@QAE@XZ 100544db f i libucrt:initmon.obj
 0001:000534f1       ?detach@?$__crt_unique_heap_ptr@Ulconv@@U__crt_internal_free_policy@@@@QAEPAUlconv@@XZ 100544f1 f i libucrt:initmon.obj
 0001:000534f7       ?release@?$__crt_unique_heap_ptr@Ulconv@@U__crt_internal_free_policy@@@@QAEXXZ 100544f7 f i libucrt:initmon.obj
 0001:0005350d       ___acrt_locale_free_monetary 1005450d f   libucrt:initmon.obj
 0001:0005364a       ___acrt_locale_initialize_monetary 1005464a f   libucrt:initmon.obj
 0001:00053b3d       ___acrt_locale_free_numeric 10054b3d f   libucrt:initnum.obj
 0001:00053bc0       ___acrt_locale_initialize_numeric 10054bc0 f   libucrt:initnum.obj
 0001:00053eab       ??$?RU__crt_lc_time_data@@@__crt_internal_free_policy@@QBEXQBU__crt_lc_time_data@@@Z 10054eab f i libucrt:inittime.obj
 0001:00053f4b       ??0?$__crt_unique_heap_ptr@U__crt_lc_time_data@@U__crt_internal_free_policy@@@@QAE@QAU__crt_lc_time_data@@@Z 10054f4b f i libucrt:inittime.obj
 0001:00053f5f       ??1?$__crt_unique_heap_ptr@U__crt_lc_time_data@@U__crt_internal_free_policy@@@@QAE@XZ 10054f5f f i libucrt:inittime.obj
 0001:00053f75       ??B?$__crt_unique_heap_ptr@U__crt_lc_time_data@@U__crt_internal_free_policy@@@@QBE_NXZ 10054f75 f i libucrt:inittime.obj
 0001:00053f7f       ?detach@?$__crt_unique_heap_ptr@U__crt_lc_time_data@@U__crt_internal_free_policy@@@@QAEPAU__crt_lc_time_data@@XZ 10054f7f f i libucrt:inittime.obj
 0001:00053fd0       ?get@?$__crt_unique_heap_ptr@U__crt_lc_time_data@@U__crt_internal_free_policy@@@@QBEPAU__crt_lc_time_data@@XZ 10054fd0 f i libucrt:inittime.obj
 0001:00054368       ?is_valid@?$__crt_unique_heap_ptr@U__crt_lc_time_data@@U__crt_internal_free_policy@@@@QBE_NXZ 10055368 f i libucrt:inittime.obj
 0001:00054372       ?release@?$__crt_unique_heap_ptr@U__crt_lc_time_data@@U__crt_internal_free_policy@@@@QAEXXZ 10055372 f i libucrt:inittime.obj
 0001:00054388       ___acrt_locale_free_time   10055388 f   libucrt:inittime.obj
 0001:000544a5       ___acrt_locale_initialize_time 100554a5 f   libucrt:inittime.obj
 0001:00054643       _wcsncpy_s                 10055643 f   libucrt:wcsncpy_s.obj
 0001:00054650       _wcscspn                   10055650 f   libucrt:wcscspn.obj
 0001:000546b4       _wcsncmp                   100556b4 f   libucrt:wcsncmp.obj
 0001:000546fc       _wcspbrk                   100556fc f   libucrt:wcspbrk.obj
 0001:00054752       ___acrt_GetStringTypeA     10055752 f   libucrt:getstringtypea.obj
 0001:000551c6       ___acrt_get_qualified_locale 100561c6 f   libucrt:get_qualified_locale.obj
 0001:00055d6d       ___acrt_get_qualified_locale_downlevel 10056d6d f   libucrt:getqloc_downlevel.obj
 0001:00055ff5       _localeconv                10056ff5 f   libucrt:localeconv.obj
 0001:00056029       __wcsnicmp                 10057029 f   libucrt:wcsnicmp.obj
 0001:0005610f       __wcsnicmp_l               1005710f f   libucrt:wcsnicmp.obj
 0001:00056250       _strncmp                   10057250 f   libucrt:strncmp.obj
 0001:000562e6       __strnicmp                 100572e6 f   libucrt:strnicmp.obj
 0001:0005636d       __strnicmp_l               1005736d f   libucrt:strnicmp.obj
 0001:00056451       ??$__vcrt_va_start_verify_argument_type@$$CBH@@YAXXZ 10057451 f i libucrt:open.obj
 0001:00056808       ??$tsopen_nolock@PAHABQAHABQBDABHABHABHABH@?$__crt_char_traits@D@@SAH$$QAPAHABQAHABQBDABH333@Z 10057808 f i libucrt:open.obj
 0001:00056846       ??$tsopen_nolock@PAHABQAHABQB_WABHABHABHABH@?$__crt_char_traits@_W@@SAH$$QAPAHABQAHABQB_WABH333@Z 10057846 f i libucrt:open.obj
 0001:00056884       ??$tsopen_nolock@PAHPAHABQBDABHHABHH@?$__crt_char_traits@D@@SAH$$QAPAH0ABQBDABH$$QAH23@Z 10057884 f i libucrt:open.obj
 0001:000568c2       ??$tsopen_nolock@PAHPAHABQB_WABHHABHH@?$__crt_char_traits@_W@@SAH$$QAPAH0ABQB_WABH$$QAH23@Z 100578c2 f i libucrt:open.obj
 0001:00057090       __open                     10058090 f   libucrt:open.obj
 0001:000570ae       __sopen                    100580ae f   libucrt:open.obj
 0001:000570f0       __sopen_dispatch           100580f0 f   libucrt:open.obj
 0001:000570fd       __sopen_nolock             100580fd f   libucrt:open.obj
 0001:00057162       __sopen_s                  10058162 f   libucrt:open.obj
 0001:0005718a       __wopen                    1005818a f   libucrt:open.obj
 0001:000571a8       __wsopen                   100581a8 f   libucrt:open.obj
 0001:000571ea       __wsopen_dispatch          100581ea f   libucrt:open.obj
 0001:000571f7       __wsopen_nolock            100581f7 f   libucrt:open.obj
 0001:000575ea       __wsopen_s                 100585ea f   libucrt:open.obj
 0001:00057612       ___p__commode              10058612 f   libucrt:ncommode.obj
 0001:00057618       ___acrt_stdio_allocate_buffer_nolock 10058618 f   libucrt:_getbuf.obj
 0001:0005768c       ??$?RV<lambda_4980db0136e49a56f91ef52c46ca659a>@@AAV<lambda_6e3e78bb6855d1e4040e022c1b427e22>@@V<lambda_9c074eaf62197b4fd0274ed9e7824161>@@@?$__crt_seh_guarded_call@G@@QAEG$$QAV<lambda_4980db0136e49a56f91ef52c46ca659a>@@AAV<lambda_6e3e78bb6855d1e4040e022c1b427e22>@@$$QAV<lambda_9c074eaf62197b4fd0274ed9e7824161>@@@Z 1005868c f i libucrt:putwch.obj
 0001:00057701       ??$__acrt_lock_and_call@V<lambda_6e3e78bb6855d1e4040e022c1b427e22>@@@@YAGW4__acrt_lock_id@@$$QAV<lambda_6e3e78bb6855d1e4040e022c1b427e22>@@@Z 10058701 f i libucrt:putwch.obj
 0001:00057799       __putwch                   10058799 f   libucrt:putwch.obj
 0001:000577bd       __putwch_nolock            100587bd f   libucrt:putwch.obj
 0001:00057813       _nextafter                 10058813 f   libucrt:nextafter.obj
 0001:00057839       ??1scoped_global_state_reset@__crt_state_management@@QAE@XZ 10058839 f i libucrt:qsort.obj
 0001:00057950       _qsort                     10058950 f   libucrt:qsort.obj
 0001:00057ead       _strncpy_s                 10058ead f   libucrt:strncpy_s.obj
 0001:00057ec0       _strpbrk                   10058ec0 f   libucrt:strpbrk.obj
 0001:00057f10       __mbsdec                   10058f10 f   libucrt:mbsdec.obj
 0001:00057f2c       __mbsdec_l                 10058f2c f   libucrt:mbsdec.obj
 0001:00057fee       __wcsnicoll                10058fee f   libucrt:wcsnicol.obj
 0001:000580f2       __wcsnicoll_l              100590f2 f   libucrt:wcsnicol.obj
 0001:0005826a       __strnicoll                1005926a f   libucrt:strnicol.obj
 0001:0005829d       __strnicoll_l              1005929d f   libucrt:strnicol.obj
 0001:000583d8       __msize                    100593d8 f   libucrt:msize.obj
 0001:00058417       ___strncnt                 10059417 f   libucrt:strncnt.obj
 0001:00058573       ___acrt_GetLocaleInfoA     10059573 f   libucrt:getlocaleinfoa.obj
 0001:00058791       _fegetenv                  10059791 f   libucrt:fegetenv.obj
 0001:000587b5       _fesetenv                  100597b5 f   libucrt:fesetenv.obj
 0001:00058810       _feholdexcept              10059810 f   libucrt:feholdexcept.obj
 0001:00058880       _log10                     10059880 f   libucrt:log10.obj
 0001:000588c0       __CIlog10                  100598c0 f   libucrt:log10.obj
 0001:000588fb       __CIlog10_default          100598fb f   libucrt:log10.obj
 0001:0005890f       __log10_default            1005990f     libucrt:log10.obj
 0001:00058a30       _ceil                      10059a30 f   libucrt:ceil_pentium4.obj
 0001:00058a70       __ceil_pentium4            10059a70 f   libucrt:ceil_pentium4.obj
 0001:00058b94       __wcsicmp                  10059b94 f   libucrt:wcsicmp.obj
 0001:00058c4e       __wcsicmp_l                10059c4e f   libucrt:wcsicmp.obj
 0001:00058d66       __towlower_l               10059d66 f   libucrt:towlower.obj
 0001:00058e61       _towlower                  10059e61 f   libucrt:towlower.obj
 0001:00058e80       ___ascii_strnicmp          10059e80 f   libucrt:_strnicm.obj
 0001:00058ef9       ??$__crt_interlocked_read@H@@YAHPDH@Z 10059ef9 f i libucrt:setmode.obj
 0001:00058f08       __get_fmode                10059f08 f   libucrt:setmode.obj
 0001:00058f3f       __set_fmode                10059f3f f   libucrt:setmode.obj
 0001:00058f8b       __setmode                  10059f8b f   libucrt:setmode.obj
 0001:000590dc       __setmode_nolock           1005a0dc f   libucrt:setmode.obj
 0001:000591e1       ??$?RV<lambda_4cfda81533ccf5a03113a1ca40a30445>@@AAV<lambda_1cffa78e445b1da5fba1a2e0e533226f>@@V<lambda_68c952aa1b860373b2109ef12d0bba9d>@@@?$__crt_seh_guarded_call@H@@QAEH$$QAV<lambda_4cfda81533ccf5a03113a1ca40a30445>@@AAV<lambda_1cffa78e445b1da5fba1a2e0e533226f>@@$$QAV<lambda_68c952aa1b860373b2109ef12d0bba9d>@@@Z 1005a1e1 f i libucrt:chsize.obj
 0001:0005928b       ??$__acrt_lowio_lock_fh_and_call@V<lambda_1cffa78e445b1da5fba1a2e0e533226f>@@@@YAHH$$QAV<lambda_1cffa78e445b1da5fba1a2e0e533226f>@@@Z 1005a28b f i libucrt:chsize.obj
 0001:0005936d       __chsize                   1005a36d f   libucrt:chsize.obj
 0001:00059390       __chsize_nolock            1005a390 f   libucrt:chsize.obj
 0001:00059585       __chsize_s                 1005a585 f   libucrt:chsize.obj
 0001:00059646       __umask                    1005a646 f   libucrt:umask.obj
 0001:00059674       __umask_s                  1005a674 f   libucrt:umask.obj
 0001:000596bd       ___dcrt_lowio_initialize_console_output 1005a6bd f   libucrt:initcon.obj
 0001:000596e3       ___dcrt_terminate_console_output 1005a6e3 f   libucrt:initcon.obj
 0001:000596ff       _nexttoward                1005a6ff f   libucrt:nexttoward.obj
 0001:000598b0       ___acrt_CompareStringW     1005a8b0 f   libucrt:comparestringw.obj
 0001:00059c84       ___acrt_CompareStringA     1005ac84 f   libucrt:comparestringa.obj
 0001:00059cde       ___acrt_fenv_get_fp_status_word_from_exception_mask 1005acde f   libucrt:_fenvutils.obj
 0001:0005a121       __getfpcontrolword         1005b121 f   libucrt:_fenvutils.obj
 0001:0005a174       __getfpstatusword          1005b174 f   libucrt:_fenvutils.obj
 0001:0005a246       __setfpcontrolword         1005b246 f   libucrt:_fenvutils.obj
 0001:0005a2e6       __setfpstatusword          1005b2e6 f   libucrt:_fenvutils.obj
 0001:0005a51c       ___control87_2             1005b51c f   libucrt:ieee87.obj
 0001:0005aaf0       ___fpreset_sse2            1005baf0 f   libucrt:ieee87.obj
 0001:0005ad43       __clearfp                  1005bd43 f   libucrt:ieee87.obj
 0001:0005ae58       __control87                1005be58 f   libucrt:ieee87.obj
 0001:0005b21a       __controlfp                1005c21a f   libucrt:ieee87.obj
 0001:0005b23a       __fpreset                  1005c23a f   libucrt:ieee87.obj
 0001:0005b337       __set_controlfp            1005c337 f   libucrt:ieee87.obj
 0001:0005b3cd       __statusfp                 1005c3cd f   libucrt:ieee87.obj
 0001:0005b490       __statusfp2                1005c490 f   libucrt:ieee87.obj
 0001:0005b50d       ___acrt_initialize_sse2    1005c50d f   libucrt:mathfcns.obj
 0001:0005b51f       __set_SSE2_enable          1005c51f f   libucrt:mathfcns.obj
 0001:0005b550       __CIlog10_pentium4         1005c550 f   libucrt:log10_pentium4.obj
 0001:0005b568       __log10_pentium4           1005c568     libucrt:log10_pentium4.obj
 0001:0005b8a1       __fFEXP                    1005c8a1     libucrt:87tran.obj
 0001:0005b8f8       __rtinfpopse               1005c8f8     libucrt:87tran.obj
 0001:0005b8fa       __rtinfnpopse              1005c8fa     libucrt:87tran.obj
 0001:0005b90a       __fFLN                     1005c90a     libucrt:87tran.obj
 0001:0005b9bf       __rtinfpop                 1005c9bf     libucrt:87tran.obj
 0001:0005b9c1       __rtinfnpop                1005c9c1     libucrt:87tran.obj
 0001:0005b9de       __ffexpm1                  1005c9de     libucrt:87tran.obj
 0001:0005bb10       __trandisp1                1005cb10 f   libucrt:87disp.obj
 0001:0005bb77       __trandisp2                1005cb77 f   libucrt:87disp.obj
 0001:0005bc03       __rttospopde               1005cc03     libucrt:87disp.obj
 0001:0005bc08       __rttospop                 1005cc08     libucrt:87disp.obj
 0001:0005bc0a       __rtnospop                 1005cc0a     libucrt:87disp.obj
 0001:0005bc0c       __rttosnpop                1005cc0c     libucrt:87disp.obj
 0001:0005bc0d       __rtnospopde               1005cc0d     libucrt:87disp.obj
 0001:0005bc14       __rtzeropop                1005cc14     libucrt:87disp.obj
 0001:0005bc16       __rtzeronpop               1005cc16     libucrt:87disp.obj
 0001:0005bc1b       __rtzerospop               1005cc1b     libucrt:87disp.obj
 0001:0005bc28       __rtonepop                 1005cc28     libucrt:87disp.obj
 0001:0005bc2a       __rtonenpop                1005cc2a     libucrt:87disp.obj
 0001:0005bc2f       __tosnan1                  1005cc2f     libucrt:87disp.obj
 0001:0005bc5a       __nosnan2                  1005cc5a     libucrt:87disp.obj
 0001:0005bc5c       __tosnan2                  1005cc5c     libucrt:87disp.obj
 0001:0005bc84       __nan2                     1005cc84     libucrt:87disp.obj
 0001:0005bcc3       __rtindfpop                1005ccc3     libucrt:87disp.obj
 0001:0005bcc5       __rtindfnpop               1005ccc5     libucrt:87disp.obj
 0001:0005bcd6       __rttosnpopde              1005ccd6     libucrt:87disp.obj
 0001:0005bce0       __rtatan2inf               1005cce0     libucrt:87disp.obj
 0001:0005bcfd       __rtchsifneg               1005ccfd     libucrt:87disp.obj
 0001:0005bd81       ___setfflag                1005cd81 f   libucrt:fp_flags.obj
 0001:0005bda0       __twoToTOS                 1005cda0 f   libucrt:common.obj
 0001:0005bdb5       __load_CW                  1005cdb5 f   libucrt:common.obj
 0001:0005bdcc       __convertTOStoQNaN         1005cdcc f   libucrt:common.obj
 0001:0005bde5       __fload_withFB             1005cde5 f   libucrt:common.obj
 0001:0005be28       __checkTOS_withFB          1005ce28 f   libucrt:common.obj
 0001:0005be3e       __fast_exit                1005ce3e f   libucrt:common.obj
 0001:0005be4b       __math_exit                1005ce4b f   libucrt:common.obj
 0001:0005be75       __check_overflow_exit      1005ce75 f   libucrt:common.obj
 0001:0005be89       __check_range_exit         1005ce89 f   libucrt:common.obj
 0001:0005bf90       __startTwoArgErrorHandling 1005cf90 f   libucrt:genexcep.obj
 0001:0005bfa7       __startOneArgErrorHandling 1005cfa7 f   libucrt:genexcep.obj
 0001:0005bff7       ___libm_error_support      1005cff7 f   libucrt:libm_error.obj
 0001:0005c295       ___libm_setusermatherr     1005d295 f   libucrt:libm_error.obj
 0001:0005c2ce       __ceil_default             1005d2ce f   libucrt:ceil.obj
 0001:0005c3b5       ___acrt_LCMapStringW       1005d3b5 f   libucrt:lcmapstringw.obj
 0001:0005c402       ___p__fmode                1005d402 f   libucrt:txtmode.obj
 0001:0005c408       __d_int                    1005d408 f   libucrt:_test.obj
 0001:0005c550       __dtest                    1005d550 f   libucrt:_test.obj
 0001:0005c5cd       __fd_int                   1005d5cd f   libucrt:_test.obj
 0001:0005c6cf       __fdtest                   1005d6cf f   libucrt:_test.obj
 0001:0005c730       __fperrraise               1005d730 f   libucrt:_test.obj
 0001:0005c75b       __ld_int                   1005d75b f   libucrt:_test.obj
 0001:0005c768       __ldtest                   1005d768 f   libucrt:_test.obj
 0001:0005c80d       __controlfp_s              1005d80d f   libucrt:contrlfp.obj
 0001:0005c883       __d_inttype                1005d883 f   libucrt:powhlp.obj
 0001:0005c907       __powhlp                   1005d907 f   libucrt:powhlp.obj
 0001:0005ca7c       __87except                 1005da7c f   libucrt:87except.obj
 0001:0005cbc9       __frnd                     1005dbc9 f   libucrt:frnd.obj
 0001:0005cbe4       _fegetexceptflag           1005dbe4 f   libucrt:fegetexceptflag.obj
 0001:0005cc21       _fesetexceptflag           1005dc21 f   libucrt:fesetexceptflag.obj
 0001:0005cc82       _fetestexcept              1005dc82 f   libucrt:fetestexcept.obj
 0001:0005ccb0       __FindPESection            1005dcb0 f   LIBCMT:pesect.obj
 0001:0005cd10       __IsNonwritableInCurrentImage 1005dd10 f   LIBCMT:pesect.obj
 0001:0005ce00       __ValidateImageBase        1005de00 f   LIBCMT:pesect.obj
 0001:0005ce40       __aulldvrm                 1005de40 f   LIBCMT:ulldvrm.obj
 0001:0005cefa       ??1type_info@@UAE@XZ       1005defa f   LIBCMT:std_type_info_static.obj
 0001:0005cf01       ??_Gtype_info@@UAEPAXI@Z   1005df01 f i LIBCMT:std_type_info_static.obj
 0001:0005cf01       ??_Etype_info@@UAEPAXI@Z   1005df01 f i LIBCMT:std_type_info_static.obj
 0001:0005cf30       __SEH_prolog4_GS           1005df30 f   LIBCMT:_sehprolg4gs_.obj
 0001:0005cf79       __SEH_epilog4_GS           1005df79 f   LIBCMT:_sehprolg4gs_.obj
 0001:0005cfa0       __allmul                   1005dfa0 f   LIBCMT:llmul.obj
 0001:0005cff0       __alldvrm                  1005dff0 f   LIBCMT:lldvrm.obj
 0001:0005d110       __aullshr                  1005e110 f   LIBCMT:ullshr.obj
 0001:0005d140       __chkstk                   1005e140 f   LIBCMT:chkstk.obj
 0001:0005d140       __alloca_probe             1005e140 f   LIBCMT:chkstk.obj
 0001:0005d180       __alloca_probe_16          1005e180 f   LIBCMT:alloca16.obj
 0001:0005d196       __alloca_probe_8           1005e196     LIBCMT:alloca16.obj
 0001:0005d1c0       __allshl                   1005e1c0 f   LIBCMT:llshl.obj
 0001:0005d1f0       __ftol2_sse                1005e1f0 f   LIBCMT:_ftol2_.obj
 0001:0005d1f9       __ftol2_pentium4           1005e1f9 f   LIBCMT:_ftol2_.obj
 0001:0005d20c       __ftol2_sse_excpt          1005e20c f   LIBCMT:_ftol2_.obj
 0001:0005d230       __ftol2                    1005e230 f   LIBCMT:_ftol2_.obj
 0001:0005d2d2       __initialize_default_precision 1005e2d2 f   LIBCMT:default_precision.obj
 0001:0005d2fb       ??3@YAXPAXI@Z              1005e2fb f   LIBCMT:delete_scalar_size.obj
 0001:0005d30c       ??3@YAXPAX@Z               1005e30c f   LIBCMT:delete_scalar.obj
 0001:0005d312       _InterlockedPushEntrySList@8 1005e312 f   kernel32:KERNEL32.dll
 0001:0005d318       _InterlockedFlushSList@4   1005e318 f   kernel32:KERNEL32.dll
 0001:0005d31e       _RtlUnwind@16              1005e31e f   kernel32:KERNEL32.dll
 0001:0005d324       _GetLastError@0            1005e324 f   kernel32:KERNEL32.dll
 0001:0005d32a       _SetLastError@4            1005e32a f   kernel32:KERNEL32.dll
 0001:0005d330       _EnterCriticalSection@4    1005e330 f   kernel32:KERNEL32.dll
 0001:0005d336       _LeaveCriticalSection@4    1005e336 f   kernel32:KERNEL32.dll
 0001:0005d33c       _DeleteCriticalSection@4   1005e33c f   kernel32:KERNEL32.dll
 0001:0005d342       _InitializeCriticalSectionAndSpinCount@8 1005e342 f   kernel32:KERNEL32.dll
 0001:0005d348       _TlsAlloc@0                1005e348 f   kernel32:KERNEL32.dll
 0001:0005d34e       _TlsGetValue@4             1005e34e f   kernel32:KERNEL32.dll
 0001:0005d354       _TlsSetValue@8             1005e354 f   kernel32:KERNEL32.dll
 0001:0005d35a       _TlsFree@4                 1005e35a f   kernel32:KERNEL32.dll
 0001:0005d360       _FreeLibrary@4             1005e360 f   kernel32:KERNEL32.dll
 0001:0005d366       _LoadLibraryExW@12         1005e366 f   kernel32:KERNEL32.dll
 0001:0005d36c       _ExitProcess@4             1005e36c f   kernel32:KERNEL32.dll
 0001:0005d372       _GetModuleHandleExW@12     1005e372 f   kernel32:KERNEL32.dll
 0001:0005d378       _GetStdHandle@4            1005e378 f   kernel32:KERNEL32.dll
 0001:0005d37e       _GetFileType@4             1005e37e f   kernel32:KERNEL32.dll
 0001:0005d384       _GetModuleFileNameA@12     1005e384 f   kernel32:KERNEL32.dll
 0001:0005d38a       _GetModuleFileNameW@12     1005e38a f   kernel32:KERNEL32.dll
 0001:0005d390       _WriteConsoleW@20          1005e390 f   kernel32:KERNEL32.dll
 0001:0005d396       _RaiseException@16         1005e396 f   kernel32:KERNEL32.dll
 0001:0005d39c       _MultiByteToWideChar@24    1005e39c f   kernel32:KERNEL32.dll
 0001:0005d3a2       _WideCharToMultiByte@32    1005e3a2 f   kernel32:KERNEL32.dll
 0001:0005d3a8       _HeapFree@12               1005e3a8 f   kernel32:KERNEL32.dll
 0001:0005d3ae       _HeapAlloc@12              1005e3ae f   kernel32:KERNEL32.dll
 0001:0005d3b4       _GetDateFormatW@24         1005e3b4 f   kernel32:KERNEL32.dll
 0001:0005d3ba       _GetTimeFormatW@24         1005e3ba f   kernel32:KERNEL32.dll
 0001:0005d3c0       _CompareStringW@24         1005e3c0 f   kernel32:KERNEL32.dll
 0001:0005d3c6       _LCMapStringW@24           1005e3c6 f   kernel32:KERNEL32.dll
 0001:0005d3cc       _GetLocaleInfoW@16         1005e3cc f   kernel32:KERNEL32.dll
 0001:0005d3d2       _IsValidLocale@8           1005e3d2 f   kernel32:KERNEL32.dll
 0001:0005d3d8       _GetUserDefaultLCID@0      1005e3d8 f   kernel32:KERNEL32.dll
 0001:0005d3de       _EnumSystemLocalesW@8      1005e3de f   kernel32:KERNEL32.dll
 0001:0005d3e4       _GetCurrentThread@0        1005e3e4 f   kernel32:KERNEL32.dll
 0001:0005d3ea       _GetACP@0                  1005e3ea f   kernel32:KERNEL32.dll
 0001:0005d3f0       _HeapReAlloc@16            1005e3f0 f   kernel32:KERNEL32.dll
 0001:0005d3f6       _CloseHandle@4             1005e3f6 f   kernel32:KERNEL32.dll
 0001:0005d3fc       _ReadFile@20               1005e3fc f   kernel32:KERNEL32.dll
 0001:0005d402       _GetConsoleMode@8          1005e402 f   kernel32:KERNEL32.dll
 0001:0005d408       _ReadConsoleW@20           1005e408 f   kernel32:KERNEL32.dll
 0001:0005d40e       _WriteFile@20              1005e40e f   kernel32:KERNEL32.dll
 0001:0005d414       _GetConsoleCP@0            1005e414 f   kernel32:KERNEL32.dll
 0001:0005d41a       _DeleteFileW@4             1005e41a f   kernel32:KERNEL32.dll
 0001:0005d420       _SetFilePointerEx@20       1005e420 f   kernel32:KERNEL32.dll
 0001:0005d426       _OutputDebugStringA@4      1005e426 f   kernel32:KERNEL32.dll
 0001:0005d42c       _OutputDebugStringW@4      1005e42c f   kernel32:KERNEL32.dll
 0001:0005d432       _WaitForSingleObjectEx@12  1005e432 f   kernel32:KERNEL32.dll
 0001:0005d438       _CreateThread@24           1005e438 f   kernel32:KERNEL32.dll
 0001:0005d43e       _SetConsoleCtrlHandler@8   1005e43e f   kernel32:KERNEL32.dll
 0001:0005d444       _FindClose@4               1005e444 f   kernel32:KERNEL32.dll
 0001:0005d44a       _FindFirstFileExA@24       1005e44a f   kernel32:KERNEL32.dll
 0001:0005d450       _FindFirstFileExW@24       1005e450 f   kernel32:KERNEL32.dll
 0001:0005d456       _FindNextFileA@8           1005e456 f   kernel32:KERNEL32.dll
 0001:0005d45c       _FindNextFileW@8           1005e45c f   kernel32:KERNEL32.dll
 0001:0005d462       _IsValidCodePage@4         1005e462 f   kernel32:KERNEL32.dll
 0001:0005d468       _GetOEMCP@0                1005e468 f   kernel32:KERNEL32.dll
 0001:0005d46e       _GetCPInfo@8               1005e46e f   kernel32:KERNEL32.dll
 0001:0005d474       _GetCommandLineA@0         1005e474 f   kernel32:KERNEL32.dll
 0001:0005d47a       _GetCommandLineW@0         1005e47a f   kernel32:KERNEL32.dll
 0001:0005d480       _GetEnvironmentStringsW@0  1005e480 f   kernel32:KERNEL32.dll
 0001:0005d486       _FreeEnvironmentStringsW@4 1005e486 f   kernel32:KERNEL32.dll
 0001:0005d48c       _SetEnvironmentVariableA@8 1005e48c f   kernel32:KERNEL32.dll
 0001:0005d492       _SetEnvironmentVariableW@8 1005e492 f   kernel32:KERNEL32.dll
 0001:0005d498       _GetProcessHeap@0          1005e498 f   kernel32:KERNEL32.dll
 0001:0005d49e       _GetStringTypeW@16         1005e49e f   kernel32:KERNEL32.dll
 0001:0005d4a4       _FlushFileBuffers@4        1005e4a4 f   kernel32:KERNEL32.dll
 0001:0005d4aa       _SetStdHandle@8            1005e4aa f   kernel32:KERNEL32.dll
 0001:0005d4b0       _CreateFileW@28            1005e4b0 f   kernel32:KERNEL32.dll
 0001:0005d4b6       _HeapSize@12               1005e4b6 f   kernel32:KERNEL32.dll
 0001:0005d4bc       _SetEndOfFile@4            1005e4bc f   kernel32:KERNEL32.dll
 0001:0005d4c2       _EncodePointer@4           1005e4c2 f   kernel32:KERNEL32.dll
 0001:0005d4c8       _DecodePointer@4           1005e4c8 f   kernel32:KERNEL32.dll
 0001:0005d4d0       _strrchr                   1005e4d0 f   libvcruntime:strrchr.obj
 0001:0005d7b7       _memcmp                    1005e7b7 f   libvcruntime:_memcmp_.obj
 0001:0006129f       _wcschr                    1006229f f   libvcruntime:wcschr.obj
 0002:00000000       ___xc_a                    10063000     LIBCMT:initializers.obj
 0002:00000104       ___xc_z                    10063104     LIBCMT:initializers.obj
 0002:00000208       ___xi_a                    10063208     LIBCMT:initializers.obj
 0002:0000030c       ___acrt_stdio_initializer  1006330c     libucrt:stdio_initializer.obj
 0002:00000310       ___acrt_multibyte_initializer 10063310     libucrt:multibyte_initializer.obj
 0002:00000314       ___acrt_tran_sse2_initializer 10063314     libucrt:sse2_initializer.obj
 0002:0000041c       ___xi_z                    1006341c     LIBCMT:initializers.obj
 0002:00000520       ___xp_a                    10063520     LIBCMT:initializers.obj
 0002:00000624       ___acrt_locale_terminator  10063624     libucrt:locale_initializer.obj
 0002:00000628       ___dcrt_console_output_terminator 10063628     libucrt:console_output_initializer.obj
 0002:00000730       ___acrt_stdio_terminator   10063730     libucrt:stdio_initializer.obj
 0002:00000834       ___xp_z                    10063834     LIBCMT:initializers.obj
 0002:00000938       ___xt_a                    10063938     LIBCMT:initializers.obj
 0002:00000a3c       ___xt_z                    10063a3c     LIBCMT:initializers.obj
 0002:00000b40       _driver_test_M             10063b40     driver_test.obj
 0002:00000b44       ??_C@_0BI@PHJEPFFP@Error?5creating?5scope?51?6?$AA@ 10063b44     driver_test.obj
 0002:00000b60       ??_C@_0O@PIPOBEID@S?9Function?1p1?$AA@ 10063b60     driver_test.obj
 0002:00000b70       ??_C@_0BI@PEBACBDB@Error?5creating?5scope?53?6?$AA@ 10063b70     driver_test.obj
 0002:00000b8c       ??_C@_08BHEEFPMP@data?4dat?$AA@ 10063b8c     driver_test.obj
 0002:00000b98       ??_C@_0BC@OJJPBDHH@FixedStepDiscrete?$AA@ 10063b98     driver_test.obj
 0002:00000bb0       ??_C@_04EPKDLPPB@tout?$AA@ 10063bb0     driver_test.obj
 0002:00000bb6       ??_C@_00CNPNBAHC@?$AA@     10063bb6     driver_test.obj
 0002:00000bb8       ??_C@_03HBFGMJOD@rt_?$AA@  10063bb8     driver_test.obj
 0002:00000bbc       ??_C@_0L@CBNPOGNB@S?9Function?$AA@ 10063bbc     driver_test.obj
 0002:00000bcc       ??_C@_0BH@IBDKDGEJ@driver_test?1S?9Function?$AA@ 10063bcc     driver_test.obj
 0002:00000be8       __real@3f3a36e2eb1c432d    10063be8     driver_test.obj
 0002:00000bf8       __real@3ff0000000000000    10063bf8     driver_test.obj
 0002:00000c08       __real@4008000000000000    10063c08     driver_test.obj
 0002:00000c18       __real@4059000000000000    10063c18     driver_test.obj
 0002:00000c28       __real@40c3880000000000    10063c28     driver_test.obj
 0002:00000c38       __real@40f86a0000000000    10063c38     driver_test.obj
 0002:00000c48       __real@41f0000000000000    10063c48     driver_test.obj
 0002:00000c60       __xmm@00000000000000003f3a36e2eb1c432d 10063c60     driver_test.obj
 0002:00000c80       __xmm@00000018000000060000000300000001 10063c80     driver_test.obj
 0002:00000ca0       __xmm@41f00000000000000000000000000000 10063ca0     driver_test.obj
 0002:00000cb8       __real@3cb0000000000000    10063cb8     rt_matrx.obj
 0002:00000cc8       __real@3fe0000000000000    10063cc8     rt_matrx.obj
 0002:00001538       ??_C@_0DJ@FHKINPLE@Unexpected?5itemKind?5?$DN?5DATA_ITEM?5@ 10064538     rt_logging.obj
 0002:0000157c       ??_C@_0DA@IEHFPFCJ@Unexpected?5itemKind?$DN?$CFd?5in?5rt_Pro@ 1006457c     rt_logging.obj
 0002:000015b8       ??_C@_0DA@IFLHJPBO@Unexpected?5itemKind?$DN?$CFd?5in?5rt_Pro@ 100645b8     rt_logging.obj
 0002:000015f4       ??_C@_0DA@IAPIIJJL@Unexpected?5itemKind?$DN?$CFd?5in?5rt_Pro@ 100645f4     rt_logging.obj
 0002:00001630       ??_C@_0BE@LCIGPJIG@MATLAB?55?40?5MAT?9file?$AA@ 10064630     rt_logging.obj
 0002:00001648       ??_C@_0FB@PCJEAJIB@?$CK?$CK?$CK?5Log?5variable?5?$CFs?5has?5wrapped?5@ 10064648     rt_logging.obj
 0002:000016b0       ??_C@_0MG@NKMLMOGF@?$CK?$CK?$CK?5To?5avoid?5wrapping?0?5explicitl@ 100646b0     rt_logging.obj
 0002:000017a0       ??_C@_0N@IPAEOLLP@_rtw_tmw?4tmw?$AA@ 100647a0     rt_logging.obj
 0002:000017b0       ??_C@_04HDOCAJNK@?$CFs?$CFs?$AA@ 100647b0     rt_logging.obj
 0002:000017b8       ??_C@_03ELIABIOC@w?$CLb?$AA@ 100647b8     rt_logging.obj
 0002:000017bc       ??_C@_0BF@JPILDDFA@?$CK?$CK?$CK?5Error?5opening?5?$CFs?$AA@ 100647bc     rt_logging.obj
 0002:000017d8       ??_C@_0BK@EEMDELA@unable?5to?5open?5data?5file?6?$AA@ 100647d8     rt_logging.obj
 0002:000017f8       ??_C@_04CGFJFPFD@none?$AA@ 100647f8     rt_logging.obj
 0002:00001800       ??_C@_0EE@LCGFPNON@?$CK?$CK?$CK?5Error?5creating?5signals?5struc@ 10064800     rt_logging.obj
 0002:00001854       ??_C@_0CE@NHECEDMK@?$CK?$CK?$CK?5Error?5creating?5log?5variable?5@ 10064854     rt_logging.obj
 0002:00001880       ??_C@_0DB@IOCGKAGH@?$CK?$CK?$CK?5Errors?5occurred?5when?5startin@ 10064880     rt_logging.obj
 0002:000018bc       ??_C@_0BO@BBLOGEBK@?$CK?$CK?$CK?5Memory?5allocation?5error?4?6?$AA@ 100648bc     rt_logging.obj
 0002:000018e0       ??_C@_0N@LGFBAGEL@?5?$CIreal?5part?$CJ?$AA@ 100648e0     rt_logging.obj
 0002:000018f0       ??_C@_0KH@CGNMHNFE@?5?5?5?5varName?5?5?5?5?5?5?5?5?5?5?$DN?5?$CFs?$CFs?6?5?5?5?5@ 100648f0     rt_logging.obj
 0002:000019b8       ??_C@_0LE@OALKKEFM@?5?5?5?5varName?5?5?5?5?5?5?5?5?5?5?$DN?5?$CFs?5?$CIcompl@ 100649b8     rt_logging.obj
 0002:00001a90       ??_C@_0KF@JDDLEOKO@?5?5?5?5varName?5?5?5?5?5?5?5?5?5?5?$DN?5?$CFs?6?5?5?5?5nR@ 10064a90     rt_logging.obj
 0002:00001b58       ??_C@_0DP@HPDMIOFM@?$CK?$CK?$CK?5Using?5a?5default?5buffer?5of?5si@ 10064b58     rt_logging.obj
 0002:00001ba8       ??_C@_0KE@JEFOLKNF@?6?$CK?$CK?$CK?5Memory?5required?5to?5log?5vari@ 10064ba8     rt_logging.obj
 0002:00001c70       ??_C@_0JP@DKLMHCBI@?$CK?$CK?$CK?5Details?3?6?5?5?5?5?5?5?5varName?5?5?5?5?5@ 10064c70     rt_logging.obj
 0002:00001d30       ??_C@_0CM@CAMILBED@?$CK?$CK?$CK?5Error?5allocating?5memory?5for?5@ 10064d30     rt_logging.obj
 0002:00001d64       ??_C@_0DF@BBCNMOPM@?$CK?$CK?$CK?5Error?5allocating?5memory?5for?5@ 10064d64     rt_logging.obj
 0002:00001da8       ??_C@_0JP@DBCLPCCI@?$CK?$CK?$CK?5Details?3?6?5?5?5?5?5?5?5varName?5?5?5?5?5@ 10064da8     rt_logging.obj
 0002:00001e68       ??_C@_0FK@DPGAOBGA@?$CK?$CK?$CK?5Error?5allocating?5memory?5for?5@ 10064e68     rt_logging.obj
 0002:00001ed4       ??_C@_0BI@GGDNPHLJ@?$CK?$CK?$CK?5Error?5writing?5to?5?$CFs?$AA@ 10064ed4     rt_logging.obj
 0002:00001ef0       ??_C@_0CB@IBGJGELG@?$CK?$CK?$CK?5Error?5writing?5?$CFs?5due?5to?3?5?$CFs?6@ 10064ef0     rt_logging.obj
 0002:00001f18       ??_C@_0CN@FLMCHCPB@?$CK?$CK?$CK?5Error?5writing?5log?5variable?5?$CF@ 10064f18     rt_logging.obj
 0002:00001f50       ??_C@_0DH@GAJCNOJP@?$CK?$CK?$CK?5Error?5writing?5structure?5log?5@ 10064f50     rt_logging.obj
 0002:00001f94       ??_C@_0BD@POEALECL@?$CK?$CK?5created?5?$CFs?5?$CK?$CK?6?6?$AA@ 10064f94     rt_logging.obj
 0002:00001fb0       __real@0000000000000000    10064fb0     rt_logging.obj
 0002:00001fc0       __real@4020000000000000    10064fc0     rt_logging.obj
 0002:00001fd0       __real@41dfffffffc00000    10064fd0     rt_logging.obj
 0002:00001fe0       __real@41efffffffe00000    10064fe0     rt_logging.obj
 0002:00001ff0       __real@4330000000000000    10064ff0     rt_logging.obj
 0002:00002000       __real@8000000000000000    10065000     rt_logging.obj
 0002:00002010       __real@bfbf9add3afd2773    10065010     rt_logging.obj
 0002:00002020       __real@bff0000000000000    10065020     rt_logging.obj
 0002:00002030       __real@c000000000000000    10065030     rt_logging.obj
 0002:00002040       __xmm@20202020202020202020202020202020 10065040     rt_logging.obj
 0002:0000229c       ??_C@_0O@NDNDEHEA@S?9Function?1p2?$AA@ 1006529c     driver_test_capi.obj
 0002:000022ac       ??_C@_0O@MKMIHGAB@S?9Function?1p3?$AA@ 100652ac     driver_test_capi.obj
 0002:000022bc       ??_C@_0O@IFIJOAMG@S?9Function?1p4?$AA@ 100652bc     driver_test_capi.obj
 0002:000022cc       ??_C@_0O@JMJCNBIH@S?9Function?1p5?$AA@ 100652cc     driver_test_capi.obj
 0002:000022dc       ??_C@_0O@LHLPICEE@S?9Function?1p6?$AA@ 100652dc     driver_test_capi.obj
 0002:000022ec       ??_C@_02KKFPAPOP@P1?$AA@   100652ec     driver_test_capi.obj
 0002:000022f0       ??_C@_02IBHCFMCM@P2?$AA@   100652f0     driver_test_capi.obj
 0002:000022f4       ??_C@_02JIGJGNGN@P3?$AA@   100652f4     driver_test_capi.obj
 0002:000022f8       ??_C@_02NHCIPLKK@P4?$AA@   100652f8     driver_test_capi.obj
 0002:000022fc       ??_C@_02MODDMKOL@P5?$AA@   100652fc     driver_test_capi.obj
 0002:00002300       ??_C@_06BNJCAIGJ@double?$AA@ 10065300     driver_test_capi.obj
 0002:00002308       ??_C@_06CNMIJIPB@real_T?$AA@ 10065308     driver_test_capi.obj
 0002:00002310       ??_C@_05KNFBNCOH@float?$AA@ 10065310     driver_test_capi.obj
 0002:00002318       ??_C@_0DL@PGGFBBLM@Error?3?5task?5ID?5?$CFd?5is?5out?5of?5rang@ 10065318     driver_test_xcp_TET.obj
 0002:00002360       __real@3e112e0be826d695    10065360     driver_test_xcp_TET.obj
 0002:00002370       __real@3f847ae147ae147b    10065370     driver_test_xcp_TET.obj
 0002:00002380       __real@3fefae147ae147ae    10065380     driver_test_xcp_TET.obj
 0002:0000238c       _serialfifoground          1006538c     xpc_datatype_ground.obj
 0002:00002398       _bcmsg1553ground           10065398     xpc_datatype_ground.obj
 0002:000023a8       _bcstatground              100653a8     xpc_datatype_ground.obj
 0002:000023c0       _bmmsg1553ground           100653c0     xpc_datatype_ground.obj
 0002:000023fc       ??_C@_0BI@INNPNFJN@Memory?5Allocation?5Error?$AA@ 100653fc     rtw_modelmap_utils.obj
 0002:00002418       ??_C@_1HC@FPPMHEFB@?$AAC?$AA?3?$AA?2?$AAP?$AAR?$AAO?$AAG?$AAR?$AAA?$AA?$HO?$AA1?$AA?2?$AAM?$AAA?$AAT?$AAL?$AAA?$AAB?$AA?2?$AAR?$AA2?$AA0?$AA1?$AA7?$AAb?$AA?2?$AAr?$AAt?$AAw?$AA?2?$AAc?$AA?2@ 10065418     rtw_modelmap_utils.obj
 0002:000024a0       ??_C@_1CI@OEAJCJND@?$AAj?$AA?5?$AA?$DN?$AA?$DN?$AA?5?$AAe?$AAn?$AAc?$AAo?$AAd?$AAe?$AAd?$AAP?$AAa?$AAt?$AAh?$AAL?$AAe?$AAn?$AA?$AA@ 100654a0     rtw_modelmap_utils.obj
 0002:000024d0       ??_C@_1DC@NFAOIFKB@?$AAe?$AAn?$AAc?$AAo?$AAd?$AAe?$AAd?$AAP?$AAa?$AAt?$AAh?$AA?$FL?$AAj?$AA?9?$AA1?$AA?$FN?$AA?5?$AA?$DN?$AA?$DN?$AA?5?$AA?8?$AA?2?$AA0?$AA?8?$AA?$AA@ 100654d0     rtw_modelmap_utils.obj
 0002:0000250c       ??_C@_1DI@FLNJGPEE@?$AAs?$AAi?$AAg?$AAC?$AAo?$AAm?$AAp?$AAl?$AAe?$AAx?$AAi?$AAt?$AAy?$AA?$FL?$AA?$CK?$AAs?$AAi?$AAg?$AAI?$AAd?$AAx?$AA?$FN?$AA?5?$AA?$CB?$AA?$DN?$AA?5?$AA1?$AA?$AA@ 1006550c     rtw_modelmap_utils.obj
 0002:00002550       ??_C@_1KI@OFELMGBG@?$AA?$CI?$AA?$CI?$AA?$CI?$AAd?$AAa?$AAt?$AAa?$AAT?$AAy?$AAp?$AAe?$AAM?$AAa?$AAp?$AA?$CJ?$AA?$FL?$AA?$CI?$AA?$CI?$AA?$CI?$AAs?$AAt?$AAa?$AAt?$AAe?$AAs?$AA?$CJ?$AA?$FL?$AA?$CI?$AAi?$AA?$CJ?$AA?$FN?$AA?4@ 10065550     rtw_modelmap_utils.obj
 0002:0000261c       ??_C@_1DA@ILCMPHNE@?$AAf?$AAu?$AAl?$AAl?$AAP?$AAa?$AAt?$AAh?$AA?5?$AA?$CB?$AA?$DN?$AA?5?$AA?$CI?$AA?$CI?$AAv?$AAo?$AAi?$AAd?$AA?5?$AA?$CK?$AA?$CJ?$AA0?$AA?$CJ?$AA?$AA@ 1006561c     rtw_modelmap_utils.obj
 0002:00002658       ??_C@_1CI@OEPPFCCA@?$AAp?$AAa?$AAt?$AAh?$AA?5?$AA?$CB?$AA?$DN?$AA?5?$AA?$CI?$AA?$CI?$AAv?$AAo?$AAi?$AAd?$AA?5?$AA?$CK?$AA?$CJ?$AA0?$AA?$CJ?$AA?$AA@ 10065658     rtw_modelmap_utils.obj
 0002:00002688       ??_C@_1FK@GLJIMFHB@?$AA?$CI?$AA?$CI?$AAm?$AAm?$AAi?$AA?$CJ?$AA?9?$AA?$DO?$AAI?$AAn?$AAs?$AAt?$AAa?$AAn?$AAc?$AAe?$AAM?$AAa?$AAp?$AA?4?$AAf?$AAu?$AAl?$AAl?$AAP?$AAa?$AAt?$AAh?$AA?$CJ?$AA?5?$AA?$DN?$AA?$DN@ 10065688     rtw_modelmap_utils.obj
 0002:000026f4       ??_C@_1DG@HPCJGNCE@?$AAm?$AAm?$AAi?$AAP?$AAa?$AAt?$AAh?$AA?$FL?$AAp?$AAa?$AAt?$AAh?$AAL?$AAe?$AAn?$AA?9?$AA1?$AA?$FN?$AA?5?$AA?$DN?$AA?$DN?$AA?5?$AA?8?$AA?2?$AA0?$AA?8?$AA?$AA@ 100656f4     rtw_modelmap_utils.obj
 0002:00002734       ??_C@_1DM@DBAOGGOO@?$AAm?$AAm?$AAi?$AAP?$AAa?$AAt?$AAh?$AA?$FL?$AAm?$AAm?$AAi?$AAP?$AAa?$AAt?$AAh?$AAL?$AAe?$AAn?$AA?9?$AA1?$AA?$FN?$AA?5?$AA?$DN?$AA?$DN?$AA?5?$AA?8?$AA?2?$AA0?$AA?8?$AA?$AA@ 10065734     rtw_modelmap_utils.obj
 0002:0000277c       ??_C@_1DC@LHIAKAFE@?$AAb?$AAl?$AAo?$AAc?$AAk?$AAP?$AAa?$AAt?$AAh?$AA?5?$AA?$CB?$AA?$DN?$AA?5?$AA?$CI?$AA?$CI?$AAv?$AAo?$AAi?$AAd?$AA?5?$AA?$CK?$AA?$CJ?$AA0?$AA?$CJ?$AA?$AA@ 1006577c     rtw_modelmap_utils.obj
 0002:000027b8       ??_C@_1GI@KIEJKPGC@?$AAf?$AAu?$AAl?$AAl?$AAS?$AAt?$AAa?$AAt?$AAe?$AAB?$AAl?$AAo?$AAc?$AAk?$AAP?$AAa?$AAt?$AAh?$AA?$FL?$AAf?$AAu?$AAl?$AAl?$AAS?$AAt?$AAa?$AAt?$AAe?$AAB?$AAl?$AAo?$AAc@ 100657b8     rtw_modelmap_utils.obj
 0002:00002838       ??_C@_1EE@DNPIBJHC@?$AA?$CI?$AA?$CI?$AAd?$AAi?$AAm?$AAM?$AAa?$AAp?$AA?$CJ?$AA?$FL?$AA?$CI?$AAm?$AAa?$AAp?$AAI?$AAd?$AAx?$AA?$CJ?$AA?$FN?$AA?4?$AAn?$AAu?$AAm?$AAD?$AAi?$AAm?$AAs?$AA?$CJ?$AA?5?$AA?$DN?$AA?$DN?$AA?5@ 10065838     rtw_modelmap_utils.obj
 0002:0000288c       ??_C@_06JFOKFOED@CSTATE?$AA@ 1006588c     rtw_modelmap_utils.obj
 0002:00002894       ??_C@_06FAENGAMN@DSTATE?$AA@ 10065894     rtw_modelmap_utils.obj
 0002:0000289c       ??_C@_1BI@LEBJNOGG@?$AAc?$AAs?$AAv?$AAI?$AAd?$AAx?$AA?5?$AA?$DO?$AA?$DN?$AA?5?$AA0?$AA?$AA@ 1006589c     rtw_modelmap_utils.obj
 0002:000028b8       ??_C@_1BA@KDMGHCHP@?$AAT?$AAI?$AAD?$AA?$DN?$AA?$DN?$AA?9?$AA1?$AA?$AA@ 100658b8     rtw_modelmap_utils.obj
 0002:000028cc       ??_C@_1DM@DHGKBPCE@?$AAs?$AAi?$AAg?$AAP?$AAa?$AAt?$AAh?$AA?$FL?$AAs?$AAi?$AAg?$AAP?$AAa?$AAt?$AAh?$AAL?$AAe?$AAn?$AA?9?$AA1?$AA?$FN?$AA?5?$AA?$DN?$AA?$DN?$AA?5?$AA?8?$AA?2?$AA0?$AA?8?$AA?$AA@ 100658cc     rtw_modelmap_utils.obj
 0002:00002914       ??_C@_0M@KEBBOOAK@driver_test?$AA@ 10065914     xpctarget.obj
 0002:00002924       _ptsetfilename             10065924     xpctarget.obj
 0002:00002928       _xmlfile                   10065928     xpctarget.obj
 0002:00002930       ??_C@_03KJCPEMEA@6?47?$AA@ 10065930     xpctarget.obj
 0002:00002938       __real@3fb999999999999a    10065938     xpctarget.obj
 0002:00002948       __real@40a3880000000000    10065948     xpctarget.obj
 0002:00002958       _driver_test_BIOMAP        10065958     appmappingData.obj
 0002:000029ac       _driver_test_SBIO          100659ac     appmappingData.obj
 0002:000029c8       _driver_test_LBLMAP        100659c8     appmappingData.obj
 0002:00002a1c       _driver_test_SLBL          10065a1c     appmappingData.obj
 0002:00002a38       _driver_test_SIDMAP        10065a38     appmappingData.obj
 0002:00002a8c       _driver_test_PTIDSMAP      10065a8c     appmappingData.obj
 0002:00002abc       _driver_test_PTNAMESMAP    10065abc     appmappingData.obj
 0002:00002aec       _driver_test_SPTMAP        10065aec     appmappingData.obj
 0002:00002b04       _driver_test_dtmap         10065b04     appmappingData.obj
 0002:00002b10       _appInfo                   10065b10     appmappingData.obj
 0002:00002bc4       ??_C@_0CC@FIFFDAB@?$CFd?5input?5args?5expected?0?5?$CFd?5passe@ 10065bc4     advantechpci1716l.obj
 0002:00002bec       ??_C@_09DCFMBJOI@PCI?91716L?$AA@ 10065bec     advantechpci1716l.obj
 0002:00002bf8       ??_C@_0M@COPLEAKP@No?5?$CFs?5found?$AA@ 10065bf8     advantechpci1716l.obj
 0002:00002c08       ??_C@_0BC@HLILJAKJ@?$CFs?5has?5been?5found?$AA@ 10065c08     advantechpci1716l.obj
 0002:00002c20       ??_C@_0BI@IHCNPKCM@No?5?$CFs?5at?5bus?5?$CFd?5slot?5?$CFd?$AA@ 10065c20     advantechpci1716l.obj
 0002:00002c40       __real@3ef0001000100010    10065c40     advantechpci1716l.obj
 0002:00002c50       __real@3ff4000000000000    10065c50     advantechpci1716l.obj
 0002:00002c60       __real@4004000000000000    10065c60     advantechpci1716l.obj
 0002:00002c70       __real@4014000000000000    10065c70     advantechpci1716l.obj
 0002:00002c80       __real@4024000000000000    10065c80     advantechpci1716l.obj
 0002:00002c90       __real@bef0001000100010    10065c90     advantechpci1716l.obj
 0002:00002ca0       __real@bff4000000000000    10065ca0     advantechpci1716l.obj
 0002:00002cb0       __real@c004000000000000    10065cb0     advantechpci1716l.obj
 0002:00002cc0       __real@c014000000000000    10065cc0     advantechpci1716l.obj
 0002:00002cd0       __real@c024000000000000    10065cd0     advantechpci1716l.obj
 0002:00002cdc       ??_C@_0BK@EBKJELMI@maxfunc?5?$DN?5?$CFd?5at?5?$FL?$CFd?0?5?$CFd?$FN?6?$AA@ 10065cdc     xpcruntime:xpcimports.obj
 0002:00002cfc       ??_C@_0CC@DMFKNLL@VendorId?5?$DN?50x?$CFx?0?5DeviceId?5?$DN?50x?$CFx@ 10065cfc     xpcruntime:xpcimports.obj
 0002:00002d24       ??_C@_0DH@OHCBLNMG@Subsystem?5Device?5ID?5?$DN?50x?$CFx?6Subsy@ 10065d24     xpcruntime:xpcimports.obj
 0002:00002d68       ??_C@_0BD@MMMMEFCM@Class?5Code?5?$DN?50x?$CFx?6?$AA@ 10065d68     xpcruntime:xpcimports.obj
 0002:00002d80       ??_C@_0BE@OLDDDNHM@InterruptLine?5?$DN?5?$CFd?6?$AA@ 10065d80     xpcruntime:xpcimports.obj
 0002:00002d98       ??_C@_0CE@IBMFFAPN@bus?5?$DN?5?$CFd?0?5slot?5?$DN?5?$CFd?0?5function?5?$DN?5@ 10065d98     xpcruntime:xpcimports.obj
 0002:00002dc4       ??_C@_0CE@DGLLGDFH@?5?5?5?5Phys?5?5?5Virtual?5?5?5Length?5IO?1M@ 10065dc4     xpcruntime:xpcimports.obj
 0002:00002df0       ??_C@_0BI@FEOPLEMG@?$CF08x?5?$CF08x?5?$CF08x?5?5?5?5?5?5?$CFc?6?$AA@ 10065df0     xpcruntime:xpcimports.obj
 0002:00002e0c       ??_C@_0BB@BNNCEDPC@rl32eScopeExists?$AA@ 10065e0c     xpcruntime:xpcimports.obj
 0002:00002e20       ??_C@_0BM@FJBFEGFG@rl32eScopeExists?5not?5found?6?$AA@ 10065e20     xpcruntime:xpcimports.obj
 0002:00002e44       ??_C@_0O@BNNGKJEA@rl32eDefScope?$AA@ 10065e44     xpcruntime:xpcimports.obj
 0002:00002e54       ??_C@_0BJ@CDNOENKA@rl32eDefScope?5not?5found?6?$AA@ 10065e54     xpcruntime:xpcimports.obj
 0002:00002e74       ??_C@_0P@CKNKILDP@rl32eAddSignal?$AA@ 10065e74     xpcruntime:xpcimports.obj
 0002:00002e88       ??_C@_0BK@GMJAJBAI@rl32eAddSignal?5not?5found?6?$AA@ 10065e88     xpcruntime:xpcimports.obj
 0002:00002ea8       ??_C@_0BB@LDMIHGCE@rl32eGetSignalNo?$AA@ 10065ea8     xpcruntime:xpcimports.obj
 0002:00002ebc       ??_C@_0BM@LGAMBAID@rl32eGetSignalNo?5not?5found?6?$AA@ 10065ebc     xpcruntime:xpcimports.obj
 0002:00002ee0       ??_C@_0O@CFDGALBP@rl32eSetScope?$AA@ 10065ee0     xpcruntime:xpcimports.obj
 0002:00002ef0       ??_C@_0BJ@JCLHHIN@rl32eSetScope?5not?5found?6?$AA@ 10065ef0     xpcruntime:xpcimports.obj
 0002:00002f10       ??_C@_0P@IKMCBMHH@xpceFSScopeSet?$AA@ 10065f10     xpcruntime:xpcimports.obj
 0002:00002f24       ??_C@_0BK@JODJPNNH@xpceFSScopeSet?5not?5found?6?$AA@ 10065f24     xpcruntime:xpcimports.obj
 0002:00002f44       ??_C@_0BE@DLACEEJM@rl32eSetTargetScope?$AA@ 10065f44     xpcruntime:xpcimports.obj
 0002:00002f5c       ??_C@_0BP@JCHFMKPJ@rl32eSetTargetScope?5not?5found?6?$AA@ 10065f5c     xpcruntime:xpcimports.obj
 0002:00002f84       ??_C@_0BJ@LIDLNDHC@rl32eSetTargetScopeSigFt?$AA@ 10065f84     xpcruntime:xpcimports.obj
 0002:00002fa4       ??_C@_0CE@JLGHCFHI@rl32eSetTargetScopeSigFt?5not?5fou@ 10065fa4     xpcruntime:xpcimports.obj
 0002:00002fd0       ??_C@_0BI@JAPOIDNG@rl32eRestartAcquisition?$AA@ 10065fd0     xpcruntime:xpcimports.obj
 0002:00002fec       ??_C@_0CD@LLBEFFBO@rl32eRestartAcquisition?5not?5foun@ 10065fec     xpcruntime:xpcimports.obj
 0002:00003018       ??_C@_0P@IEIIADJB@xpceScopeAcqOK?$AA@ 10066018     xpcruntime:xpcimports.obj
 0002:0000302c       ??_C@_0BK@NJCKNFPN@xpceScopeAcqOK?5not?5found?6?$AA@ 1006602c     xpcruntime:xpcimports.obj
 0002:0000304c       ??_C@_0BA@IJINKAHF@xpceRegisterISR?$AA@ 1006604c     xpcruntime:xpcimports.obj
 0002:00003060       ??_C@_0BL@NNDLOEJE@xpceRegisterISR?5not?5found?6?$AA@ 10066060     xpcruntime:xpcimports.obj
 0002:00003080       ??_C@_0BC@NLBADGKF@xpceDeRegisterISR?$AA@ 10066080     xpcruntime:xpcimports.obj
 0002:00003098       ??_C@_0BN@DCAIKFFD@xpceDeRegisterISR?5not?5found?6?$AA@ 10066098     xpcruntime:xpcimports.obj
 0002:000030bc       ??_C@_07JPMEPILD@xpcInpB?$AA@ 100660bc     xpcruntime:xpcimports.obj
 0002:000030c8       ??_C@_0BD@PGABEJOL@xpcInpB?5not?5found?6?$AA@ 100660c8     xpcruntime:xpcimports.obj
 0002:000030e0       ??_C@_07KIHBBOKH@xpcInpW?$AA@ 100660e0     xpcruntime:xpcimports.obj
 0002:000030ec       ??_C@_0BD@FPCJFMCC@xpcInpW?5not?5found?6?$AA@ 100660ec     xpcruntime:xpcimports.obj
 0002:00003104       ??_C@_08KDIAJBOP@xpcInpDW?$AA@ 10066104     xpcruntime:xpcimports.obj
 0002:00003110       ??_C@_0BE@PIELDNIL@xpcInpDW?5not?5found?6?$AA@ 10066110     xpcruntime:xpcimports.obj
 0002:00003128       ??_C@_08PJFMOIGO@xpcOutpB?$AA@ 10066128     xpcruntime:xpcimports.obj
 0002:00003134       ??_C@_0BE@HCKNCEKF@xpcOutpB?5not?5found?6?$AA@ 10066134     xpcruntime:xpcimports.obj
 0002:0000314c       ??_C@_08MOOJAOHK@xpcOutpW?$AA@ 1006614c     xpcruntime:xpcimports.obj
 0002:00003158       ??_C@_0BE@NLIFDBGM@xpcOutpW?5not?5found?6?$AA@ 10066158     xpcruntime:xpcimports.obj
 0002:00003170       ??_C@_09FLIEKHJG@xpcOutpDW?$AA@ 10066170     xpcruntime:xpcimports.obj
 0002:0000317c       ??_C@_0BF@GJKLPNHB@xpcOutpDW?5not?5found?6?$AA@ 1006617c     xpcruntime:xpcimports.obj
 0002:00003198       ??_C@_0BH@EHOLELHH@xpcReserveMemoryRegion?$AA@ 10066198     xpcruntime:xpcimports.obj
 0002:000031b4       ??_C@_0CC@KAAAGPI@xpcReserveMemoryRegion?5not?5found@ 100661b4     xpcruntime:xpcimports.obj
 0002:000031dc       ??_C@_0BA@JGPMHGAF@rl32eShowPCIDev?$AA@ 100661dc     xpcruntime:xpcimports.obj
 0002:000031f0       ??_C@_0BL@DDFFLNHI@rl32eShowPCIDev?5not?5found?6?$AA@ 100661f0     xpcruntime:xpcimports.obj
 0002:00003210       ??_C@_0BB@KBCOJPFB@rl32eShowPCIInfo?$AA@ 10066210     xpcruntime:xpcimports.obj
 0002:00003224       ??_C@_0BM@IFDMAGLO@rl32eShowPCIInfo?5not?5found?6?$AA@ 10066224     xpcruntime:xpcimports.obj
 0002:00003248       ??_C@_0BA@BGPAADB@rl32eGetPCIInfo?$AA@ 10066248     xpcruntime:xpcimports.obj
 0002:0000325c       ??_C@_0BL@IGOMLDCK@rl32eGetPCIInfo?5not?5found?6?$AA@ 1006625c     xpcruntime:xpcimports.obj
 0002:0000327c       ??_C@_0BG@NJPFKFDP@rl32eGetPCIInfoAtSlot?$AA@ 1006627c     xpcruntime:xpcimports.obj
 0002:00003298       ??_C@_0CB@BBKIPMLA@rl32eGetPCIInfoAtSlot?5not?5found?6@ 10066298     xpcruntime:xpcimports.obj
 0002:000032c0       ??_C@_0BH@OKBOPNFG@xpceAssignPCIInterrupt?$AA@ 100662c0     xpcruntime:xpcimports.obj
 0002:000032dc       ??_C@_0CC@CDNDNJBJ@xpceAssignPCIInterrupt?5not?5found@ 100662dc     xpcruntime:xpcimports.obj
 0002:00003304       ??_C@_0BD@PCKOKHO@xpceGetSignalValue?$AA@ 10066304     xpcruntime:xpcimports.obj
 0002:0000331c       ??_C@_0BO@GCBDJHMB@xpceGetSignalValue?5not?5found?6?$AA@ 1006631c     xpcruntime:xpcimports.obj
 0002:00003340       ??_C@_0BB@BJONJAGA@xpceSetParameter?$AA@ 10066340     xpcruntime:xpcimports.obj
 0002:00003354       ??_C@_0BM@BJIKDLHA@xpceSetParameter?5not?5found?6?$AA@ 10066354     xpcruntime:xpcimports.obj
 0002:00003378       ??_C@_0BB@GNFDFMCM@xpceGetParameter?$AA@ 10066378     xpcruntime:xpcimports.obj
 0002:0000338c       ??_C@_0BM@POHNKBC@xpceGetParameter?5not?5found?6?$AA@ 1006638c     xpcruntime:xpcimports.obj
 0002:000033b0       ??_C@_0BB@CEIJLFCD@xpceGetParamDims?$AA@ 100663b0     xpcruntime:xpcimports.obj
 0002:000033c4       ??_C@_0BM@OABDBKAO@xpceGetParamDims?5not?5found?6?$AA@ 100663c4     xpcruntime:xpcimports.obj
 0002:000033e8       ??_C@_0L@OCBLLHBM@xpceGetTET?$AA@ 100663e8     xpcruntime:xpcimports.obj
 0002:000033f8       ??_C@_0BG@HNOFBOB@xpceGetTET?5not?5found?6?$AA@ 100663f8     xpcruntime:xpcimports.obj
 0002:00003414       ??_C@_0P@OKGNGAGH@xpcIsModelInit?$AA@ 10066414     xpcruntime:xpcimports.obj
 0002:00003428       ??_C@_0BK@DHEMLBIM@xpcIsModelInit?5not?5found?6?$AA@ 10066428     xpcruntime:xpcimports.obj
 0002:00003448       ??_C@_0BH@KJJLCAOJ@xpcAllocPhysicalMemory?$AA@ 10066448     xpcruntime:xpcimports.obj
 0002:00003464       ??_C@_0CC@MOJPNHKL@xpcAllocPhysicalMemory?5not?5found@ 10066464     xpcruntime:xpcimports.obj
 0002:0000348c       ??_C@_0BG@CBNPGAEL@xpcFreePhysicalMemory?$AA@ 1006648c     xpcruntime:xpcimports.obj
 0002:000034a8       ??_C@_0CB@PKJEBPOG@xpcFreePhysicalMemory?5not?5found?6@ 100664a8     xpcruntime:xpcimports.obj
 0002:000034d0       ??_C@_0BC@JGKNLICL@xpcGetElapsedTime?$AA@ 100664d0     xpcruntime:xpcimports.obj
 0002:000034e8       ??_C@_0BN@OEOAHCIO@xpcGetElapsedTime?5not?5found?6?$AA@ 100664e8     xpcruntime:xpcimports.obj
 0002:0000350c       ??_C@_0M@ICBLMODA@xpcBusyWait?$AA@ 1006650c     xpcruntime:xpcimports.obj
 0002:0000351c       ??_C@_0BH@FBOPECBI@xpcBusyWait?5not?5found?6?$AA@ 1006651c     xpcruntime:xpcimports.obj
 0002:00003538       ??_C@_0N@LKKJEKKA@TBCreateSpin?$AA@ 10066538     xpcruntime:xpcimports.obj
 0002:00003548       ??_C@_0BI@FHKMLKOE@TBCreateSpin?5not?5found?6?$AA@ 10066548     xpcruntime:xpcimports.obj
 0002:00003564       ??_C@_0N@HOAJHNBD@TBDeleteSpin?$AA@ 10066564     xpcruntime:xpcimports.obj
 0002:00003574       ??_C@_0BI@BKCPAAG@TBDeleteSpin?5not?5found?6?$AA@ 10066574     xpcruntime:xpcimports.obj
 0002:00003590       ??_C@_0P@DAHDDBJG@TBTakeSpinFast?$AA@ 10066590     xpcruntime:xpcimports.obj
 0002:000035a4       ??_C@_0BK@NKAIBHGB@TBTakeSpinFast?5not?5found?6?$AA@ 100665a4     xpcruntime:xpcimports.obj
 0002:000035c4       ??_C@_0P@FKNAAELA@TBGiveSpinFast?$AA@ 100665c4     xpcruntime:xpcimports.obj
 0002:000035d8       ??_C@_0BK@KGPJBJND@TBGiveSpinFast?5not?5found?6?$AA@ 100665d8     xpcruntime:xpcimports.obj
 0002:000035f8       ??_C@_0BE@IIGBFDHK@xpceCreateSemaphore?$AA@ 100665f8     xpcruntime:xpcimports.obj
 0002:00003610       ??_C@_0BP@KFBAFFKJ@xpceCreateSemaphore?5not?5found?6?$AA@ 10066610     xpcruntime:xpcimports.obj
 0002:00003638       ??_C@_0BC@IFNIONKJ@xpceWaitSemaphore?$AA@ 10066638     xpcruntime:xpcimports.obj
 0002:00003650       ??_C@_0BN@NMFAADIO@xpceWaitSemaphore?5not?5found?6?$AA@ 10066650     xpcruntime:xpcimports.obj
 0002:00003674       ??_C@_0BE@NNDIOBKE@xpceSignalSemaphore?$AA@ 10066674     xpcruntime:xpcimports.obj
 0002:0000368c       ??_C@_0BP@LBANMHJP@xpceSignalSemaphore?5not?5found?6?$AA@ 1006668c     xpcruntime:xpcimports.obj
 0002:000036b4       ??_C@_0BE@MEBEKOIM@xpceDeleteSemaphore?$AA@ 100666b4     xpcruntime:xpcimports.obj
 0002:000036cc       ??_C@_0BP@OFNCKOJH@xpceDeleteSemaphore?5not?5found?6?$AA@ 100666cc     xpcruntime:xpcimports.obj
 0002:000036f4       ??_C@_0BD@MFNDMBOF@FindUsbVideoDevice?$AA@ 100666f4     xpcruntime:xpcimports.obj
 0002:0000370c       ??_C@_0BO@POKLDHMI@FindUsbVideoDevice?5not?5found?6?$AA@ 1006670c     xpcruntime:xpcimports.obj
 0002:00003730       ??_C@_0BA@PLPAPNAB@GetVideoConfigs?$AA@ 10066730     xpcruntime:xpcimports.obj
 0002:00003744       ??_C@_0BL@DALDHKHC@GetVideoConfigs?5not?5found?6?$AA@ 10066744     xpcruntime:xpcimports.obj
 0002:00003764       ??_C@_0L@GBAEMHMH@StartVideo?$AA@ 10066764     xpcruntime:xpcimports.obj
 0002:00003774       ??_C@_0BG@HDCELEBP@StartVideo?5not?5found?6?$AA@ 10066774     xpcruntime:xpcimports.obj
 0002:00003790       ??_C@_0BA@FDNPOCLN@ReadFrameBuffer?$AA@ 10066790     xpcruntime:xpcimports.obj
 0002:000037a4       ??_C@_0BL@JHGHPNBI@ReadFrameBuffer?5not?5found?6?$AA@ 100667a4     xpcruntime:xpcimports.obj
 0002:000037c4       ??_C@_09FAHCLKAG@StopVideo?$AA@ 100667c4     xpcruntime:xpcimports.obj
 0002:000037d0       ??_C@_0BF@NKGKKADL@StopVideo?5not?5found?6?$AA@ 100667d0     xpcruntime:xpcimports.obj
 0002:000037ec       ??_C@_0O@MCPKDLLL@ConvertUImage?$AA@ 100667ec     xpcruntime:xpcimports.obj
 0002:000037fc       ??_C@_0BJ@PHJKOAFL@ConvertUImage?5not?5found?6?$AA@ 100667fc     xpcruntime:xpcimports.obj
 0002:0000381c       ??_C@_0BD@NKCBPBJJ@CreateVideoDisplay?$AA@ 1006681c     xpcruntime:xpcimports.obj
 0002:00003834       ??_C@_0BO@HPPLLNFP@CreateVideoDisplay?5not?5found?6?$AA@ 10066834     xpcruntime:xpcimports.obj
 0002:00003858       ??_C@_0BE@KJCKGPHA@DestroyVideoDisplay?$AA@ 10066858     xpcruntime:xpcimports.obj
 0002:00003870       ??_C@_0BP@FMGLJAIJ@DestroyVideoDisplay?5not?5found?6?$AA@ 10066870     xpcruntime:xpcimports.obj
 0002:00003898       ??_C@_0BC@HCMIMIDN@StartVideoDisplay?$AA@ 10066898     xpcruntime:xpcimports.obj
 0002:000038b0       ??_C@_0BN@EFIEBGOO@StartVideoDisplay?5not?5found?6?$AA@ 100668b0     xpcruntime:xpcimports.obj
 0002:000038d4       ??_C@_0BB@JBBLMILG@StopVideoDisplay?$AA@ 100668d4     xpcruntime:xpcimports.obj
 0002:000038e8       ??_C@_0BM@DBJBPLEL@StopVideoDisplay?5not?5found?6?$AA@ 100668e8     xpcruntime:xpcimports.obj
 0002:0000390c       ??_C@_0M@MFJEGMHC@StreamVideo?$AA@ 1006690c     xpcruntime:xpcimports.obj
 0002:0000391c       ??_C@_0BH@OINCDMLA@StreamVideo?5not?5found?6?$AA@ 1006691c     xpcruntime:xpcimports.obj
 0002:00003938       ??_C@_0N@IGGLCIGE@xpceaddEvent?$AA@ 10066938     xpcruntime:xpcimports.obj
 0002:00003948       ??_C@_0BI@NHJNFMKH@xpceaddEvent?5not?5found?6?$AA@ 10066948     xpcruntime:xpcimports.obj
 0002:00003964       ??_C@_0BC@MLJODBHJ@slrtStartProfiler?$AA@ 10066964     xpcruntime:xpcimports.obj
 0002:0000397c       ??_C@_0BN@HLNCOKA@slrtStartProfiler?5not?5found?6?$AA@ 1006697c     xpcruntime:xpcimports.obj
 0002:000039a0       ??_C@_0BB@ONJONMCD@slrtStopProfiler?$AA@ 100669a0     xpcruntime:xpcimports.obj
 0002:000039b4       ??_C@_0BM@GAKJEGBA@slrtStopProfiler?5not?5found?6?$AA@ 100669b4     xpcruntime:xpcimports.obj
 0002:000039d8       ??_C@_0BF@EILBHBBF@slrtGetProfilerState?$AA@ 100669d8     xpcruntime:xpcimports.obj
 0002:000039f4       ??_C@_0CA@EDDFOCLE@slrtGetProfilerState?5not?5found?6?$AA@ 100669f4     xpcruntime:xpcimports.obj
 0002:00003a1c       ??_C@_0BB@HDPOIJAB@xpceDAQPostEvent?$AA@ 10066a1c     xpcruntime:xpcimports.obj
 0002:00003a30       ??_C@_0BM@IHANBKGN@xpceDAQPostEvent?5not?5found?6?$AA@ 10066a30     xpcruntime:xpcimports.obj
 0002:00003a54       ??_C@_0BH@MBACMOD@xpceDAQUpdateTimeStamp?$AA@ 10066a54     xpcruntime:xpcimports.obj
 0002:00003a70       ??_C@_0CC@DAKBBINL@xpceDAQUpdateTimeStamp?5not?5found@ 10066a70     xpcruntime:xpcimports.obj
 0002:00003a98       ??_C@_0BG@CCHICKPN@slrteSetStepSizeDelta?$AA@ 10066a98     xpcruntime:xpcimports.obj
 0002:00003ab4       ??_C@_0CB@MKHINEIJ@slrteSetStepSizeDelta?5not?5found?6@ 10066ab4     xpcruntime:xpcimports.obj
 0002:00003adc       ??_C@_0BI@CLNBLDKJ@slrteGetCurrentStepSize?$AA@ 10066adc     xpcruntime:xpcimports.obj
 0002:00003af8       ??_C@_0CD@GIOJPGJA@slrteGetCurrentStepSize?5not?5foun@ 10066af8     xpcruntime:xpcimports.obj
 0002:00003b24       ??_C@_0BE@FCLCBOC@registerPTPTimeRead?$AA@ 10066b24     xpcruntime:xpcimports.obj
 0002:00003b3c       ??_C@_0BP@LHPKAJIP@registerPTPTimeRead?5not?5found?6?$AA@ 10066b3c     xpcruntime:xpcimports.obj
 0002:00003b64       ??_C@_0BG@KIGCDDJI@unRegisterPTPTimeRead?$AA@ 10066b64     xpcruntime:xpcimports.obj
 0002:00003b80       ??_C@_0CB@MLFFBFCM@unRegisterPTPTimeRead?5not?5found?6@ 10066b80     xpcruntime:xpcimports.obj
 0002:00003ba8       ??_C@_0BB@IPMDDBHK@slTestInitialize?$AA@ 10066ba8     xpcruntime:xpcimports.obj
 0002:00003bbc       ??_C@_0BM@LAJFCCJH@slTestInitialize?5not?5found?6?$AA@ 10066bbc     xpcruntime:xpcimports.obj
 0002:00003be0       ??_C@_0BF@OOMPMEBC@slTestLogAssessments?$AA@ 10066be0     xpcruntime:xpcimports.obj
 0002:00003bfc       ??_C@_0CA@FGJCEBAG@slTestLogAssessments?5not?5found?6?$AA@ 10066bfc     xpcruntime:xpcimports.obj
 0002:00003c24       ??_C@_0BB@HJHKONHO@slTestEvalOnFail?$AA@ 10066c24     xpcruntime:xpcimports.obj
 0002:00003c38       ??_C@_0BM@JIKCFFNJ@slTestEvalOnFail?5not?5found?6?$AA@ 10066c38     xpcruntime:xpcimports.obj
 0002:00003c5c       ??_C@_0BA@LBHLABFP@slTestTerminate?$AA@ 10066c5c     xpcruntime:xpcimports.obj
 0002:00003c70       ??_C@_0BL@EMFGKAPA@slTestTerminate?5not?5found?6?$AA@ 10066c70     xpcruntime:xpcimports.obj
 0002:00003c90       ??_C@_0BE@JPNPBBEO@slTestRegAssessment?$AA@ 10066c90     xpcruntime:xpcimports.obj
 0002:00003ca8       ??_C@_0BP@FBDEJJJH@slTestRegAssessment?5not?5found?6?$AA@ 10066ca8     xpcruntime:xpcimports.obj
 0002:00003cd0       ??_C@_0O@NCLGDNIB@slrteSetupMSI?$AA@ 10066cd0     xpcruntime:xpcimports.obj
 0002:00003ce0       ??_C@_0BJ@HEFMECLM@slrteSetupMSI?5not?5found?6?$AA@ 10066ce0     xpcruntime:xpcimports.obj
 0002:00003d00       ??_C@_0BH@BPOLALHD@slrtGetCRBScratchSpace?$AA@ 10066d00     xpcruntime:xpcimports.obj
 0002:00003d1c       ??_C@_0CC@KCKAJKKJ@slrtGetCRBScratchSpace?5not?5found@ 10066d1c     xpcruntime:xpcimports.obj
 0002:00003d44       ??_C@_0BC@MKFDAKOL@slrtGetSgCRBSpace?$AA@ 10066d44     xpcruntime:xpcimports.obj
 0002:00003d5c       ??_C@_0BN@JDPHPLHL@slrtGetSgCRBSpace?5not?5found?6?$AA@ 10066d5c     xpcruntime:xpcimports.obj
 0002:00003d80       ??_C@_0P@EPAPKLIF@slrtfsOpenFile?$AA@ 10066d80     xpcruntime:xpcimports.obj
 0002:00003d94       ??_C@_0BK@FIHCBOHG@slrtfsOpenFile?5not?5found?6?$AA@ 10066d94     xpcruntime:xpcimports.obj
 0002:00003db4       ??_C@_0BA@LILAFDDL@slrtfsCloseFile?$AA@ 10066db4     xpcruntime:xpcimports.obj
 0002:00003dc8       ??_C@_0BL@DEGHJFIB@slrtfsCloseFile?5not?5found?6?$AA@ 10066dc8     xpcruntime:xpcimports.obj
 0002:00003de8       ??_C@_0BC@OKMJDIEH@slrtfsWriteToFile?$AA@ 10066de8     xpcruntime:xpcimports.obj
 0002:00003e00       ??_C@_0BN@KCFLCLAH@slrtfsWriteToFile?5not?5found?6?$AA@ 10066e00     xpcruntime:xpcimports.obj
 0002:00003e24       ??_C@_0BK@GIPNFFFF@slrtfsGetFileErrorMessage?$AA@ 10066e24     xpcruntime:xpcimports.obj
 0002:00003e44       ??_C@_0CF@BCBLMKLE@slrtfsGetFileErrorMessage?5not?5fo@ 10066e44     xpcruntime:xpcimports.obj
 0002:00003e70       ??_C@_0BD@ICBOKMK@slrtfsGetFileError?$AA@ 10066e70     xpcruntime:xpcimports.obj
 0002:00003e88       ??_C@_0BO@FNBANAE@slrtfsGetFileError?5not?5found?6?$AA@ 10066e88     xpcruntime:xpcimports.obj
 0002:00003eac       ??_C@_0BE@PPAJMHJP@slrtfsOpenFileAsync?$AA@ 10066eac     xpcruntime:xpcimports.obj
 0002:00003ec4       ??_C@_0BP@HKBMMJOK@slrtfsOpenFileAsync?5not?5found?6?$AA@ 10066ec4     xpcruntime:xpcimports.obj
 0002:00003eec       ??_C@_0BF@IGNDIBPF@slrtfsCloseFileAsync?$AA@ 10066eec     xpcruntime:xpcimports.obj
 0002:00003f08       ??_C@_0CA@GJPFDBKN@slrtfsCloseFileAsync?5not?5found?6?$AA@ 10066f08     xpcruntime:xpcimports.obj
 0002:00003f30       ??_C@_0BE@IOLEBNB@slrtfsGetFileStatus?$AA@ 10066f30     xpcruntime:xpcimports.obj
 0002:00003f48       ??_C@_0BP@PEFHDGHL@slrtfsGetFileStatus?5not?5found?6?$AA@ 10066f48     xpcruntime:xpcimports.obj
 0002:00003f70       ??_C@_0M@HKIJIMG@slrtfsFread?$AA@ 10066f70     xpcruntime:xpcimports.obj
 0002:00003f80       ??_C@_0BH@OOKBGONO@slrtfsFread?5not?5found?6?$AA@ 10066f80     xpcruntime:xpcimports.obj
 0002:00003f9c       ??_C@_0BE@OGCMPLAP@slrtGetDefaultDrive?$AA@ 10066f9c     xpcruntime:xpcimports.obj
 0002:00003fb4       ??_C@_0BP@HKFGLHOE@slrtGetDefaultDrive?5not?5found?6?$AA@ 10066fb4     xpcruntime:xpcimports.obj
 0002:00003fdc       ??_C@_0N@NAJIKFFI@slrtLogEvent?$AA@ 10066fdc     xpcruntime:xpcimports.obj
 0002:00003fec       ??_C@_0BI@NKCEACND@slrtLogEvent?5not?5found?6?$AA@ 10066fec     xpcruntime:xpcimports.obj
 0002:00004008       ??_C@_0N@IDKFJOHI@getlasterror?$AA@ 10067008     xpcruntime:xpcimports.obj
 0002:00004018       ??_C@_0BI@MIHMCHGL@getlasterror?5not?5found?6?$AA@ 10067018     xpcruntime:xpcimports.obj
 0002:00004034       ??_C@_0P@OKHGKJKN@geterrorstring?$AA@ 10067034     xpcruntime:xpcimports.obj
 0002:00004048       ??_C@_0BK@NOHFDMLP@geterrorstring?5not?5found?6?$AA@ 10067048     xpcruntime:xpcimports.obj
 0002:00004068       ??_C@_0BD@HNFFKMGJ@slrtGetCPUTCelsius?$AA@ 10067068     xpcruntime:xpcimports.obj
 0002:00004080       ??_C@_0BO@LHBFKLIH@slrtGetCPUTCelsius?5not?5found?6?$AA@ 10067080     xpcruntime:xpcimports.obj
 0002:000040a4       ??_C@_0M@OONCNCLM@slrtWarning?$AA@ 100670a4     xpcruntime:xpcimports.obj
 0002:000040b4       ??_C@_0BH@ICKGIEMB@slrtWarning?5not?5found?6?$AA@ 100670b4     xpcruntime:xpcimports.obj
 0002:000040d0       ??_C@_0M@JACEPOPN@registerNIC?$AA@ 100670d0     xpcruntime:xpcimports.obj
 0002:000040e0       ??_C@_0BH@JMDHJIAC@registerNIC?5not?5found?6?$AA@ 100670e0     xpcruntime:xpcimports.obj
 0002:000040fc       ??_C@_0M@KBKHECFH@NICSetIface?$AA@ 100670fc     xpcruntime:xpcimports.obj
 0002:0000410c       ??_C@_0BH@NJAHOBA@NICSetIface?5not?5found?6?$AA@ 1006710c     xpcruntime:xpcimports.obj
 0002:00004128       ??_C@_0M@FAILFBCK@NICGetIface?$AA@ 10067128     xpcruntime:xpcimports.obj
 0002:00004138       ??_C@_0BH@KDLLDOGM@NICGetIface?5not?5found?6?$AA@ 10067138     xpcruntime:xpcimports.obj
 0002:00004154       ??_C@_0L@JNFPDPO@releaseNIC?$AA@ 10067154     xpcruntime:xpcimports.obj
 0002:00004164       ??_C@_0BG@EBGJANLA@releaseNIC?5not?5found?6?$AA@ 10067164     xpcruntime:xpcimports.obj
 0002:00004180       ??_C@_0BC@HLDKJAG@SetIPTASKPriority?$AA@ 10067180     xpcruntime:xpcimports.obj
 0002:00004198       ??_C@_0BN@OGKMHHAE@SetIPTASKPriority?5not?5found?6?$AA@ 10067198     xpcruntime:xpcimports.obj
 0002:000041bc       ??_C@_0O@LHENMBDD@OpenInterface?$AA@ 100671bc     xpcruntime:xpcimports.obj
 0002:000041cc       ??_C@_0BJ@PFGDBKHB@OpenInterface?5not?5found?6?$AA@ 100671cc     xpcruntime:xpcimports.obj
 0002:000041ec       ??_C@_0P@IINFELKD@CloseInterface?$AA@ 100671ec     xpcruntime:xpcimports.obj
 0002:00004200       ??_C@_0BK@PAPDNDBK@CloseInterface?5not?5found?6?$AA@ 10067200     xpcruntime:xpcimports.obj
 0002:00004220       ??_C@_05LEFIAAOI@SetIP?$AA@ 10067220     xpcruntime:xpcimports.obj
 0002:00004228       ??_C@_0BB@CGLIBAMM@SetIP?5not?5found?6?$AA@ 10067228     xpcruntime:xpcimports.obj
 0002:0000423c       ??_C@_0BA@HIJJHHMD@AddGatewayRoute?$AA@ 1006723c     xpcruntime:xpcimports.obj
 0002:00004250       ??_C@_0BL@BFCFMDMN@AddGatewayRoute?5not?5found?6?$AA@ 10067250     xpcruntime:xpcimports.obj
 0002:00004270       ??_C@_0M@PHMABFPI@DeleteRoute?$AA@ 10067270     xpcruntime:xpcimports.obj
 0002:00004280       ??_C@_0BH@JPJGLLID@DeleteRoute?5not?5found?6?$AA@ 10067280     xpcruntime:xpcimports.obj
 0002:0000429c       ??_C@_0BA@FCDIMKIJ@GetHostTarIPAdd?$AA@ 1006729c     xpcruntime:xpcimports.obj
 0002:000042b0       ??_C@_0BL@MBKDGKBO@GetHostTarIPAdd?5not?5found?6?$AA@ 100672b0     xpcruntime:xpcimports.obj
 0002:000042d0       ??_C@_0M@HPMIPIBI@GetDCUUsage?$AA@ 100672d0     xpcruntime:xpcimports.obj
 0002:000042e0       ??_C@_0BH@EBLJKCJC@GetDCUUsage?5not?5found?6?$AA@ 100672e0     xpcruntime:xpcimports.obj
 0002:000042fc       ??_C@_06MPKMECK@accept?$AA@ 100672fc     xpcruntime:xpcimports.obj
 0002:00004304       ??_C@_0BC@GBGIEMNO@accept?5not?5found?6?$AA@ 10067304     xpcruntime:xpcimports.obj
 0002:0000431c       ??_C@_04NPNJNMMP@bind?$AA@ 1006731c     xpcruntime:xpcimports.obj
 0002:00004324       ??_C@_0BA@DAJNENLO@bind?5not?5found?6?$AA@ 10067324     xpcruntime:xpcimports.obj
 0002:00004338       ??_C@_0L@CKHNIFCM@setsockopt?$AA@ 10067338     xpcruntime:xpcimports.obj
 0002:00004348       ??_C@_0BG@MFIIOMFE@setsockopt?5not?5found?6?$AA@ 10067348     xpcruntime:xpcimports.obj
 0002:00004364       ??_C@_0M@ODDJDCDK@closesocket?$AA@ 10067364     xpcruntime:xpcimports.obj
 0002:00004374       ??_C@_0BH@JHGHMIL@closesocket?5not?5found?6?$AA@ 10067374     xpcruntime:xpcimports.obj
 0002:00004390       ??_C@_07KAIBNCHO@connect?$AA@ 10067390     xpcruntime:xpcimports.obj
 0002:0000439c       ??_C@_0BD@MKLLMBM@connect?5not?5found?6?$AA@ 1006739c     xpcruntime:xpcimports.obj
 0002:000043b4       ??_C@_0M@PBPOCKDG@ioctlsocket?$AA@ 100673b4     xpcruntime:xpcimports.obj
 0002:000043c4       ??_C@_0BH@NFCNHHIH@ioctlsocket?5not?5found?6?$AA@ 100673c4     xpcruntime:xpcimports.obj
 0002:000043e0       ??_C@_06OODDLKLE@listen?$AA@ 100673e0     xpcruntime:xpcimports.obj
 0002:000043e8       ??_C@_0BC@NHBILEKI@listen?5not?5found?6?$AA@ 100673e8     xpcruntime:xpcimports.obj
 0002:00004400       ??_C@_08HMBBGFHE@recvfrom?$AA@ 10067400     xpcruntime:xpcimports.obj
 0002:0000440c       ??_C@_0BE@BJAJFFLF@recvfrom?5not?5found?6?$AA@ 1006740c     xpcruntime:xpcimports.obj
 0002:00004424       ??_C@_06MEPBGKEC@sendto?$AA@ 10067424     xpcruntime:xpcimports.obj
 0002:0000442c       ??_C@_0BC@BHPIMDJO@sendto?5not?5found?6?$AA@ 1006742c     xpcruntime:xpcimports.obj
 0002:00004444       ??_C@_09JKBDEEOB@inet_addr?$AA@ 10067444     xpcruntime:xpcimports.obj
 0002:00004450       ??_C@_0BF@HKJPGECN@inet_addr?5not?5found?6?$AA@ 10067450     xpcruntime:xpcimports.obj
 0002:0000446c       ??_C@_06HBELJPBO@socket?$AA@ 1006746c     xpcruntime:xpcimports.obj
 0002:00004474       ??_C@_0BC@NAGFFJGA@socket?5not?5found?6?$AA@ 10067474     xpcruntime:xpcimports.obj
 0002:0000448c       ??_C@_09ICJIFGNC@GetSocket?$AA@ 1006748c     xpcruntime:xpcimports.obj
 0002:00004498       ??_C@_0BF@KDBCKMOJ@GetSocket?5not?5found?6?$AA@ 10067498     xpcruntime:xpcimports.obj
 0002:000044b4       ??_C@_0P@KJEGJMJI@GetSocketState?$AA@ 100674b4     xpcruntime:xpcimports.obj
 0002:000044c8       ??_C@_0BK@IALBJHEB@GetSocketState?5not?5found?6?$AA@ 100674c8     xpcruntime:xpcimports.obj
 0002:000044e8       ??_C@_0L@MEAJHNHB@SocketSend?$AA@ 100674e8     xpcruntime:xpcimports.obj
 0002:000044f8       ??_C@_0BG@EOCMBFJA@SocketSend?5not?5found?6?$AA@ 100674f8     xpcruntime:xpcimports.obj
 0002:00004514       ??_C@_0O@PFPCLEMF@SocketReceive?$AA@ 10067514     xpcruntime:xpcimports.obj
 0002:00004524       ??_C@_0BJ@HIBADDFO@SocketReceive?5not?5found?6?$AA@ 10067524     xpcruntime:xpcimports.obj
 0002:00004544       ??_C@_0BD@OOGFNAIK@CreateServerSocket?$AA@ 10067544     xpcruntime:xpcimports.obj
 0002:0000455c       ??_C@_0BO@GKIJHIPH@CreateServerSocket?5not?5found?6?$AA@ 1006755c     xpcruntime:xpcimports.obj
 0002:00004580       ??_C@_0BB@KGHJGFFO@OpenServerListen?$AA@ 10067580     xpcruntime:xpcimports.obj
 0002:00004594       ??_C@_0BM@NFMMLIO@OpenServerListen?5not?5found?6?$AA@ 10067594     xpcruntime:xpcimports.obj
 0002:000045b8       ??_C@_0BE@BAJLDJAH@ConnectServerSocket?$AA@ 100675b8     xpcruntime:xpcimports.obj
 0002:000045d0       ??_C@_0BP@KJNODIKE@ConnectServerSocket?5not?5found?6?$AA@ 100675d0     xpcruntime:xpcimports.obj
 0002:000045f8       ??_C@_0BC@PLKKJDIM@CloseServerSocket?$AA@ 100675f8     xpcruntime:xpcimports.obj
 0002:00004610       ??_C@_0BN@KEJEPNMB@CloseServerSocket?5not?5found?6?$AA@ 10067610     xpcruntime:xpcimports.obj
 0002:00004634       ??_C@_0BC@IHMNIGFJ@ResetServerSocket?$AA@ 10067634     xpcruntime:xpcimports.obj
 0002:0000464c       ??_C@_0BN@NIOGJLCG@ResetServerSocket?5not?5found?6?$AA@ 1006764c     xpcruntime:xpcimports.obj
 0002:00004670       ??_C@_0BD@MCLPKCPP@CreateClientSocket?$AA@ 10067670     xpcruntime:xpcimports.obj
 0002:00004688       ??_C@_0BO@DILAGPFN@CreateClientSocket?5not?5found?6?$AA@ 10067688     xpcruntime:xpcimports.obj
 0002:000046ac       ??_C@_0BB@DAPKNNLG@BindClientSocket?$AA@ 100676ac     xpcruntime:xpcimports.obj
 0002:000046c0       ??_C@_0BM@LLLMMDFN@BindClientSocket?5not?5found?6?$AA@ 100676c0     xpcruntime:xpcimports.obj
 0002:000046e4       ??_C@_0BE@DMEBELHC@ConnectClientSocket?$AA@ 100676e4     xpcruntime:xpcimports.obj
 0002:000046fc       ??_C@_0BP@PLOHCPAO@ConnectClientSocket?5not?5found?6?$AA@ 100676fc     xpcruntime:xpcimports.obj
 0002:00004724       ??_C@_0BC@NHHAOBPJ@CloseClientSocket?$AA@ 10067724     xpcruntime:xpcimports.obj
 0002:0000473c       ??_C@_0BN@PGKNOKGL@CloseClientSocket?5not?5found?6?$AA@ 1006773c     xpcruntime:xpcimports.obj
 0002:00004760       ??_C@_0BC@KLBHPECM@ResetClientSocket?$AA@ 10067760     xpcruntime:xpcimports.obj
 0002:00004778       ??_C@_0BN@IKNPIMIM@ResetClientSocket?5not?5found?6?$AA@ 10067778     xpcruntime:xpcimports.obj
 0002:0000479c       ??_C@_0M@IJOPFCCE@UDPOpenSend?$AA@ 1006779c     xpcruntime:xpcimports.obj
 0002:000047ac       ??_C@_0BH@CCHBDPG@UDPOpenSend?5not?5found?6?$AA@ 100677ac     xpcruntime:xpcimports.obj
 0002:000047c8       ??_C@_0P@MEPACHPD@UDPOpenReceive?$AA@ 100677c8     xpcruntime:xpcimports.obj
 0002:000047dc       ??_C@_0BK@PFMCPKIO@UDPOpenReceive?5not?5found?6?$AA@ 100677dc     xpcruntime:xpcimports.obj
 0002:000047fc       ??_C@_0N@NMMOLOEM@UDPCloseSend?$AA@ 100677fc     xpcruntime:xpcimports.obj
 0002:0000480c       ??_C@_0BI@ENKCOCDG@UDPCloseSend?5not?5found?6?$AA@ 1006780c     xpcruntime:xpcimports.obj
 0002:00004828       ??_C@_0BA@DMJGBBIA@UDPCloseReceive?$AA@ 10067828     xpcruntime:xpcimports.obj
 0002:0000483c       ??_C@_0BL@PEBIMLNC@UDPCloseReceive?5not?5found?6?$AA@ 1006783c     xpcruntime:xpcimports.obj
 0002:00004908       __pRawDllMain              10067908     LIBCMT:dll_dllmain.obj
 0002:00004908       __pDefaultRawDllMain       10067908     LIBCMT:dll_dllmain.obj
 0002:00004920       ??_C@_1BC@DNHGCMLG@?$AAa?$AAd?$AAv?$AAa?$AAp?$AAi?$AA3?$AA2?$AA?$AA@ 10067920     libvcruntime:winapi_downlevel.obj
 0002:00004938       ??_C@_1DM@KHCHBNEB@?$AAa?$AAp?$AAi?$AA?9?$AAm?$AAs?$AA?9?$AAw?$AAi?$AAn?$AA?9?$AAc?$AAo?$AAr?$AAe?$AA?9?$AAf?$AAi?$AAb?$AAe?$AAr?$AAs?$AA?9?$AAl?$AA1?$AA?9?$AA1?$AA?9?$AA1?$AA?$AA@ 10067938     libvcruntime:winapi_downlevel.obj
 0002:00004980       ??_C@_1DK@LPPGFMPP@?$AAa?$AAp?$AAi?$AA?9?$AAm?$AAs?$AA?9?$AAw?$AAi?$AAn?$AA?9?$AAc?$AAo?$AAr?$AAe?$AA?9?$AAs?$AAy?$AAn?$AAc?$AAh?$AA?9?$AAl?$AA1?$AA?9?$AA2?$AA?9?$AA0?$AA?$AA@ 10067980     libvcruntime:winapi_downlevel.obj
 0002:000049c8       ??_C@_1BC@GDMECMAK@?$AAk?$AAe?$AAr?$AAn?$AAe?$AAl?$AA3?$AA2?$AA?$AA@ 100679c8     libvcruntime:winapi_downlevel.obj
 0002:000049e4       ??_C@_0O@BAMBGLIE@EventRegister?$AA@ 100679e4     libvcruntime:winapi_downlevel.obj
 0002:000049f8       ??_C@_0BE@BJEEGHGK@EventSetInformation?$AA@ 100679f8     libvcruntime:winapi_downlevel.obj
 0002:00004a14       ??_C@_0BA@FAKLIPIC@EventUnregister?$AA@ 10067a14     libvcruntime:winapi_downlevel.obj
 0002:00004a2c       ??_C@_0BD@PKLHJPHD@EventWriteTransfer?$AA@ 10067a2c     libvcruntime:winapi_downlevel.obj
 0002:00004a50       ??_C@_08KNHFBNJ@FlsAlloc?$AA@ 10067a50     libvcruntime:winapi_downlevel.obj
 0002:00004a68       ??_C@_07PEJMOBNF@FlsFree?$AA@ 10067a68     libvcruntime:winapi_downlevel.obj
 0002:00004a80       ??_C@_0M@GDNOONDI@FlsGetValue?$AA@ 10067a80     libvcruntime:winapi_downlevel.obj
 0002:00004a9c       ??_C@_0M@JCPCPOEF@FlsSetValue?$AA@ 10067a9c     libvcruntime:winapi_downlevel.obj
 0002:00004ab8       ??_C@_0BM@HCFOFFN@InitializeCriticalSectionEx?$AA@ 10067ab8     libvcruntime:winapi_downlevel.obj
 0002:00004cc0       ??_C@_08EHJDFFNH@__based?$CI?$AA@ 10067cc0     libvcruntime:undname.obj
 0002:00004ccc       ??_C@_07KOLFKCDI@__cdecl?$AA@ 10067ccc     libvcruntime:undname.obj
 0002:00004cd8       ??_C@_08GHMPAG@__pascal?$AA@ 10067cd8     libvcruntime:undname.obj
 0002:00004ce4       ??_C@_09IFJBGAPI@__stdcall?$AA@ 10067ce4     libvcruntime:undname.obj
 0002:00004cf0       ??_C@_0L@NPHFGOKO@__thiscall?$AA@ 10067cf0     libvcruntime:undname.obj
 0002:00004d00       ??_C@_0L@JMKHOMEK@__fastcall?$AA@ 10067d00     libvcruntime:undname.obj
 0002:00004d10       ??_C@_0N@BCKKPABJ@__vectorcall?$AA@ 10067d10     libvcruntime:undname.obj
 0002:00004d20       ??_C@_09HIJEGCPM@__clrcall?$AA@ 10067d20     libvcruntime:undname.obj
 0002:00004d2c       ??_C@_06GHPCKEAG@__eabi?$AA@ 10067d2c     libvcruntime:undname.obj
 0002:00004d34       ??_C@_07JOMMBBKO@__ptr64?$AA@ 10067d34     libvcruntime:undname.obj
 0002:00004d40       ??_C@_0L@PILCLIHE@__restrict?$AA@ 10067d40     libvcruntime:undname.obj
 0002:00004d50       ??_C@_0M@GFIIJFMG@__unaligned?$AA@ 10067d50     libvcruntime:undname.obj
 0002:00004d60       ??_C@_09DHDLOLLB@restrict?$CI?$AA@ 10067d60     libvcruntime:undname.obj
 0002:00004d6c       ??_C@_04NIHEBCM@?5new?$AA@ 10067d6c     libvcruntime:undname.obj
 0002:00004d74       ??_C@_07FPCDHGMM@?5delete?$AA@ 10067d74     libvcruntime:undname.obj
 0002:00004d80       ??_C@_01NEMOKFLO@?$DN?$AA@ 10067d80     libvcruntime:undname.obj
 0002:00004d84       ??_C@_02GPIOPFAK@?$DO?$DO?$AA@ 10067d84     libvcruntime:undname.obj
 0002:00004d88       ??_C@_02FODMEDOG@?$DM?$DM?$AA@ 10067d88     libvcruntime:undname.obj
 0002:00004d8c       ??_C@_01DCLJPIOD@?$CB?$AA@ 10067d8c     libvcruntime:undname.obj
 0002:00004d90       ??_C@_02EGOFBIJA@?$DN?$DN?$AA@ 10067d90     libvcruntime:undname.obj
 0002:00004d94       ??_C@_02FDNJECIE@?$CB?$DN?$AA@ 10067d94     libvcruntime:undname.obj
 0002:00004d98       ??_C@_02GPECMEKF@?$FL?$FN?$AA@ 10067d98     libvcruntime:undname.obj
 0002:00004d9c       ??_C@_08LHJFAFGD@operator?$AA@ 10067d9c     libvcruntime:undname.obj
 0002:00004da8       ??_C@_02HBOOOICD@?9?$DO?$AA@ 10067da8     libvcruntime:undname.obj
 0002:00004dac       ??_C@_01NBENCBCI@?$CK?$AA@ 10067dac     libvcruntime:undname.obj
 0002:00004db0       ??_C@_02ECNGHCIF@?$CL?$CL?$AA@ 10067db0     libvcruntime:undname.obj
 0002:00004db4       ??_C@_02BAABKJLB@?9?9?$AA@ 10067db4     libvcruntime:undname.obj
 0002:00004db8       ??_C@_01JOAMLHOP@?9?$AA@   10067db8     libvcruntime:undname.obj
 0002:00004dbc       ??_C@_01MIFGBAGJ@?$CL?$AA@ 10067dbc     libvcruntime:undname.obj
 0002:00004dc0       ??_C@_01HNPIGOCE@?$CG?$AA@ 10067dc0     libvcruntime:undname.obj
 0002:00004dc4       ??_C@_03MNHNFDLC@?9?$DO?$CK?$AA@ 10067dc4     libvcruntime:undname.obj
 0002:00004dc8       ??_C@_01KMDKNFGN@?1?$AA@   10067dc8     libvcruntime:undname.obj
 0002:00004dcc       ??_C@_01FGNFDNOH@?$CF?$AA@ 10067dcc     libvcruntime:undname.obj
 0002:00004dd0       ??_C@_01MNNFJEPP@?$DM?$AA@ 10067dd0     libvcruntime:undname.obj
 0002:00004dd4       ??_C@_02EHCHHCKH@?$DM?$DN?$AA@ 10067dd4     libvcruntime:undname.obj
 0002:00004dd8       ??_C@_01PPODPGHN@?$DO?$AA@ 10067dd8     libvcruntime:undname.obj
 0002:00004ddc       ??_C@_02EEKDKGMJ@?$DO?$DN?$AA@ 10067ddc     libvcruntime:undname.obj
 0002:00004de0       ??_C@_01IHBHIGKO@?0?$AA@   10067de0     libvcruntime:undname.obj
 0002:00004de4       ??_C@_02HCKGKOFO@?$CI?$CJ?$AA@ 10067de4     libvcruntime:undname.obj
 0002:00004de8       ??_C@_01PJKLJHI@?$HO?$AA@  10067de8     libvcruntime:undname.obj
 0002:00004dec       ??_C@_01JKBOJNNK@?$FO?$AA@ 10067dec     libvcruntime:undname.obj
 0002:00004df0       ??_C@_01DNKMNLPK@?$HM?$AA@ 10067df0     libvcruntime:undname.obj
 0002:00004df4       ??_C@_02PPKAJPJL@?$CG?$CG?$AA@ 10067df4     libvcruntime:undname.obj
 0002:00004df8       ??_C@_02NONPIBCD@?$HM?$HM?$AA@ 10067df8     libvcruntime:undname.obj
 0002:00004dfc       ??_C@_02FPIMKNGF@?$CK?$DN?$AA@ 10067dfc     libvcruntime:undname.obj
 0002:00004e00       ??_C@_02FOEOMHFC@?$CL?$DN?$AA@ 10067e00     libvcruntime:undname.obj
 0002:00004e04       ??_C@_02FKMDLLOA@?9?$DN?$AA@ 10067e04     libvcruntime:undname.obj
 0002:00004e08       ??_C@_02FJEHGPIO@?1?$DN?$AA@ 10067e08     libvcruntime:undname.obj
 0002:00004e0c       ??_C@_02FENAOKFI@?$CF?$DN?$AA@ 10067e0c     libvcruntime:undname.obj
 0002:00004e10       ??_C@_03IKFCCPFF@?$DO?$DO?$DN?$AA@ 10067e10     libvcruntime:undname.obj
 0002:00004e14       ??_C@_03CDNPDDLA@?$DM?$DM?$DN?$AA@ 10067e14     libvcruntime:undname.obj
 0002:00004e18       ??_C@_02FGJGFEAB@?$CG?$DN?$AA@ 10067e18     libvcruntime:undname.obj
 0002:00004e1c       ??_C@_02DHLNPPGH@?$HM?$DN?$AA@ 10067e1c     libvcruntime:undname.obj
 0002:00004e20       ??_C@_02MHEGNOJ@?$FO?$DN?$AA@ 10067e20     libvcruntime:undname.obj
 0002:00004e24       ??_C@_09IFPLHPGF@?$GAvftable?8?$AA@ 10067e24     libvcruntime:undname.obj
 0002:00004e30       ??_C@_09BLBHBJP@?$GAvbtable?8?$AA@ 10067e30     libvcruntime:undname.obj
 0002:00004e3c       ??_C@_07FEEIOKP@?$GAvcall?8?$AA@ 10067e3c     libvcruntime:undname.obj
 0002:00004e48       ??_C@_08LLFFHHDJ@?$GAtypeof?8?$AA@ 10067e48     libvcruntime:undname.obj
 0002:00004e54       ??_C@_0BF@KDPPACIK@?$GAlocal?5static?5guard?8?$AA@ 10067e54     libvcruntime:undname.obj
 0002:00004e70       ??_C@_08OBABFOLI@?$GAstring?8?$AA@ 10067e70     libvcruntime:undname.obj
 0002:00004e7c       ??_C@_0BD@JDLKDPAB@?$GAvbase?5destructor?8?$AA@ 10067e7c     libvcruntime:undname.obj
 0002:00004e94       ??_C@_0BN@DEGPLNFK@?$GAvector?5deleting?5destructor?8?$AA@ 10067e94     libvcruntime:undname.obj
 0002:00004eb8       ??_C@_0BO@OBMKPJIG@?$GAdefault?5constructor?5closure?8?$AA@ 10067eb8     libvcruntime:undname.obj
 0002:00004edc       ??_C@_0BN@IMDCHIKM@?$GAscalar?5deleting?5destructor?8?$AA@ 10067edc     libvcruntime:undname.obj
 0002:00004f00       ??_C@_0BO@PFGOCPJJ@?$GAvector?5constructor?5iterator?8?$AA@ 10067f00     libvcruntime:undname.obj
 0002:00004f24       ??_C@_0BN@LFPFMEDL@?$GAvector?5destructor?5iterator?8?$AA@ 10067f24     libvcruntime:undname.obj
 0002:00004f48       ??_C@_0CE@IKBNEHA@?$GAvector?5vbase?5constructor?5iterat@ 10067f48     libvcruntime:undname.obj
 0002:00004f74       ??_C@_0BL@NILFHHPC@?$GAvirtual?5displacement?5map?8?$AA@ 10067f74     libvcruntime:undname.obj
 0002:00004f94       ??_C@_0CB@JONCMFFK@?$GAeh?5vector?5constructor?5iterator?8@ 10067f94     libvcruntime:undname.obj
 0002:00004fbc       ??_C@_0CA@GCEOPDGL@?$GAeh?5vector?5destructor?5iterator?8?$AA@ 10067fbc     libvcruntime:undname.obj
 0002:00004fe4       ??_C@_0CH@OOJPLCPH@?$GAeh?5vector?5vbase?5constructor?5ite@ 10067fe4     libvcruntime:undname.obj
 0002:00005014       ??_C@_0BL@LLKPOHJI@?$GAcopy?5constructor?5closure?8?$AA@ 10068014     libvcruntime:undname.obj
 0002:00005034       ??_C@_0BA@KBCDOMBN@?$GAudt?5returning?8?$AA@ 10068034     libvcruntime:undname.obj
 0002:00005048       ??_C@_03KLGMFNMG@?$GAEH?$AA@ 10068048     libvcruntime:undname.obj
 0002:0000504c       ??_C@_05KHLCHHI@?$GARTTI?$AA@ 1006804c     libvcruntime:undname.obj
 0002:00005054       ??_C@_0BA@KKLDJDLB@?$GAlocal?5vftable?8?$AA@ 10068054     libvcruntime:undname.obj
 0002:00005068       ??_C@_0CE@IIHCMGGL@?$GAlocal?5vftable?5constructor?5closu@ 10068068     libvcruntime:undname.obj
 0002:00005094       ??_C@_06FHBGPFGH@?5new?$FL?$FN?$AA@ 10068094     libvcruntime:undname.obj
 0002:0000509c       ??_C@_09LBNFPBCA@?5delete?$FL?$FN?$AA@ 1006809c     libvcruntime:undname.obj
 0002:000050a8       ??_C@_0P@HJKNJFNN@?$GAomni?5callsig?8?$AA@ 100680a8     libvcruntime:undname.obj
 0002:000050bc       ??_C@_0BL@CNOONJFP@?$GAplacement?5delete?5closure?8?$AA@ 100680bc     libvcruntime:undname.obj
 0002:000050dc       ??_C@_0BN@CKNJLHMB@?$GAplacement?5delete?$FL?$FN?5closure?8?$AA@ 100680dc     libvcruntime:undname.obj
 0002:00005100       ??_C@_0CG@CFDHKGGD@?$GAmanaged?5vector?5constructor?5iter@ 10068100     libvcruntime:undname.obj
 0002:00005130       ??_C@_0CF@IMGKMJNO@?$GAmanaged?5vector?5destructor?5itera@ 10068130     libvcruntime:undname.obj
 0002:0000515c       ??_C@_0CG@HLDDJMAG@?$GAeh?5vector?5copy?5constructor?5iter@ 1006815c     libvcruntime:undname.obj
 0002:0000518c       ??_C@_0CM@FCBBDIGB@?$GAeh?5vector?5vbase?5copy?5constructo@ 1006818c     libvcruntime:undname.obj
 0002:000051c0       ??_C@_0BL@CLIPGLGB@?$GAdynamic?5initializer?5for?5?8?$AA@ 100681c0     libvcruntime:undname.obj
 0002:000051e0       ??_C@_0CB@PDBIFEP@?$GAdynamic?5atexit?5destructor?5for?5?8@ 100681e0     libvcruntime:undname.obj
 0002:00005208       ??_C@_0CD@CGAJBKEJ@?$GAvector?5copy?5constructor?5iterato@ 10068208     libvcruntime:undname.obj
 0002:00005234       ??_C@_0CJ@GJELGAMM@?$GAvector?5vbase?5copy?5constructor?5i@ 10068234     libvcruntime:undname.obj
 0002:00005268       ??_C@_0CL@FGIJHLCE@?$GAmanaged?5vector?5copy?5constructor@ 10068268     libvcruntime:undname.obj
 0002:0000529c       ??_C@_0BM@PMGGMLDN@?$GAlocal?5static?5thread?5guard?8?$AA@ 1006829c     libvcruntime:undname.obj
 0002:000052c0       ??_C@_0N@BDNMDMOL@operator?5?$CC?$CC?5?$AA@ 100682c0     libvcruntime:undname.obj
 0002:000052d0       ??_C@_0BC@DAFEJGAK@?5Type?5Descriptor?8?$AA@ 100682d0     libvcruntime:undname.obj
 0002:000052e8       ??_C@_0BM@LDKODKLH@?5Base?5Class?5Descriptor?5at?5?$CI?$AA@ 100682e8     libvcruntime:undname.obj
 0002:0000530c       ??_C@_0BD@LGICGFMM@?5Base?5Class?5Array?8?$AA@ 1006830c     libvcruntime:undname.obj
 0002:00005324       ??_C@_0BN@MECKDCOJ@?5Class?5Hierarchy?5Descriptor?8?$AA@ 10068324     libvcruntime:undname.obj
 0002:00005348       ??_C@_0BK@CFCOFLF@?5Complete?5Object?5Locator?8?$AA@ 10068348     libvcruntime:undname.obj
 0002:00005368       ??_C@_04HEJADOOB@CV?3?5?$AA@ 10068368     libvcruntime:undname.obj
 0002:00005370       ??_C@_02MOLJINC@?3?3?$AA@  10068370     libvcruntime:undname.obj
 0002:00005374       ??_C@_0BE@JAEOCHPE@template?9parameter?9?$AA@ 10068374     libvcruntime:undname.obj
 0002:0000538c       ??_C@_0O@KHGCOMHP@generic?9type?9?$AA@ 1006838c     libvcruntime:undname.obj
 0002:0000539c       ??_C@_01NLNLIGKH@?$GA?$AA@ 1006839c     libvcruntime:undname.obj
 0002:000053a0       ??_C@_01GEODFPGF@?8?$AA@   100683a0     libvcruntime:undname.obj
 0002:000053a4       ??_C@_0BG@JNJLAMPM@?$GAanonymous?5namespace?8?$AA@ 100683a4     libvcruntime:undname.obj
 0002:000053c0       ??_C@_02OHHJMEON@?8?8?$AA@ 100683c0     libvcruntime:undname.obj
 0002:000053c4       ??_C@_0BN@IBLMMFAP@?$GAnon?9type?9template?9parameter?$AA@ 100683c4     libvcruntime:undname.obj
 0002:000053e8       ??_C@_04GKJNKENE@void?$AA@ 100683e8     libvcruntime:undname.obj
 0002:000053f0       ??_C@_0BE@EODMJLIF@?$GAtemplate?9parameter?$AA@ 100683f0     libvcruntime:undname.obj
 0002:00005408       ??_C@_03KHICJKCI@?4?4?4?$AA@ 10068408     libvcruntime:undname.obj
 0002:0000540c       ??_C@_04HIBGFPH@NULL?$AA@  1006840c     libvcruntime:undname.obj
 0002:00005414       ??_C@_02DPKJAMEF@?$CFd?$AA@ 10068414     libvcruntime:undname.obj
 0002:00005418       ??_C@_0BK@IHCCFNEL@?$GAtemplate?9type?9parameter?9?$AA@ 10068418     libvcruntime:undname.obj
 0002:00005438       ??_C@_0BK@OFCNNNKO@?$GAgeneric?9class?9parameter?9?$AA@ 10068438     libvcruntime:undname.obj
 0002:00005458       ??_C@_0BL@NGJBLFIL@?$GAgeneric?9method?9parameter?9?$AA@ 10068458     libvcruntime:undname.obj
 0002:00005478       ??_C@_03OPGICMGF@?$HN?8?5?$AA@ 10068478     libvcruntime:undname.obj
 0002:0000547c       ??_C@_02IGFCGPIL@?$HN?8?$AA@ 1006847c     libvcruntime:undname.obj
 0002:00005480       ??_C@_01CLKCMJKC@?5?$AA@   10068480     libvcruntime:undname.obj
 0002:00005484       ??_C@_0N@CBHHHENL@?$GAvtordispex?$HL?$AA@ 10068484     libvcruntime:undname.obj
 0002:00005494       ??_C@_0L@GHPFDFH@?$GAvtordisp?$HL?$AA@ 10068494     libvcruntime:undname.obj
 0002:000054a4       ??_C@_0L@HNGCOGAE@?$GAadjustor?$HL?$AA@ 100684a4     libvcruntime:undname.obj
 0002:000054b4       ??_C@_0CB@KJDOOODE@?$GAlocal?5static?5destructor?5helper?8@ 100684b4     libvcruntime:undname.obj
 0002:000054dc       ??_C@_0DB@ILEFOCIJ@?$GAtemplate?5static?5data?5member?5con@ 100684dc     libvcruntime:undname.obj
 0002:00005518       ??_C@_0DA@HGFJFBBE@?$GAtemplate?5static?5data?5member?5des@ 10068518     libvcruntime:undname.obj
 0002:00005554       ??_C@_07PGOEDBHP@static?5?$AA@ 10068554     libvcruntime:undname.obj
 0002:00005560       ??_C@_08NIEOINHE@virtual?5?$AA@ 10068560     libvcruntime:undname.obj
 0002:0000556c       ??_C@_09LAPHOOG@private?3?5?$AA@ 1006856c     libvcruntime:undname.obj
 0002:00005578       ??_C@_0M@GAIFPFIP@protected?3?5?$AA@ 10068578     libvcruntime:undname.obj
 0002:00005588       ??_C@_08GPDDCMKI@public?3?5?$AA@ 10068588     libvcruntime:undname.obj
 0002:00005594       ??_C@_08KJLFOPNE@?$FLthunk?$FN?3?$AA@ 10068594     libvcruntime:undname.obj
 0002:000055a0       ??_C@_0M@DHNBOJMP@extern?5?$CCC?$CC?5?$AA@ 100685a0     libvcruntime:undname.obj
 0002:000055b0       ??_C@_02KCKGHPCA@?$CJ?5?$AA@ 100685b0     libvcruntime:undname.obj
 0002:000055b4       ??_C@_05CIHEBHNO@char?5?$AA@ 100685b4     libvcruntime:undname.obj
 0002:000055bc       ??_C@_06EHJMALKF@short?5?$AA@ 100685bc     libvcruntime:undname.obj
 0002:000055c4       ??_C@_04LAHKHJMA@int?5?$AA@ 100685c4     libvcruntime:undname.obj
 0002:000055cc       ??_C@_05CJIMAING@long?5?$AA@ 100685cc     libvcruntime:undname.obj
 0002:000055d4       ??_C@_09EBBEKKIH@unsigned?5?$AA@ 100685d4     libvcruntime:undname.obj
 0002:000055e0       ??_C@_05BEFAKPML@void?5?$AA@ 100685e0     libvcruntime:undname.obj
 0002:000055e8       ??_C@_08PABEKFH@volatile?$AA@ 100685e8     libvcruntime:undname.obj
 0002:000055f4       ??_C@_0BA@LKIJLKPP@std?3?3nullptr_t?5?$AA@ 100685f4     libvcruntime:undname.obj
 0002:00005608       ??_C@_0P@GCOCNKDM@std?3?3nullptr_t?$AA@ 10068608     libvcruntime:undname.obj
 0002:0000561c       ??_C@_0L@EGPHHEKN@?$DMellipsis?$DO?$AA@ 1006861c     libvcruntime:undname.obj
 0002:0000562c       ??_C@_04EENFHACM@?0?4?4?4?$AA@ 1006862c     libvcruntime:undname.obj
 0002:00005634       ??_C@_0M@ELJOJFFH@?0?$DMellipsis?$DO?$AA@ 10068634     libvcruntime:undname.obj
 0002:00005644       ??_C@_07HDJPLPEK@?5throw?$CI?$AA@ 10068644     libvcruntime:undname.obj
 0002:00005650       ??_C@_03PBJBJNON@cpu?$AA@  10068650     libvcruntime:undname.obj
 0002:00005654       ??_C@_03DCBBJBAA@amp?$AA@  10068654     libvcruntime:undname.obj
 0002:00005658       ??_C@_02KEGNLNML@?0?5?$AA@ 10068658     libvcruntime:undname.obj
 0002:0000565c       ??_C@_04ENMBGAPA@char?$AA@ 1006865c     libvcruntime:undname.obj
 0002:00005664       ??_C@_05BFKKPKCG@short?$AA@ 10068664     libvcruntime:undname.obj
 0002:0000566c       ??_C@_03JBIPMCLC@int?$AA@  1006866c     libvcruntime:undname.obj
 0002:00005670       ??_C@_04GOKPGOLB@long?$AA@ 10068670     libvcruntime:undname.obj
 0002:00005678       ??_C@_04DDKJGDCM@bool?$AA@ 10068678     libvcruntime:undname.obj
 0002:00005680       ??_C@_06EBGKOKIG@__int8?$AA@ 10068680     libvcruntime:undname.obj
 0002:00005688       ??_C@_07ICFHOGAF@__int16?$AA@ 10068688     libvcruntime:undname.obj
 0002:00005694       ??_C@_07OFLPPHGP@__int32?$AA@ 10068694     libvcruntime:undname.obj
 0002:000056a0       ??_C@_07LFCOJCAC@__int64?$AA@ 100686a0     libvcruntime:undname.obj
 0002:000056ac       ??_C@_08GAHOLHEO@__int128?$AA@ 100686ac     libvcruntime:undname.obj
 0002:000056b8       ??_C@_09EEKGDCPH@?$DMunknown?$DO?$AA@ 100686b8     libvcruntime:undname.obj
 0002:000056c4       ??_C@_08HBIPOFJB@char16_t?$AA@ 100686c4     libvcruntime:undname.obj
 0002:000056d0       ??_C@_08IECNCBKG@char32_t?$AA@ 100686d0     libvcruntime:undname.obj
 0002:000056dc       ??_C@_07CLGGIAMF@wchar_t?$AA@ 100686dc     libvcruntime:undname.obj
 0002:000056e8       ??_C@_06GCICPBLB@__w64?5?$AA@ 100686e8     libvcruntime:undname.obj
 0002:000056f0       ??_C@_07NFANNNEC@UNKNOWN?$AA@ 100686f0     libvcruntime:undname.obj
 0002:000056fc       ??_C@_07EDHNAJHC@signed?5?$AA@ 100686fc     libvcruntime:undname.obj
 0002:00005708       ??_C@_05BNCCCJPP@const?$AA@ 10068708     libvcruntime:undname.obj
 0002:00005710       ??_C@_09EFNPDFFP@?5volatile?$AA@ 10068710     libvcruntime:undname.obj
 0002:0000571c       ??_C@_0P@GCIFDJCJ@?$GAunknown?5ecsu?8?$AA@ 1006871c     libvcruntime:undname.obj
 0002:00005730       ??_C@_06MOJHIBMG@union?5?$AA@ 10068730     libvcruntime:undname.obj
 0002:00005738       ??_C@_07DIBCDNGL@struct?5?$AA@ 10068738     libvcruntime:undname.obj
 0002:00005744       ??_C@_06LJBABKPM@class?5?$AA@ 10068744     libvcruntime:undname.obj
 0002:0000574c       ??_C@_08KOFANOFK@coclass?5?$AA@ 1006874c     libvcruntime:undname.obj
 0002:00005758       ??_C@_0N@DLIEFKNA@cointerface?5?$AA@ 10068758     libvcruntime:undname.obj
 0002:00005768       ??_C@_05LJGMCFOG@enum?5?$AA@ 10068768     libvcruntime:undname.obj
 0002:00005770       ??_C@_09GAIEOBLP@volatile?5?$AA@ 10068770     libvcruntime:undname.obj
 0002:0000577c       ??_C@_06LIJLOJAG@const?5?$AA@ 1006877c     libvcruntime:undname.obj
 0002:00005784       ??_C@_02KJPKDIBN@?$CG?5?$AA@ 10068784     libvcruntime:undname.obj
 0002:00005788       ??_C@_03PCKGMOPB@?$CG?$CG?5?$AA@ 10068788     libvcruntime:undname.obj
 0002:0000578c       ??_C@_0M@EALIELKG@cli?3?3array?$DM?$AA@ 1006878c     libvcruntime:undname.obj
 0002:0000579c       ??_C@_0O@GKABPPIF@cli?3?3pin_ptr?$DM?$AA@ 1006879c     libvcruntime:undname.obj
 0002:000057ac       ??_C@_02GOGNNPBN@?$CJ?$FL?$AA@ 100687ac     libvcruntime:undname.obj
 0002:000057b0       ??_C@_06EEGAIFAK@?$HLflat?$HN?$AA@ 100687b0     libvcruntime:undname.obj
 0002:000057b8       ??_C@_05JIBOFOHK@?$HLfor?5?$AA@ 100687b8     libvcruntime:undname.obj
 0002:000057c0       ??_C@_02MDINNEEG@s?5?$AA@  100687c0     libvcruntime:undname.obj
 0002:000057c8       ??_7DNameNode@@6B@         100687c8     libvcruntime:undname.obj
 0002:000057dc       ??_7charNode@@6B@          100687dc     libvcruntime:undname.obj
 0002:000057f0       ??_7pcharNode@@6B@         100687f0     libvcruntime:undname.obj
 0002:00005804       ??_7pDNameNode@@6B@        10068804     libvcruntime:undname.obj
 0002:00005818       ??_7DNameStatusNode@@6B@   10068818     libvcruntime:undname.obj
 0002:0000582c       ??_7pairNode@@6B@          1006882c     libvcruntime:undname.obj
 0002:0000583c       ??_C@_04OKOHEJBO@?5?$DP?$DP?5?$AA@ 1006883c     libvcruntime:undname.obj
 0002:00005848       _standard_lookup_table     10068848     libucrt:output.obj
 0002:000058b8       _format_validation_lookup_table 100688b8     libucrt:output.obj
 0002:00005928       ??_C@_06OJHGLDPL@?$CInull?$CJ?$AA@ 10068928     libucrt:output.obj
 0002:00005930       ??_C@_1O@CEDCILHN@?$AA?$CI?$AAn?$AAu?$AAl?$AAl?$AA?$CJ?$AA?$AA@ 10068930     libucrt:output.obj
 0002:00005940       _RtlNtPathSeperatorString  10068940     libucrt:exit.obj
 0002:0000594c       ??_C@_13FPGAJAPJ@?$AA?2?$AA?$AA@ 1006894c     libucrt:exit.obj
 0002:00005950       _RtlDosPathSeperatorsString 10068950     libucrt:exit.obj
 0002:0000595c       ??_C@_15MNCACJLI@?$AA?2?$AA?1?$AA?$AA@ 1006895c     libucrt:exit.obj
 0002:00005964       _RtlAlternateDosPathSeperatorString 10068964     libucrt:exit.obj
 0002:00005970       ??_C@_13CGOKJPIL@?$AA?1?$AA?$AA@ 10068970     libucrt:exit.obj
 0002:00005974       ??_C@_1BI@BGOHAHKC@?$AAm?$AAs?$AAc?$AAo?$AAr?$AAe?$AAe?$AA?4?$AAd?$AAl?$AAl?$AA?$AA@ 10068974     libucrt:exit.obj
 0002:00005990       ??_C@_0P@MIGLKIOC@CorExitProcess?$AA@ 10068990     libucrt:exit.obj
 0002:000059a4       ??_C@_0CF@GOGNBNAK@Microsoft?5Visual?5C?$CL?$CL?5Runtime?5Lib@ 100689a4     libucrt:assert.obj
 0002:000059d0       ??_C@_1EK@MBDPDCGA@?$AAM?$AAi?$AAc?$AAr?$AAo?$AAs?$AAo?$AAf?$AAt?$AA?5?$AAV?$AAi?$AAs?$AAu?$AAa?$AAl?$AA?5?$AAC?$AA?$CL?$AA?$CL?$AA?5?$AAR?$AAu?$AAn?$AAt?$AAi?$AAm?$AAe?$AA?5?$AAL?$AAi?$AAb@ 100689d0     libucrt:assert.obj
 0002:00005a28       ??_C@_0CK@CFPGFGGO@Assertion?5failed?3?5?$CFTs?0?5file?5?$CFTs?0@ 10068a28     libucrt:assert.obj
 0002:00005a60       ??_C@_1FE@LHBLIKM@?$AAA?$AAs?$AAs?$AAe?$AAr?$AAt?$AAi?$AAo?$AAn?$AA?5?$AAf?$AAa?$AAi?$AAl?$AAe?$AAd?$AA?3?$AA?5?$AA?$CF?$AAT?$AAs?$AA?0?$AA?5?$AAf?$AAi?$AAl?$AAe?$AA?5?$AA?$CF?$AAT?$AAs?$AA?0@ 10068a60     libucrt:assert.obj
 0002:00005ac4       ??_C@_0BC@LAIDCHCH@Assertion?5failed?$CB?$AA@ 10068ac4     libucrt:assert.obj
 0002:00005adc       ??_C@_1CE@OJBNHDMO@?$AAA?$AAs?$AAs?$AAe?$AAr?$AAt?$AAi?$AAo?$AAn?$AA?5?$AAf?$AAa?$AAi?$AAl?$AAe?$AAd?$AA?$CB?$AA?$AA@ 10068adc     libucrt:assert.obj
 0002:00005b08       ??_C@_09KLGCKDOD@Program?3?5?$AA@ 10068b08     libucrt:assert.obj
 0002:00005b14       ??_C@_1BE@PHKBBGE@?$AAP?$AAr?$AAo?$AAg?$AAr?$AAa?$AAm?$AA?3?$AA?5?$AA?$AA@ 10068b14     libucrt:assert.obj
 0002:00005b2c       ??_C@_06IGPBOHMJ@File?3?5?$AA@ 10068b2c     libucrt:assert.obj
 0002:00005b34       ??_C@_1O@HEMHKNDC@?$AAF?$AAi?$AAl?$AAe?$AA?3?$AA?5?$AA?$AA@ 10068b34     libucrt:assert.obj
 0002:00005b44       ??_C@_06FIEBOLOH@Line?3?5?$AA@ 10068b44     libucrt:assert.obj
 0002:00005b4c       ??_C@_1O@KCAFKHJE@?$AAL?$AAi?$AAn?$AAe?$AA?3?$AA?5?$AA?$AA@ 10068b4c     libucrt:assert.obj
 0002:00005b5c       ??_C@_0N@MEECIJGN@Expression?3?5?$AA@ 10068b5c     libucrt:assert.obj
 0002:00005b6c       ??_C@_1BK@PEDCIPMA@?$AAE?$AAx?$AAp?$AAr?$AAe?$AAs?$AAs?$AAi?$AAo?$AAn?$AA?3?$AA?5?$AA?$AA@ 10068b6c     libucrt:assert.obj
 0002:00005b90       ??_C@_0HA@OJHAGA@For?5information?5on?5how?5your?5prog@ 10068b90     libucrt:assert.obj
 0002:00005c18       ??_C@_1OA@EGMLFBHJ@?$AAF?$AAo?$AAr?$AA?5?$AAi?$AAn?$AAf?$AAo?$AAr?$AAm?$AAa?$AAt?$AAi?$AAo?$AAn?$AA?5?$AAo?$AAn?$AA?5?$AAh?$AAo?$AAw?$AA?5?$AAy?$AAo?$AAu?$AAr?$AA?5?$AAp?$AAr?$AAo?$AAg@ 10068c18     libucrt:assert.obj
 0002:00005d24       ??_C@_0DN@EBBNMLME@?$CIPress?5Retry?5to?5debug?5the?5applic@ 10068d24     libucrt:assert.obj
 0002:00005d70       ??_C@_1HK@POCJMFGK@?$AA?$CI?$AAP?$AAr?$AAe?$AAs?$AAs?$AA?5?$AAR?$AAe?$AAt?$AAr?$AAy?$AA?5?$AAt?$AAo?$AA?5?$AAd?$AAe?$AAb?$AAu?$AAg?$AA?5?$AAt?$AAh?$AAe?$AA?5?$AAa?$AAp?$AAp?$AAl?$AAi?$AAc@ 10068d70     libucrt:assert.obj
 0002:00005e04       ??_C@_17LGKOMLJ@?$AA?4?$AA?4?$AA?4?$AA?$AA@ 10068e04     libucrt:assert.obj
 0002:00005e10       ??_C@_01EEMJAFIK@?6?$AA@   10068e10     libucrt:assert.obj
 0002:00005e14       ??_C@_13LBAGMAIH@?$AA?6?$AA?$AA@ 10068e14     libucrt:assert.obj
 0002:00005e18       ??_C@_02PHMGELLB@?6?6?$AA@ 10068e18     libucrt:assert.obj
 0002:00005e1c       ??_C@_15IABLJNFO@?$AA?6?$AA?6?$AA?$AA@ 10068e1c     libucrt:assert.obj
 0002:00005e24       ??_C@_0BH@DNAGHKFM@?$DMprogram?5name?5unknown?$DO?$AA@ 10068e24     libucrt:assert.obj
 0002:00005e40       ??_C@_1CO@EAEJAADC@?$AA?$DM?$AAp?$AAr?$AAo?$AAg?$AAr?$AAa?$AAm?$AA?5?$AAn?$AAa?$AAm?$AAe?$AA?5?$AAu?$AAn?$AAk?$AAn?$AAo?$AAw?$AAn?$AA?$DO?$AA?$AA@ 10068e40     libucrt:assert.obj
 0002:00005e78       ??_C@_04FJHINJAO@tanh?$AA@ 10068e78     libucrt:fpexcept.obj
 0002:00005e80       ??_C@_04FIHNOPOL@asin?$AA@ 10068e80     libucrt:fpexcept.obj
 0002:00005e88       ??_C@_04PDIFKINK@acos?$AA@ 10068e88     libucrt:fpexcept.obj
 0002:00005e90       ??_C@_04MLLJIGOK@atan?$AA@ 10068e90     libucrt:fpexcept.obj
 0002:00005e98       ??_C@_05KNGEOGJB@atan2?$AA@ 10068e98     libucrt:fpexcept.obj
 0002:00005ea0       ??_C@_04EIAKFFMI@sqrt?$AA@ 10068ea0     libucrt:fpexcept.obj
 0002:00005ea8       ??_C@_03BLEJJJBH@sin?$AA@  10068ea8     libucrt:fpexcept.obj
 0002:00005eac       ??_C@_03LALBNOCG@cos?$AA@  10068eac     libucrt:fpexcept.obj
 0002:00005eb0       ??_C@_03IIINPABG@tan?$AA@  10068eb0     libucrt:fpexcept.obj
 0002:00005eb4       ??_C@_04GFPJNGEK@ceil?$AA@ 10068eb4     libucrt:fpexcept.obj
 0002:00005ebc       ??_C@_05PBJFFIGL@floor?$AA@ 10068ebc     libucrt:fpexcept.obj
 0002:00005ec4       ??_C@_04ODHECPBC@fabs?$AA@ 10068ec4     libucrt:fpexcept.obj
 0002:00005ecc       ??_C@_04EHEDPDJG@modf?$AA@ 10068ecc     libucrt:fpexcept.obj
 0002:00005ed4       ??_C@_05CEJMAHNP@ldexp?$AA@ 10068ed4     libucrt:fpexcept.obj
 0002:00005edc       ??_C@_05KBKMEMPO@_cabs?$AA@ 10068edc     libucrt:fpexcept.obj
 0002:00005ee4       ??_C@_06MEIMCGCF@_hypot?$AA@ 10068ee4     libucrt:fpexcept.obj
 0002:00005eec       ??_C@_04KEPJIHGP@fmod?$AA@ 10068eec     libucrt:fpexcept.obj
 0002:00005ef4       ??_C@_05GKKHEGJL@frexp?$AA@ 10068ef4     libucrt:fpexcept.obj
 0002:00005efc       ??_C@_03MJLDFKDL@_y0?$AA@  10068efc     libucrt:fpexcept.obj
 0002:00005f00       ??_C@_03NAKIGLHK@_y1?$AA@  10068f00     libucrt:fpexcept.obj
 0002:00005f04       ??_C@_03ONILCKOB@_yn?$AA@  10068f04     libucrt:fpexcept.obj
 0002:00005f08       ??_C@_05JGDBENOH@_logb?$AA@ 10068f08     libucrt:fpexcept.obj
 0002:00005f10       ??_C@_0L@KDOEJCKC@_nextafter?$AA@ 10068f10     libucrt:fpexcept.obj
 0002:00006038       ??_C@_03KHJOGHMM@exp?$AA@  10069038     libucrt:fpexcept.obj
 0002:0000603c       ??_C@_03JGHBODFD@pow?$AA@  1006903c     libucrt:fpexcept.obj
 0002:00006040       ??_C@_03MGHMBJCF@log?$AA@  10069040     libucrt:fpexcept.obj
 0002:00006044       ??_C@_05HGHHAHAP@log10?$AA@ 10069044     libucrt:fpexcept.obj
 0002:0000604c       ??_C@_04COOMCNPB@sinh?$AA@ 1006904c     libucrt:fpexcept.obj
 0002:00006054       ??_C@_04HPJJNFIM@cosh?$AA@ 10069054     libucrt:fpexcept.obj
 0002:00006060       ___acrt_exception_action_table 10069060     libucrt:exception_filter.obj
 0002:0000610c       ___acrt_signal_action_table_count 1006910c     libucrt:exception_filter.obj
 0002:00006110       ___acrt_signal_action_table_size 10069110     libucrt:exception_filter.obj
 0002:00006114       ___acrt_signal_action_first_fpe_index 10069114     libucrt:exception_filter.obj
 0002:00006118       ___acrt_signal_action_fpe_count 10069118     libucrt:exception_filter.obj
 0002:000061b0       ??_C@_1BG@HHIFPOEK@?$AAm?$AAs?$AAv?$AAc?$AAr?$AAt?$AA?4?$AAd?$AAl?$AAl?$AA?$AA@ 100691b0     libucrt:free_base.obj
 0002:000061cc       __Fenv0                    100691cc     libucrt:atox.obj
 0002:000063e8       ??_C@_1EG@CNNIPFIM@?$AAa?$AAp?$AAi?$AA?9?$AAm?$AAs?$AA?9?$AAw?$AAi?$AAn?$AA?9?$AAa?$AAp?$AAp?$AAm?$AAo?$AAd?$AAe?$AAl?$AA?9?$AAr?$AAu?$AAn?$AAt?$AAi?$AAm?$AAe?$AA?9?$AAl?$AA1?$AA?9?$AA1@ 100693e8     libucrt:winapi_thunks.obj
 0002:00006440       ??_C@_1EA@JGEFHKEI@?$AAa?$AAp?$AAi?$AA?9?$AAm?$AAs?$AA?9?$AAw?$AAi?$AAn?$AA?9?$AAc?$AAo?$AAr?$AAe?$AA?9?$AAd?$AAa?$AAt?$AAe?$AAt?$AAi?$AAm?$AAe?$AA?9?$AAl?$AA1?$AA?9?$AA1?$AA?9?$AA1?$AA?$AA@ 10069440     libucrt:winapi_thunks.obj
 0002:0000648c       ??_C@_1DI@GCIAAENM@?$AAa?$AAp?$AAi?$AA?9?$AAm?$AAs?$AA?9?$AAw?$AAi?$AAn?$AA?9?$AAc?$AAo?$AAr?$AAe?$AA?9?$AAf?$AAi?$AAl?$AAe?$AA?9?$AAl?$AA2?$AA?9?$AA1?$AA?9?$AA1?$AA?$AA@ 1006948c     libucrt:winapi_thunks.obj
 0002:000064d0       ??_C@_1EI@MPIAOHOC@?$AAa?$AAp?$AAi?$AA?9?$AAm?$AAs?$AA?9?$AAw?$AAi?$AAn?$AA?9?$AAc?$AAo?$AAr?$AAe?$AA?9?$AAl?$AAo?$AAc?$AAa?$AAl?$AAi?$AAz?$AAa?$AAt?$AAi?$AAo?$AAn?$AA?9?$AAl?$AA1?$AA?9@ 100694d0     libucrt:winapi_thunks.obj
 0002:00006528       ??_C@_1FK@FPHCKFIE@?$AAa?$AAp?$AAi?$AA?9?$AAm?$AAs?$AA?9?$AAw?$AAi?$AAn?$AA?9?$AAc?$AAo?$AAr?$AAe?$AA?9?$AAl?$AAo?$AAc?$AAa?$AAl?$AAi?$AAz?$AAa?$AAt?$AAi?$AAo?$AAn?$AA?9?$AAo?$AAb?$AAs@ 10069528     libucrt:winapi_thunks.obj
 0002:00006598       ??_C@_1EM@DILCGIIO@?$AAa?$AAp?$AAi?$AA?9?$AAm?$AAs?$AA?9?$AAw?$AAi?$AAn?$AA?9?$AAc?$AAo?$AAr?$AAe?$AA?9?$AAp?$AAr?$AAo?$AAc?$AAe?$AAs?$AAs?$AAt?$AAh?$AAr?$AAe?$AAa?$AAd?$AAs?$AA?9?$AAl@ 10069598     libucrt:winapi_thunks.obj
 0002:000065f4       ??_C@_1DM@LNCGDDPN@?$AAa?$AAp?$AAi?$AA?9?$AAm?$AAs?$AA?9?$AAw?$AAi?$AAn?$AA?9?$AAc?$AAo?$AAr?$AAe?$AA?9?$AAs?$AAt?$AAr?$AAi?$AAn?$AAg?$AA?9?$AAl?$AA1?$AA?9?$AA1?$AA?9?$AA0?$AA?$AA@ 100695f4     libucrt:winapi_thunks.obj
 0002:0000663c       ??_C@_1DO@FPAPJEMD@?$AAa?$AAp?$AAi?$AA?9?$AAm?$AAs?$AA?9?$AAw?$AAi?$AAn?$AA?9?$AAc?$AAo?$AAr?$AAe?$AA?9?$AAs?$AAy?$AAs?$AAi?$AAn?$AAf?$AAo?$AA?9?$AAl?$AA1?$AA?9?$AA2?$AA?9?$AA1?$AA?$AA@ 1006963c     libucrt:winapi_thunks.obj
 0002:00006688       ??_C@_1DK@NDHNAHIO@?$AAa?$AAp?$AAi?$AA?9?$AAm?$AAs?$AA?9?$AAw?$AAi?$AAn?$AA?9?$AAc?$AAo?$AAr?$AAe?$AA?9?$AAw?$AAi?$AAn?$AAr?$AAt?$AA?9?$AAl?$AA1?$AA?9?$AA1?$AA?9?$AA0?$AA?$AA@ 10069688     libucrt:winapi_thunks.obj
 0002:000066d0       ??_C@_1DM@KGHDGBCM@?$AAa?$AAp?$AAi?$AA?9?$AAm?$AAs?$AA?9?$AAw?$AAi?$AAn?$AA?9?$AAc?$AAo?$AAr?$AAe?$AA?9?$AAx?$AAs?$AAt?$AAa?$AAt?$AAe?$AA?9?$AAl?$AA2?$AA?9?$AA1?$AA?9?$AA0?$AA?$AA@ 100696d0     libucrt:winapi_thunks.obj
 0002:00006718       ??_C@_1EO@IJIOEFOH@?$AAa?$AAp?$AAi?$AA?9?$AAm?$AAs?$AA?9?$AAw?$AAi?$AAn?$AA?9?$AAr?$AAt?$AAc?$AAo?$AAr?$AAe?$AA?9?$AAn?$AAt?$AAu?$AAs?$AAe?$AAr?$AA?9?$AAw?$AAi?$AAn?$AAd?$AAo?$AAw?$AA?9@ 10069718     libucrt:winapi_thunks.obj
 0002:00006778       ??_C@_1FG@HHGEKANL@?$AAa?$AAp?$AAi?$AA?9?$AAm?$AAs?$AA?9?$AAw?$AAi?$AAn?$AA?9?$AAs?$AAe?$AAc?$AAu?$AAr?$AAi?$AAt?$AAy?$AA?9?$AAs?$AAy?$AAs?$AAt?$AAe?$AAm?$AAf?$AAu?$AAn?$AAc?$AAt?$AAi@ 10069778     libucrt:winapi_thunks.obj
 0002:000067e0       ??_C@_1FG@NCKKOLKO@?$AAe?$AAx?$AAt?$AA?9?$AAm?$AAs?$AA?9?$AAw?$AAi?$AAn?$AA?9?$AAk?$AAe?$AAr?$AAn?$AAe?$AAl?$AA3?$AA2?$AA?9?$AAp?$AAa?$AAc?$AAk?$AAa?$AAg?$AAe?$AA?9?$AAc?$AAu?$AAr?$AAr@ 100697e0     libucrt:winapi_thunks.obj
 0002:00006848       ??_C@_1EG@DBIOJECG@?$AAe?$AAx?$AAt?$AA?9?$AAm?$AAs?$AA?9?$AAw?$AAi?$AAn?$AA?9?$AAn?$AAt?$AAu?$AAs?$AAe?$AAr?$AA?9?$AAd?$AAi?$AAa?$AAl?$AAo?$AAg?$AAb?$AAo?$AAx?$AA?9?$AAl?$AA1?$AA?9?$AA1@ 10069848     libucrt:winapi_thunks.obj
 0002:000068a0       ??_C@_1EO@FIHMJCLF@?$AAe?$AAx?$AAt?$AA?9?$AAm?$AAs?$AA?9?$AAw?$AAi?$AAn?$AA?9?$AAn?$AAt?$AAu?$AAs?$AAe?$AAr?$AA?9?$AAw?$AAi?$AAn?$AAd?$AAo?$AAw?$AAs?$AAt?$AAa?$AAt?$AAi?$AAo?$AAn?$AA?9@ 100698a0     libucrt:winapi_thunks.obj
 0002:00006900       ??_C@_1O@BCCLBEOE@?$AAu?$AAs?$AAe?$AAr?$AA3?$AA2?$AA?$AA@ 10069900     libucrt:winapi_thunks.obj
 0002:00006914       ??_C@_0BA@FHFNEAED@AreFileApisANSI?$AA@ 10069914     libucrt:winapi_thunks.obj
 0002:00006934       ??_C@_0BA@IHGNDAEB@CompareStringEx?$AA@ 10069934     libucrt:winapi_thunks.obj
 0002:00006954       ??_C@_0BE@LJANKFHF@EnumSystemLocalesEx?$AA@ 10069954     libucrt:winapi_thunks.obj
 0002:000069a8       ??_C@_0BA@HNOPNCHB@GetActiveWindow?$AA@ 100699a8     libucrt:winapi_thunks.obj
 0002:000069c8       ??_C@_0BE@JOGNEJCI@GetCurrentPackageId?$AA@ 100699c8     libucrt:winapi_thunks.obj
 0002:000069ec       ??_C@_0BA@EPCJIIPD@GetDateFormatEx?$AA@ 100699ec     libucrt:winapi_thunks.obj
 0002:00006a0c       ??_C@_0BJ@DIBIJBHA@GetEnabledXStateFeatures?$AA@ 10069a0c     libucrt:winapi_thunks.obj
 0002:00006a38       ??_C@_0BN@NEEHBBPO@GetFileInformationByHandleEx?$AA@ 10069a38     libucrt:winapi_thunks.obj
 0002:00006a68       ??_C@_0BD@HHGDFDBJ@GetLastActivePopup?$AA@ 10069a68     libucrt:winapi_thunks.obj
 0002:00006a8c       ??_C@_0BA@ONOKGCMP@GetLocaleInfoEx?$AA@ 10069a8c     libucrt:winapi_thunks.obj
 0002:00006aac       ??_C@_0BI@DFKBFLJE@GetProcessWindowStation?$AA@ 10069aac     libucrt:winapi_thunks.obj
 0002:00006acc       ??_C@_0BP@FPNJPEJC@GetSystemTimePreciseAsFileTime?$AA@ 10069acc     libucrt:winapi_thunks.obj
 0002:00006b00       ??_C@_0BA@CIJJKCJJ@GetTimeFormatEx?$AA@ 10069b00     libucrt:winapi_thunks.obj
 0002:00006b20       ??_C@_0BJ@PBCCBIPI@GetUserDefaultLocaleName?$AA@ 10069b20     libucrt:winapi_thunks.obj
 0002:00006b4c       ??_C@_0BK@DEKFELLI@GetUserObjectInformationW?$AA@ 10069b4c     libucrt:winapi_thunks.obj
 0002:00006b78       ??_C@_0BG@IKLDMBLM@GetXStateFeaturesMask?$AA@ 10069b78     libucrt:winapi_thunks.obj
 0002:00006bac       ??_C@_0BC@CELBKLLA@IsValidLocaleName?$AA@ 10069bac     libucrt:winapi_thunks.obj
 0002:00006bd0       ??_C@_0O@KKBNKAPF@LCMapStringEx?$AA@ 10069bd0     libucrt:winapi_thunks.obj
 0002:00006bec       ??_C@_0BB@CDHDDLLP@LCIDToLocaleName?$AA@ 10069bec     libucrt:winapi_thunks.obj
 0002:00006c0c       ??_C@_0BB@HBDEELFH@LocaleNameToLCID?$AA@ 10069c0c     libucrt:winapi_thunks.obj
 0002:00006c2c       ??_C@_0BE@KINNKFDA@LocateXStateFeature?$AA@ 10069c2c     libucrt:winapi_thunks.obj
 0002:00006c50       ??_C@_0M@CHKKJDAI@MessageBoxA?$AA@ 10069c50     libucrt:winapi_thunks.obj
 0002:00006c6c       ??_C@_0M@DLDCCGNP@MessageBoxW?$AA@ 10069c6c     libucrt:winapi_thunks.obj
 0002:00006c80       ??_C@_0N@PPOMPGGK@RoInitialize?$AA@ 10069c80     libucrt:winapi_thunks.obj
 0002:00006c94       ??_C@_0P@LLFHBIJD@RoUninitialize?$AA@ 10069c94     libucrt:winapi_thunks.obj
 0002:00006cb4       ??_C@_0BI@BKLFFAPO@SetThreadStackGuarantee?$AA@ 10069cb4     libucrt:winapi_thunks.obj
 0002:00006cdc       ??_C@_0BC@JEAENNKH@SystemFunction036?$AA@ 10069cdc     libucrt:winapi_thunks.obj
 0002:00006cf4       ??_C@_03OEIAHPBN@INF?$AA@  10069cf4     libucrt:cvt.obj
 0002:00006cf8       ??_C@_03OJHLLCGB@inf?$AA@  10069cf8     libucrt:cvt.obj
 0002:00006cfc       ??_C@_03LKNCIKJB@NAN?$AA@  10069cfc     libucrt:cvt.obj
 0002:00006d00       ??_C@_03LHCJEHON@nan?$AA@  10069d00     libucrt:cvt.obj
 0002:00006d04       ??_C@_09OFJJIMPC@NAN?$CISNAN?$CJ?$AA@ 10069d04     libucrt:cvt.obj
 0002:00006d10       ??_C@_09IPFBKMDL@nan?$CIsnan?$CJ?$AA@ 10069d10     libucrt:cvt.obj
 0002:00006d1c       ??_C@_08IKHNHAJ@NAN?$CIIND?$CJ?$AA@ 10069d1c     libucrt:cvt.obj
 0002:00006d28       ??_C@_08OFCDMILK@nan?$CIind?$CJ?$AA@ 10069d28     libucrt:cvt.obj
 0002:00006d34       ??_C@_05KLBDPFGC@e?$CL000?$AA@ 10069d34     libucrt:cvt.obj
 0002:00006d40       ___lc_category             10069d40     libucrt:wsetlocale.obj
 0002:00006d98       ??_C@_1O@GIFLHMA@?$AAL?$AAC?$AA_?$AAA?$AAL?$AAL?$AA?$AA@ 10069d98     libucrt:wsetlocale.obj
 0002:00006da8       ??_C@_1BG@PPOMIBNJ@?$AAL?$AAC?$AA_?$AAC?$AAO?$AAL?$AAL?$AAA?$AAT?$AAE?$AA?$AA@ 10069da8     libucrt:wsetlocale.obj
 0002:00006dc4       ??_C@_1BC@FFJGAPJM@?$AAL?$AAC?$AA_?$AAC?$AAT?$AAY?$AAP?$AAE?$AA?$AA@ 10069dc4     libucrt:wsetlocale.obj
 0002:00006ddc       ??_C@_1BI@PCKFNJFB@?$AAL?$AAC?$AA_?$AAM?$AAO?$AAN?$AAE?$AAT?$AAA?$AAR?$AAY?$AA?$AA@ 10069ddc     libucrt:wsetlocale.obj
 0002:00006df8       ??_C@_1BG@ENIEDKID@?$AAL?$AAC?$AA_?$AAN?$AAU?$AAM?$AAE?$AAR?$AAI?$AAC?$AA?$AA@ 10069df8     libucrt:wsetlocale.obj
 0002:00006e14       ??_C@_1BA@HAAOMIIG@?$AAL?$AAC?$AA_?$AAT?$AAI?$AAM?$AAE?$AA?$AA@ 10069e14     libucrt:wsetlocale.obj
 0002:00006ec0       ??_C@_15NBPDDFIP@?$AA?$DN?$AA?$DL?$AA?$AA@ 10069ec0     libucrt:wsetlocale.obj
 0002:00006ec8       ??_C@_13PJJBFPED@?$AA?$DL?$AA?$AA@ 10069ec8     libucrt:wsetlocale.obj
 0002:00006ecc       ??_C@_13NMPKAAJP@?$AA?$DN?$AA?$AA@ 10069ecc     libucrt:wsetlocale.obj
 0002:00006ed0       ??_C@_13FHBKNHDA@?$AAC?$AA?$AA@ 10069ed0     libucrt:wsetlocale.obj
 0002:00006ed4       ??_C@_17MBJJLFDM@?$AA_?$AA?4?$AA?0?$AA?$AA@ 10069ed4     libucrt:wsetlocale.obj
 0002:00006ee0       ??_C@_13ENNFDPBH@?$AA_?$AA?$AA@ 10069ee0     libucrt:wsetlocale.obj
 0002:00006ee4       ??_C@_13JOFGPIOO@?$AA?4?$AA?$AA@ 10069ee4     libucrt:wsetlocale.obj
 0002:00006ee8       ??_C@_03KOEHGMDN@Sun?$AA@  10069ee8     libucrt:nlsdata.obj
 0002:00006eec       ??_C@_03PDAGKDH@Mon?$AA@   10069eec     libucrt:nlsdata.obj
 0002:00006ef0       ??_C@_03NAGEINEP@Tue?$AA@  10069ef0     libucrt:nlsdata.obj
 0002:00006ef4       ??_C@_03MHOMLAJA@Wed?$AA@  10069ef4     libucrt:nlsdata.obj
 0002:00006ef8       ??_C@_03IOFIKPDN@Thu?$AA@  10069ef8     libucrt:nlsdata.obj
 0002:00006efc       ??_C@_03IDIOELNC@Fri?$AA@  10069efc     libucrt:nlsdata.obj
 0002:00006f00       ??_C@_03FEFJNEK@Sat?$AA@   10069f00     libucrt:nlsdata.obj
 0002:00006f04       ??_C@_06OOPIFAJ@Sunday?$AA@ 10069f04     libucrt:nlsdata.obj
 0002:00006f0c       ??_C@_06JLEDEDGH@Monday?$AA@ 10069f0c     libucrt:nlsdata.obj
 0002:00006f14       ??_C@_07BAAGCFCM@Tuesday?$AA@ 10069f14     libucrt:nlsdata.obj
 0002:00006f20       ??_C@_09DLIGFAKA@Wednesday?$AA@ 10069f20     libucrt:nlsdata.obj
 0002:00006f2c       ??_C@_08HACCIKIA@Thursday?$AA@ 10069f2c     libucrt:nlsdata.obj
 0002:00006f38       ??_C@_06JECMNKMI@Friday?$AA@ 10069f38     libucrt:nlsdata.obj
 0002:00006f40       ??_C@_08INBOOONO@Saturday?$AA@ 10069f40     libucrt:nlsdata.obj
 0002:00006f4c       ??_C@_03JIHJHPIE@Jan?$AA@  10069f4c     libucrt:nlsdata.obj
 0002:00006f50       ??_C@_03HJBDCHOM@Feb?$AA@  10069f50     libucrt:nlsdata.obj
 0002:00006f54       ??_C@_03ODNJBKGA@Mar?$AA@  10069f54     libucrt:nlsdata.obj
 0002:00006f58       ??_C@_03LEOLGMJP@Apr?$AA@  10069f58     libucrt:nlsdata.obj
 0002:00006f5c       ??_C@_03CNMDKL@May?$AA@    10069f5c     libucrt:nlsdata.obj
 0002:00006f60       ??_C@_03IDFGHECI@Jun?$AA@  10069f60     libucrt:nlsdata.obj
 0002:00006f64       ??_C@_03LBGABGKK@Jul?$AA@  10069f64     libucrt:nlsdata.obj
 0002:00006f68       ??_C@_03IFJFEIGA@Aug?$AA@  10069f68     libucrt:nlsdata.obj
 0002:00006f6c       ??_C@_03GGCAPAJC@Sep?$AA@  10069f6c     libucrt:nlsdata.obj
 0002:00006f70       ??_C@_03BMAOKBAD@Oct?$AA@  10069f70     libucrt:nlsdata.obj
 0002:00006f74       ??_C@_03JPJOFNIA@Nov?$AA@  10069f74     libucrt:nlsdata.obj
 0002:00006f78       ??_C@_03MKABNOCG@Dec?$AA@  10069f78     libucrt:nlsdata.obj
 0002:00006f7c       ??_C@_07CGJPFGJA@January?$AA@ 10069f7c     libucrt:nlsdata.obj
 0002:00006f88       ??_C@_08GNJGEPFN@February?$AA@ 10069f88     libucrt:nlsdata.obj
 0002:00006f94       ??_C@_05HPCKOFNC@March?$AA@ 10069f94     libucrt:nlsdata.obj
 0002:00006f9c       ??_C@_05DMJDNLEJ@April?$AA@ 10069f9c     libucrt:nlsdata.obj
 0002:00006fa4       ??_C@_04CNLMGBGM@June?$AA@ 10069fa4     libucrt:nlsdata.obj
 0002:00006fac       ??_C@_04MIEPOIFP@July?$AA@ 10069fac     libucrt:nlsdata.obj
 0002:00006fb4       ??_C@_06LBBHFDDG@August?$AA@ 10069fb4     libucrt:nlsdata.obj
 0002:00006fbc       ??_C@_09BHHEALKD@September?$AA@ 10069fbc     libucrt:nlsdata.obj
 0002:00006fc8       ??_C@_07JJNFCEND@October?$AA@ 10069fc8     libucrt:nlsdata.obj
 0002:00006fd4       ??_C@_08HCHEGEOA@November?$AA@ 10069fd4     libucrt:nlsdata.obj
 0002:00006fe0       ??_C@_08EDHMEBNP@December?$AA@ 10069fe0     libucrt:nlsdata.obj
 0002:00006fec       ??_C@_02DEDBPAFC@AM?$AA@   10069fec     libucrt:nlsdata.obj
 0002:00006ff0       ??_C@_02CJNFDJBF@PM?$AA@   10069ff0     libucrt:nlsdata.obj
 0002:00006ff4       ??_C@_08BPBNCDIB@MM?1dd?1yy?$AA@ 10069ff4     libucrt:nlsdata.obj
 0002:00007000       ??_C@_0BE@CKGJFCPC@dddd?0?5MMMM?5dd?0?5yyyy?$AA@ 1006a000     libucrt:nlsdata.obj
 0002:00007018       ??_C@_08JCCMCCIL@HH?3mm?3ss?$AA@ 1006a018     libucrt:nlsdata.obj
 0002:00007024       ??_C@_17MBGCMIPB@?$AAS?$AAu?$AAn?$AA?$AA@ 1006a024     libucrt:nlsdata.obj
 0002:00007030       ??_C@_17KBOMKBF@?$AAM?$AAo?$AAn?$AA?$AA@ 1006a030     libucrt:nlsdata.obj
 0002:0000703c       ??_C@_17BMKGEGOJ@?$AAT?$AAu?$AAe?$AA?$AA@ 1006a03c     libucrt:nlsdata.obj
 0002:00007048       ??_C@_17CJEDCEPE@?$AAW?$AAe?$AAd?$AA?$AA@ 1006a048     libucrt:nlsdata.obj
 0002:00007054       ??_C@_17PDPHAADD@?$AAT?$AAh?$AAu?$AA?$AA@ 1006a054     libucrt:nlsdata.obj
 0002:00007060       ??_C@_17HFOLPPLP@?$AAF?$AAr?$AAi?$AA?$AA@ 1006a060     libucrt:nlsdata.obj
 0002:0000706c       ??_C@_17GGIBDPIH@?$AAS?$AAa?$AAt?$AA?$AA@ 1006a06c     libucrt:nlsdata.obj
 0002:00007078       ??_C@_1O@IHNHDHPB@?$AAS?$AAu?$AAn?$AAd?$AAa?$AAy?$AA?$AA@ 1006a078     libucrt:nlsdata.obj
 0002:00007088       ??_C@_1O@MMNBFLIA@?$AAM?$AAo?$AAn?$AAd?$AAa?$AAy?$AA?$AA@ 1006a088     libucrt:nlsdata.obj
 0002:00007098       ??_C@_1BA@ENFBFFEK@?$AAT?$AAu?$AAe?$AAs?$AAd?$AAa?$AAy?$AA?$AA@ 1006a098     libucrt:nlsdata.obj
 0002:000070ac       ??_C@_1BE@EBOGMDOH@?$AAW?$AAe?$AAd?$AAn?$AAe?$AAs?$AAd?$AAa?$AAy?$AA?$AA@ 1006a0ac     libucrt:nlsdata.obj
 0002:000070c4       ??_C@_1BC@HHMNLIHE@?$AAT?$AAh?$AAu?$AAr?$AAs?$AAd?$AAa?$AAy?$AA?$AA@ 1006a0c4     libucrt:nlsdata.obj
 0002:000070dc       ??_C@_1O@PDICJHAG@?$AAF?$AAr?$AAi?$AAd?$AAa?$AAy?$AA?$AA@ 1006a0dc     libucrt:nlsdata.obj
 0002:000070ec       ??_C@_1BC@ENMNNPAJ@?$AAS?$AAa?$AAt?$AAu?$AAr?$AAd?$AAa?$AAy?$AA?$AA@ 1006a0ec     libucrt:nlsdata.obj
 0002:00007104       ??_C@_17DKNBKCHM@?$AAJ?$AAa?$AAn?$AA?$AA@ 1006a104     libucrt:nlsdata.obj
 0002:00007110       ??_C@_17LMDJEKJN@?$AAF?$AAe?$AAb?$AA?$AA@ 1006a110     libucrt:nlsdata.obj
 0002:0000711c       ??_C@_17CKNLEDEC@?$AAM?$AAa?$AAr?$AA?$AA@ 1006a11c     libucrt:nlsdata.obj
 0002:00007128       ??_C@_17LFPOIHDD@?$AAA?$AAp?$AAr?$AA?$AA@ 1006a128     libucrt:nlsdata.obj
 0002:00007134       ??_C@_17PNNKMEED@?$AAM?$AAa?$AAy?$AA?$AA@ 1006a134     libucrt:nlsdata.obj
 0002:00007140       ??_C@_17KCJGOCPB@?$AAJ?$AAu?$AAn?$AA?$AA@ 1006a140     libucrt:nlsdata.obj
 0002:0000714c       ??_C@_17IJPCKHK@?$AAJ?$AAu?$AAl?$AA?$AA@ 1006a14c     libucrt:nlsdata.obj
 0002:00007158       ??_C@_17ICPELBCN@?$AAA?$AAu?$AAg?$AA?$AA@ 1006a158     libucrt:nlsdata.obj
 0002:00007164       ??_C@_17HCHCOKMG@?$AAS?$AAe?$AAp?$AA?$AA@ 1006a164     libucrt:nlsdata.obj
 0002:00007170       ??_C@_17FNLKOI@?$AAO?$AAc?$AAt?$AA?$AA@ 1006a170     libucrt:nlsdata.obj
 0002:0000717c       ??_C@_17BBDMLCIG@?$AAN?$AAo?$AAv?$AA?$AA@ 1006a17c     libucrt:nlsdata.obj
 0002:00007188       ??_C@_17EGKACKIF@?$AAD?$AAe?$AAc?$AA?$AA@ 1006a188     libucrt:nlsdata.obj
 0002:00007194       ??_C@_1BA@EFMEIEBA@?$AAJ?$AAa?$AAn?$AAu?$AAa?$AAr?$AAy?$AA?$AA@ 1006a194     libucrt:nlsdata.obj
 0002:000071a8       ??_C@_1BC@JGDDFFAM@?$AAF?$AAe?$AAb?$AAr?$AAu?$AAa?$AAr?$AAy?$AA?$AA@ 1006a1a8     libucrt:nlsdata.obj
 0002:000071c0       ??_C@_1M@IKEENEDF@?$AAM?$AAa?$AAr?$AAc?$AAh?$AA?$AA@ 1006a1c0     libucrt:nlsdata.obj
 0002:000071d0       ??_C@_1M@GJNLMHFD@?$AAA?$AAp?$AAr?$AAi?$AAl?$AA?$AA@ 1006a1d0     libucrt:nlsdata.obj
 0002:000071e0       ??_C@_19EPFLPGAP@?$AAJ?$AAu?$AAn?$AAe?$AA?$AA@ 1006a1e0     libucrt:nlsdata.obj
 0002:000071ec       ??_C@_19BIFMLPCD@?$AAJ?$AAu?$AAl?$AAy?$AA?$AA@ 1006a1ec     libucrt:nlsdata.obj
 0002:000071f8       ??_C@_1O@PAHLKOAC@?$AAA?$AAu?$AAg?$AAu?$AAs?$AAt?$AA?$AA@ 1006a1f8     libucrt:nlsdata.obj
 0002:00007208       ??_C@_1BE@DKAAMBJL@?$AAS?$AAe?$AAp?$AAt?$AAe?$AAm?$AAb?$AAe?$AAr?$AA?$AA@ 1006a208     libucrt:nlsdata.obj
 0002:00007220       ??_C@_1BA@EPANDLNG@?$AAO?$AAc?$AAt?$AAo?$AAb?$AAe?$AAr?$AA?$AA@ 1006a220     libucrt:nlsdata.obj
 0002:00007234       ??_C@_1BC@BGLIFPF@?$AAN?$AAo?$AAv?$AAe?$AAm?$AAb?$AAe?$AAr?$AA?$AA@ 1006a234     libucrt:nlsdata.obj
 0002:0000724c       ??_C@_1BC@FEMKIFH@?$AAD?$AAe?$AAc?$AAe?$AAm?$AAb?$AAe?$AAr?$AA?$AA@ 1006a24c     libucrt:nlsdata.obj
 0002:00007264       ??_C@_15ODEHAHHF@?$AAA?$AAM?$AA?$AA@ 1006a264     libucrt:nlsdata.obj
 0002:0000726c       ??_C@_15CLMNNGEL@?$AAP?$AAM?$AA?$AA@ 1006a26c     libucrt:nlsdata.obj
 0002:00007274       ??_C@_1BC@IEBCMHCM@?$AAM?$AAM?$AA?1?$AAd?$AAd?$AA?1?$AAy?$AAy?$AA?$AA@ 1006a274     libucrt:nlsdata.obj
 0002:0000728c       ??_C@_1CI@KNAKOEBC@?$AAd?$AAd?$AAd?$AAd?$AA?0?$AA?5?$AAM?$AAM?$AAM?$AAM?$AA?5?$AAd?$AAd?$AA?0?$AA?5?$AAy?$AAy?$AAy?$AAy?$AA?$AA@ 1006a28c     libucrt:nlsdata.obj
 0002:000072bc       ??_C@_1BC@GDGBMEMK@?$AAH?$AAH?$AA?3?$AAm?$AAm?$AA?3?$AAs?$AAs?$AA?$AA@ 1006a2bc     libucrt:nlsdata.obj
 0002:000072d4       ??_C@_1M@BMHNFIME@?$AAe?$AAn?$AA?9?$AAU?$AAS?$AA?$AA@ 1006a2d4     libucrt:nlsdata.obj
 0002:000072e8       ___lc_time_c               1006a2e8     libucrt:nlsdata.obj
 0002:00007494       ?ccs@?BL@???$__acrt_stdio_parse_mode@D@@YA?AU__acrt_stdio_stream_mode@@QBD@Z@4QBDB 1006a494     libucrt:openfile.obj
 0002:00007498       ?utf8_encoding@?BL@???$__acrt_stdio_parse_mode@D@@YA?AU__acrt_stdio_stream_mode@@QBD@Z@4QBDB 1006a498     libucrt:openfile.obj
 0002:000074a0       ?utf16_encoding@?BL@???$__acrt_stdio_parse_mode@D@@YA?AU__acrt_stdio_stream_mode@@QBD@Z@4QBDB 1006a4a0     libucrt:openfile.obj
 0002:000074ac       ?unicode_encoding@?BL@???$__acrt_stdio_parse_mode@D@@YA?AU__acrt_stdio_stream_mode@@QBD@Z@4QBDB 1006a4ac     libucrt:openfile.obj
 0002:000074b4       ?ccs@?BL@???$__acrt_stdio_parse_mode@_W@@YA?AU__acrt_stdio_stream_mode@@QB_W@Z@4QB_WB 1006a4b4     libucrt:openfile.obj
 0002:000074bc       ?utf8_encoding@?BL@???$__acrt_stdio_parse_mode@_W@@YA?AU__acrt_stdio_stream_mode@@QB_W@Z@4QB_WB 1006a4bc     libucrt:openfile.obj
 0002:000074c8       ?utf16_encoding@?BL@???$__acrt_stdio_parse_mode@_W@@YA?AU__acrt_stdio_stream_mode@@QB_W@Z@4QB_WB 1006a4c8     libucrt:openfile.obj
 0002:000074dc       ?unicode_encoding@?BL@???$__acrt_stdio_parse_mode@_W@@YA?AU__acrt_stdio_stream_mode@@QB_W@Z@4QB_WB 1006a4dc     libucrt:openfile.obj
 0002:000074f0       __d_inf                    1006a4f0     libucrt:util.obj
 0002:00007500       __d_ind                    1006a500     libucrt:util.obj
 0002:00007510       __d_max                    1006a510     libucrt:util.obj
 0002:00007520       __d_min                    1006a520     libucrt:util.obj
 0002:00007530       __d_mzero                  1006a530     libucrt:util.obj
 0002:0000755c       ??_C@_1DE@JNGNBFGO@?$AAR?$AAu?$AAn?$AAt?$AAi?$AAm?$AAe?$AA?5?$AAE?$AAr?$AAr?$AAo?$AAr?$AA?$CB?$AA?6?$AA?6?$AAP?$AAr?$AAo?$AAg?$AAr?$AAa?$AAm?$AA?3?$AA?5?$AA?$AA@ 1006a55c     libucrt:report_runtime_error.obj
 0002:000075b0       ??_C@_1M@HPNHIDJI@?$AAj?$AAa?$AA?9?$AAJ?$AAP?$AA?$AA@ 1006a5b0     libucrt:mbctype.obj
 0002:000075c0       ??_C@_1M@BIBDDEMK@?$AAz?$AAh?$AA?9?$AAC?$AAN?$AA?$AA@ 1006a5c0     libucrt:mbctype.obj
 0002:000075d0       ??_C@_1M@JLOOOEGK@?$AAk?$AAo?$AA?9?$AAK?$AAR?$AA?$AA@ 1006a5d0     libucrt:mbctype.obj
 0002:000075e0       ??_C@_1M@CLNBBOPM@?$AAz?$AAh?$AA?9?$AAT?$AAW?$AA?$AA@ 1006a5e0     libucrt:mbctype.obj
 0002:000075f0       __wctype                   1006a5f0     libucrt:ctype.obj
 0002:00007860       ___newctype                1006a860     libucrt:ctype.obj
 0002:00007c00       ___newclmap                1006ac00     libucrt:ctype.obj
 0002:00007dd0       ___newcumap                1006add0     libucrt:ctype.obj
 0002:0000882c       ??_C@_15EMKDOKLE@?$AAa?$AAr?$AA?$AA@ 1006b82c     libucrt:lcidtoname_downlevel.obj
 0002:00008834       ??_C@_15KNPADPLH@?$AAb?$AAg?$AA?$AA@ 1006b834     libucrt:lcidtoname_downlevel.obj
 0002:0000883c       ??_C@_15EDMHLDMO@?$AAc?$AAa?$AA?$AA@ 1006b83c     libucrt:lcidtoname_downlevel.obj
 0002:00008844       ??_C@_1O@BPEAJADD@?$AAz?$AAh?$AA?9?$AAC?$AAH?$AAS?$AA?$AA@ 1006b844     libucrt:lcidtoname_downlevel.obj
 0002:00008854       ??_C@_15LJNHCMNK@?$AAc?$AAs?$AA?$AA@ 1006b854     libucrt:lcidtoname_downlevel.obj
 0002:0000885c       ??_C@_15FOMCIDHG@?$AAd?$AAa?$AA?$AA@ 1006b85c     libucrt:lcidtoname_downlevel.obj
 0002:00008864       ??_C@_15NBKABECB@?$AAd?$AAe?$AA?$AA@ 1006b864     libucrt:lcidtoname_downlevel.obj
 0002:0000886c       ??_C@_15GHPEIIAO@?$AAe?$AAl?$AA?$AA@ 1006b86c     libucrt:lcidtoname_downlevel.obj
 0002:00008874       ??_C@_15MNPNEAIF@?$AAe?$AAn?$AA?$AA@ 1006b874     libucrt:lcidtoname_downlevel.obj
 0002:0000887c       ??_C@_15GPIOMPMH@?$AAe?$AAs?$AA?$AA@ 1006b87c     libucrt:lcidtoname_downlevel.obj
 0002:00008884       ??_C@_15NGLOAKJC@?$AAf?$AAi?$AA?$AA@ 1006b884     libucrt:lcidtoname_downlevel.obj
 0002:0000888c       ??_C@_15FBKGNKAM@?$AAf?$AAr?$AA?$AA@ 1006b88c     libucrt:lcidtoname_downlevel.obj
 0002:00008894       ??_C@_15KGGCNEFK@?$AAh?$AAe?$AA?$AA@ 1006b894     libucrt:lcidtoname_downlevel.obj
 0002:0000889c       ??_C@_15PGHLIDMF@?$AAh?$AAu?$AA?$AA@ 1006b89c     libucrt:lcidtoname_downlevel.obj
 0002:000088a4       ??_C@_15BIEMAPLM@?$AAi?$AAs?$AA?$AA@ 1006b8a4     libucrt:lcidtoname_downlevel.obj
 0002:000088ac       ??_C@_15IFJLDHAF@?$AAi?$AAt?$AA?$AA@ 1006b8ac     libucrt:lcidtoname_downlevel.obj
 0002:000088b4       ??_C@_15GEMIOCAG@?$AAj?$AAa?$AA?$AA@ 1006b8b4     libucrt:lcidtoname_downlevel.obj
 0002:000088bc       ??_C@_15EPELEGJA@?$AAk?$AAo?$AA?$AA@ 1006b8bc     libucrt:lcidtoname_downlevel.obj
 0002:000088c4       ??_C@_15NDDHIMN@?$AAn?$AAl?$AA?$AA@ 1006b8c4     libucrt:lcidtoname_downlevel.obj
 0002:000088cc       ??_C@_15BPIGNHCD@?$AAn?$AAo?$AA?$AA@ 1006b8cc     libucrt:lcidtoname_downlevel.obj
 0002:000088d4       ??_C@_15DEOPBLCG@?$AAp?$AAl?$AA?$AA@ 1006b8d4     libucrt:lcidtoname_downlevel.obj
 0002:000088dc       ??_C@_15KBECGEFG@?$AAp?$AAt?$AA?$AA@ 1006b8dc     libucrt:lcidtoname_downlevel.obj
 0002:000088e4       ??_C@_15GLJCBFMD@?$AAr?$AAo?$AA?$AA@ 1006b8e4     libucrt:lcidtoname_downlevel.obj
 0002:000088ec       ??_C@_15FEDGKCDI@?$AAr?$AAu?$AA?$AA@ 1006b8ec     libucrt:lcidtoname_downlevel.obj
 0002:000088f4       ??_C@_15GLKMLLHM@?$AAh?$AAr?$AA?$AA@ 1006b8f4     libucrt:lcidtoname_downlevel.obj
 0002:000088fc       ??_C@_15CPKMFBDB@?$AAs?$AAk?$AA?$AA@ 1006b8fc     libucrt:lcidtoname_downlevel.obj
 0002:00008904       ??_C@_15BAAIOGMK@?$AAs?$AAq?$AA?$AA@ 1006b904     libucrt:lcidtoname_downlevel.obj
 0002:0000890c       ??_C@_15INNPNOHD@?$AAs?$AAv?$AA?$AA@ 1006b90c     libucrt:lcidtoname_downlevel.obj
 0002:00008914       ??_C@_15CABMMOGH@?$AAt?$AAh?$AA?$AA@ 1006b914     libucrt:lcidtoname_downlevel.obj
 0002:0000891c       ??_C@_15BPLIHJJM@?$AAt?$AAr?$AA?$AA@ 1006b91c     libucrt:lcidtoname_downlevel.obj
 0002:00008924       ??_C@_15NEOEKKDJ@?$AAu?$AAr?$AA?$AA@ 1006b924     libucrt:lcidtoname_downlevel.obj
 0002:0000892c       ??_C@_15NFICGAJK@?$AAi?$AAd?$AA?$AA@ 1006b92c     libucrt:lcidtoname_downlevel.obj
 0002:00008934       ??_C@_15PJPFLCCM@?$AAu?$AAk?$AA?$AA@ 1006b934     libucrt:lcidtoname_downlevel.obj
 0002:0000893c       ??_C@_15HPJPHDM@?$AAb?$AAe?$AA?$AA@ 1006b93c     libucrt:lcidtoname_downlevel.obj
 0002:00008944       ??_C@_15LCHLGJII@?$AAs?$AAl?$AA?$AA@ 1006b944     libucrt:lcidtoname_downlevel.obj
 0002:0000894c       ??_C@_15PCFJPHHO@?$AAe?$AAt?$AA?$AA@ 1006b94c     libucrt:lcidtoname_downlevel.obj
 0002:00008954       ??_C@_15HPFPGODN@?$AAl?$AAv?$AA?$AA@ 1006b954     libucrt:lcidtoname_downlevel.obj
 0002:0000895c       ??_C@_15NFFGKGLG@?$AAl?$AAt?$AA?$AA@ 1006b95c     libucrt:lcidtoname_downlevel.obj
 0002:00008964       ??_C@_15BDAKCCHN@?$AAf?$AAa?$AA?$AA@ 1006b964     libucrt:lcidtoname_downlevel.obj
 0002:0000896c       ??_C@_15NFGIAIAJ@?$AAv?$AAi?$AA?$AA@ 1006b96c     libucrt:lcidtoname_downlevel.obj
 0002:00008974       ??_C@_15LMKNDMHN@?$AAh?$AAy?$AA?$AA@ 1006b974     libucrt:lcidtoname_downlevel.obj
 0002:0000897c       ??_C@_15IJBHMCFL@?$AAa?$AAz?$AA?$AA@ 1006b97c     libucrt:lcidtoname_downlevel.obj
 0002:00008984       ??_C@_15EKOFJABL@?$AAe?$AAu?$AA?$AA@ 1006b984     libucrt:lcidtoname_downlevel.obj
 0002:0000898c       ??_C@_15BGHADCNK@?$AAm?$AAk?$AA?$AA@ 1006b98c     libucrt:lcidtoname_downlevel.obj
 0002:00008994       ??_C@_15JDNICKHM@?$AAa?$AAf?$AA?$AA@ 1006b994     libucrt:lcidtoname_downlevel.obj
 0002:0000899c       ??_C@_15KPJEDBKD@?$AAk?$AAa?$AA?$AA@ 1006b99c     libucrt:lcidtoname_downlevel.obj
 0002:000089a4       ??_C@_15PDNFFFEO@?$AAf?$AAo?$AA?$AA@ 1006b9a4     libucrt:lcidtoname_downlevel.obj
 0002:000089ac       ??_C@_15OMLEGLOC@?$AAh?$AAi?$AA?$AA@ 1006b9ac     libucrt:lcidtoname_downlevel.obj
 0002:000089b4       ??_C@_15IDNNENKK@?$AAm?$AAs?$AA?$AA@ 1006b9b4     libucrt:lcidtoname_downlevel.obj
 0002:000089bc       ??_C@_15MACJNBMH@?$AAk?$AAk?$AA?$AA@ 1006b9bc     libucrt:lcidtoname_downlevel.obj
 0002:000089c4       ??_C@_15DKDJEOND@?$AAk?$AAy?$AA?$AA@ 1006b9c4     libucrt:lcidtoname_downlevel.obj
 0002:000089cc       ??_C@_15DFGDLJBG@?$AAs?$AAw?$AA?$AA@ 1006b9cc     libucrt:lcidtoname_downlevel.obj
 0002:000089d4       ??_C@_15BBFAICNG@?$AAu?$AAz?$AA?$AA@ 1006b9d4     libucrt:lcidtoname_downlevel.obj
 0002:000089dc       ??_C@_15DKNDCGEA@?$AAt?$AAt?$AA?$AA@ 1006b9dc     libucrt:lcidtoname_downlevel.obj
 0002:000089e4       ??_C@_15MGIFMDPL@?$AAp?$AAa?$AA?$AA@ 1006b9e4     libucrt:lcidtoname_downlevel.obj
 0002:000089ec       ??_C@_15HCNDBBA@?$AAg?$AAu?$AA?$AA@ 1006b9ec     libucrt:lcidtoname_downlevel.obj
 0002:000089f4       ??_C@_15FNBEIBON@?$AAt?$AAa?$AA?$AA@ 1006b9f4     libucrt:lcidtoname_downlevel.obj
 0002:000089fc       ??_C@_15NCHGBGLK@?$AAt?$AAe?$AA?$AA@ 1006b9fc     libucrt:lcidtoname_downlevel.obj
 0002:00008a04       ??_C@_15PHPHCBPF@?$AAk?$AAn?$AA?$AA@ 1006ba04     libucrt:lcidtoname_downlevel.obj
 0002:00008a0c       ??_C@_15DLGBCKMP@?$AAm?$AAr?$AA?$AA@ 1006ba0c     libucrt:lcidtoname_downlevel.obj
 0002:00008a14       ??_C@_15EABBLBFF@?$AAs?$AAa?$AA?$AA@ 1006ba14     libucrt:lcidtoname_downlevel.obj
 0002:00008a1c       ??_C@_15CBKOMCOI@?$AAm?$AAn?$AA?$AA@ 1006ba1c     libucrt:lcidtoname_downlevel.obj
 0002:00008a24       ??_C@_15CKDMCJAF@?$AAg?$AAl?$AA?$AA@ 1006ba24     libucrt:lcidtoname_downlevel.obj
 0002:00008a2c       ??_C@_17CNJFBPG@?$AAk?$AAo?$AAk?$AA?$AA@ 1006ba2c     libucrt:lcidtoname_downlevel.obj
 0002:00008a38       ??_C@_17FFBJICPL@?$AAs?$AAy?$AAr?$AA?$AA@ 1006ba38     libucrt:lcidtoname_downlevel.obj
 0002:00008a44       ??_C@_17KPNDCPAF@?$AAd?$AAi?$AAv?$AA?$AA@ 1006ba44     libucrt:lcidtoname_downlevel.obj
 0002:00008a50       ??_C@_11LOCGONAA@?$AA?$AA@ 1006ba50     libucrt:lcidtoname_downlevel.obj
 0002:00008a54       ??_C@_1M@OKAHONE@?$AAa?$AAr?$AA?9?$AAS?$AAA?$AA?$AA@ 1006ba54     libucrt:lcidtoname_downlevel.obj
 0002:00008a64       ??_C@_1M@FFFIGIGK@?$AAb?$AAg?$AA?9?$AAB?$AAG?$AA?$AA@ 1006ba64     libucrt:lcidtoname_downlevel.obj
 0002:00008a74       ??_C@_1M@BJNKEDC@?$AAc?$AAa?$AA?9?$AAE?$AAS?$AA?$AA@ 1006ba74     libucrt:lcidtoname_downlevel.obj
 0002:00008a84       ??_C@_1M@IJJHFJHA@?$AAc?$AAs?$AA?9?$AAC?$AAZ?$AA?$AA@ 1006ba84     libucrt:lcidtoname_downlevel.obj
 0002:00008a94       ??_C@_1M@CLPEOBGI@?$AAd?$AAa?$AA?9?$AAD?$AAK?$AA?$AA@ 1006ba94     libucrt:lcidtoname_downlevel.obj
 0002:00008aa4       ??_C@_1M@MCMADGCB@?$AAd?$AAe?$AA?9?$AAD?$AAE?$AA?$AA@ 1006baa4     libucrt:lcidtoname_downlevel.obj
 0002:00008ab4       ??_C@_1M@OOCKEMAM@?$AAe?$AAl?$AA?9?$AAG?$AAR?$AA?$AA@ 1006bab4     libucrt:lcidtoname_downlevel.obj
 0002:00008ac4       ??_C@_1M@DDNJFGID@?$AAf?$AAi?$AA?9?$AAF?$AAI?$AA?$AA@ 1006bac4     libucrt:lcidtoname_downlevel.obj
 0002:00008ad4       ??_C@_1M@GLIPPMAC@?$AAf?$AAr?$AA?9?$AAF?$AAR?$AA?$AA@ 1006bad4     libucrt:lcidtoname_downlevel.obj
 0002:00008ae4       ??_C@_1M@GFMCHPE@?$AAh?$AAe?$AA?9?$AAI?$AAL?$AA?$AA@ 1006bae4     libucrt:lcidtoname_downlevel.obj
 0002:00008af4       ??_C@_1M@MHLPGNKM@?$AAh?$AAu?$AA?9?$AAH?$AAU?$AA?$AA@ 1006baf4     libucrt:lcidtoname_downlevel.obj
 0002:00008b04       ??_C@_1M@LPDDNNPN@?$AAi?$AAs?$AA?9?$AAI?$AAS?$AA?$AA@ 1006bb04     libucrt:lcidtoname_downlevel.obj
 0002:00008b14       ??_C@_1M@MADIPODN@?$AAi?$AAt?$AA?9?$AAI?$AAT?$AA?$AA@ 1006bb14     libucrt:lcidtoname_downlevel.obj
 0002:00008b24       ??_C@_1M@IHBJJGG@?$AAn?$AAl?$AA?9?$AAN?$AAL?$AA?$AA@ 1006bb24     libucrt:lcidtoname_downlevel.obj
 0002:00008b34       ??_C@_1M@EANAGDL@?$AAn?$AAb?$AA?9?$AAN?$AAO?$AA?$AA@ 1006bb34     libucrt:lcidtoname_downlevel.obj
 0002:00008b44       ??_C@_1M@NEIEMEGP@?$AAp?$AAl?$AA?9?$AAP?$AAL?$AA?$AA@ 1006bb44     libucrt:lcidtoname_downlevel.obj
 0002:00008b54       ??_C@_1M@BOCFIGEP@?$AAp?$AAt?$AA?9?$AAB?$AAR?$AA?$AA@ 1006bb54     libucrt:lcidtoname_downlevel.obj
 0002:00008b64       ??_C@_1M@IMPFOPBG@?$AAr?$AAo?$AA?9?$AAR?$AAO?$AA?$AA@ 1006bb64     libucrt:lcidtoname_downlevel.obj
 0002:00008b74       ??_C@_1M@IDNNEJMM@?$AAr?$AAu?$AA?9?$AAR?$AAU?$AA?$AA@ 1006bb74     libucrt:lcidtoname_downlevel.obj
 0002:00008b84       ??_C@_1M@LILEEOGM@?$AAh?$AAr?$AA?9?$AAH?$AAR?$AA?$AA@ 1006bb84     libucrt:lcidtoname_downlevel.obj
 0002:00008b94       ??_C@_1M@FKIFEHPB@?$AAs?$AAk?$AA?9?$AAS?$AAK?$AA?$AA@ 1006bb94     libucrt:lcidtoname_downlevel.obj
 0002:00008ba4       ??_C@_1M@LJMAMNPJ@?$AAs?$AAq?$AA?9?$AAA?$AAL?$AA?$AA@ 1006bba4     libucrt:lcidtoname_downlevel.obj
 0002:00008bb4       ??_C@_1M@GIAKDKJK@?$AAs?$AAv?$AA?9?$AAS?$AAE?$AA?$AA@ 1006bbb4     libucrt:lcidtoname_downlevel.obj
 0002:00008bc4       ??_C@_1M@MKJKIKCL@?$AAt?$AAh?$AA?9?$AAT?$AAH?$AA?$AA@ 1006bbc4     libucrt:lcidtoname_downlevel.obj
 0002:00008bd4       ??_C@_1M@MFLCCMPB@?$AAt?$AAr?$AA?9?$AAT?$AAR?$AA?$AA@ 1006bbd4     libucrt:lcidtoname_downlevel.obj
 0002:00008be4       ??_C@_1M@OIJHDKJN@?$AAu?$AAr?$AA?9?$AAP?$AAK?$AA?$AA@ 1006bbe4     libucrt:lcidtoname_downlevel.obj
 0002:00008bf4       ??_C@_1M@LHIPCIEK@?$AAi?$AAd?$AA?9?$AAI?$AAD?$AA?$AA@ 1006bbf4     libucrt:lcidtoname_downlevel.obj
 0002:00008c04       ??_C@_1M@MFMOBGI@?$AAu?$AAk?$AA?9?$AAU?$AAA?$AA?$AA@ 1006bc04     libucrt:lcidtoname_downlevel.obj
 0002:00008c14       ??_C@_1M@OBGLJIPL@?$AAb?$AAe?$AA?9?$AAB?$AAY?$AA?$AA@ 1006bc14     libucrt:lcidtoname_downlevel.obj
 0002:00008c24       ??_C@_1M@BCFAJEAD@?$AAs?$AAl?$AA?9?$AAS?$AAI?$AA?$AA@ 1006bc24     libucrt:lcidtoname_downlevel.obj
 0002:00008c34       ??_C@_1M@FKFFEDDN@?$AAe?$AAt?$AA?9?$AAE?$AAE?$AA?$AA@ 1006bc34     libucrt:lcidtoname_downlevel.obj
 0002:00008c44       ??_C@_1M@KGKKAACI@?$AAl?$AAv?$AA?9?$AAL?$AAV?$AA?$AA@ 1006bc44     libucrt:lcidtoname_downlevel.obj
 0002:00008c54       ??_C@_1M@IFGBIJO@?$AAl?$AAt?$AA?9?$AAL?$AAT?$AA?$AA@ 1006bc54     libucrt:lcidtoname_downlevel.obj
 0002:00008c64       ??_C@_1M@FGEAHEDM@?$AAf?$AAa?$AA?9?$AAI?$AAR?$AA?$AA@ 1006bc64     libucrt:lcidtoname_downlevel.obj
 0002:00008c74       ??_C@_1M@KBMAIBFN@?$AAv?$AAi?$AA?9?$AAV?$AAN?$AA?$AA@ 1006bc74     libucrt:lcidtoname_downlevel.obj
 0002:00008c84       ??_C@_1M@GPCBKDJK@?$AAh?$AAy?$AA?9?$AAA?$AAM?$AA?$AA@ 1006bc84     libucrt:lcidtoname_downlevel.obj
 0002:00008c94       ??_C@_1BG@BECMDDJB@?$AAa?$AAz?$AA?9?$AAA?$AAZ?$AA?9?$AAL?$AAa?$AAt?$AAn?$AA?$AA@ 1006bc94     libucrt:lcidtoname_downlevel.obj
 0002:00008cb0       ??_C@_1M@MAOFCAEA@?$AAe?$AAu?$AA?9?$AAE?$AAS?$AA?$AA@ 1006bcb0     libucrt:lcidtoname_downlevel.obj
 0002:00008cc0       ??_C@_1M@IGHABKPI@?$AAm?$AAk?$AA?9?$AAM?$AAK?$AA?$AA@ 1006bcc0     libucrt:lcidtoname_downlevel.obj
 0002:00008cd0       ??_C@_1M@IAIGNEJG@?$AAt?$AAn?$AA?9?$AAZ?$AAA?$AA?$AA@ 1006bcd0     libucrt:lcidtoname_downlevel.obj
 0002:00008ce0       ??_C@_1M@IIJCOJFA@?$AAx?$AAh?$AA?9?$AAZ?$AAA?$AA?$AA@ 1006bce0     libucrt:lcidtoname_downlevel.obj
 0002:00008cf0       ??_C@_1M@LGPJHNJH@?$AAz?$AAu?$AA?9?$AAZ?$AAA?$AA?$AA@ 1006bcf0     libucrt:lcidtoname_downlevel.obj
 0002:00008d00       ??_C@_1M@HOKAOIO@?$AAa?$AAf?$AA?9?$AAZ?$AAA?$AA?$AA@ 1006bd00     libucrt:lcidtoname_downlevel.obj
 0002:00008d10       ??_C@_1M@DPCLHLIE@?$AAk?$AAa?$AA?9?$AAG?$AAE?$AA?$AA@ 1006bd10     libucrt:lcidtoname_downlevel.obj
 0002:00008d20       ??_C@_1M@BLKMHJBI@?$AAf?$AAo?$AA?9?$AAF?$AAO?$AA?$AA@ 1006bd20     libucrt:lcidtoname_downlevel.obj
 0002:00008d30       ??_C@_1M@LGGJAPPB@?$AAh?$AAi?$AA?9?$AAI?$AAN?$AA?$AA@ 1006bd30     libucrt:lcidtoname_downlevel.obj
 0002:00008d40       ??_C@_1M@FIKPIHFE@?$AAm?$AAt?$AA?9?$AAM?$AAT?$AA?$AA@ 1006bd40     libucrt:lcidtoname_downlevel.obj
 0002:00008d50       ??_C@_1M@HEGGPBFA@?$AAs?$AAe?$AA?9?$AAN?$AAO?$AA?$AA@ 1006bd50     libucrt:lcidtoname_downlevel.obj
 0002:00008d60       ??_C@_1M@EIBJEEPA@?$AAm?$AAs?$AA?9?$AAM?$AAY?$AA?$AA@ 1006bd60     libucrt:lcidtoname_downlevel.obj
 0002:00008d70       ??_C@_1M@FHLBGMPP@?$AAk?$AAk?$AA?9?$AAK?$AAZ?$AA?$AA@ 1006bd70     libucrt:lcidtoname_downlevel.obj
 0002:00008d80       ??_C@_1M@NGJJLCGI@?$AAk?$AAy?$AA?9?$AAK?$AAG?$AA?$AA@ 1006bd80     libucrt:lcidtoname_downlevel.obj
 0002:00008d90       ??_C@_1M@GIENNBFC@?$AAs?$AAw?$AA?9?$AAK?$AAE?$AA?$AA@ 1006bd90     libucrt:lcidtoname_downlevel.obj
 0002:00008da0       ??_C@_1BG@NDGMJIMJ@?$AAu?$AAz?$AA?9?$AAU?$AAZ?$AA?9?$AAL?$AAa?$AAt?$AAn?$AA?$AA@ 1006bda0     libucrt:lcidtoname_downlevel.obj
 0002:00008dbc       ??_C@_1M@IDCCIHBC@?$AAt?$AAt?$AA?9?$AAR?$AAU?$AA?$AA@ 1006bdbc     libucrt:lcidtoname_downlevel.obj
 0002:00008dcc       ??_C@_1M@LOICPMOJ@?$AAb?$AAn?$AA?9?$AAI?$AAN?$AA?$AA@ 1006bdcc     libucrt:lcidtoname_downlevel.obj
 0002:00008ddc       ??_C@_1M@KPKKNEAH@?$AAp?$AAa?$AA?9?$AAI?$AAN?$AA?$AA@ 1006bddc     libucrt:lcidtoname_downlevel.obj
 0002:00008dec       ??_C@_1M@PJGPPBOG@?$AAg?$AAu?$AA?9?$AAI?$AAN?$AA?$AA@ 1006bdec     libucrt:lcidtoname_downlevel.obj
 0002:00008dfc       ??_C@_1M@KMKMOPHI@?$AAt?$AAa?$AA?9?$AAI?$AAN?$AA?$AA@ 1006bdfc     libucrt:lcidtoname_downlevel.obj
 0002:00008e0c       ??_C@_1M@KFEHEPAC@?$AAt?$AAe?$AA?9?$AAI?$AAN?$AA?$AA@ 1006be0c     libucrt:lcidtoname_downlevel.obj
 0002:00008e1c       ??_C@_1M@CDCLMGHI@?$AAk?$AAn?$AA?9?$AAI?$AAN?$AA?$AA@ 1006be1c     libucrt:lcidtoname_downlevel.obj
 0002:00008e2c       ??_C@_1M@MIODLDKF@?$AAm?$AAl?$AA?9?$AAI?$AAN?$AA?$AA@ 1006be2c     libucrt:lcidtoname_downlevel.obj
 0002:00008e3c       ??_C@_1M@PBIEACPO@?$AAm?$AAr?$AA?9?$AAI?$AAN?$AA?$AA@ 1006be3c     libucrt:lcidtoname_downlevel.obj
 0002:00008e4c       ??_C@_1M@NIDEAGPH@?$AAs?$AAa?$AA?9?$AAI?$AAN?$AA?$AA@ 1006be4c     libucrt:lcidtoname_downlevel.obj
 0002:00008e5c       ??_C@_1M@FHIHCBIO@?$AAm?$AAn?$AA?9?$AAM?$AAN?$AA?$AA@ 1006be5c     libucrt:lcidtoname_downlevel.obj
 0002:00008e6c       ??_C@_1M@JAIJPENP@?$AAc?$AAy?$AA?9?$AAG?$AAB?$AA?$AA@ 1006be6c     libucrt:lcidtoname_downlevel.obj
 0002:00008e7c       ??_C@_1M@PHGFBEPN@?$AAg?$AAl?$AA?9?$AAE?$AAS?$AA?$AA@ 1006be7c     libucrt:lcidtoname_downlevel.obj
 0002:00008e8c       ??_C@_1O@KPIPDNCP@?$AAk?$AAo?$AAk?$AA?9?$AAI?$AAN?$AA?$AA@ 1006be8c     libucrt:lcidtoname_downlevel.obj
 0002:00008e9c       ??_C@_1O@KNHJLDJA@?$AAs?$AAy?$AAr?$AA?9?$AAS?$AAY?$AA?$AA@ 1006be9c     libucrt:lcidtoname_downlevel.obj
 0002:00008eac       ??_C@_1O@MKEKBLAH@?$AAd?$AAi?$AAv?$AA?9?$AAM?$AAV?$AA?$AA@ 1006beac     libucrt:lcidtoname_downlevel.obj
 0002:00008ebc       ??_C@_1O@OHDCKDDF@?$AAq?$AAu?$AAz?$AA?9?$AAB?$AAO?$AA?$AA@ 1006bebc     libucrt:lcidtoname_downlevel.obj
 0002:00008ecc       ??_C@_1M@LEPJNLFD@?$AAn?$AAs?$AA?9?$AAZ?$AAA?$AA?$AA@ 1006becc     libucrt:lcidtoname_downlevel.obj
 0002:00008edc       ??_C@_1M@OMLEIIJB@?$AAm?$AAi?$AA?9?$AAN?$AAZ?$AA?$AA@ 1006bedc     libucrt:lcidtoname_downlevel.obj
 0002:00008eec       ??_C@_1M@PMPEAILG@?$AAa?$AAr?$AA?9?$AAI?$AAQ?$AA?$AA@ 1006beec     libucrt:lcidtoname_downlevel.obj
 0002:00008efc       ??_C@_1M@CNKPNOEE@?$AAd?$AAe?$AA?9?$AAC?$AAH?$AA?$AA@ 1006befc     libucrt:lcidtoname_downlevel.obj
 0002:00008f0c       ??_C@_1M@LKMGMLKO@?$AAe?$AAn?$AA?9?$AAG?$AAB?$AA?$AA@ 1006bf0c     libucrt:lcidtoname_downlevel.obj
 0002:00008f1c       ??_C@_1M@PGKJFFGL@?$AAe?$AAs?$AA?9?$AAM?$AAX?$AA?$AA@ 1006bf1c     libucrt:lcidtoname_downlevel.obj
 0002:00008f2c       ??_C@_1M@DNNANBDC@?$AAf?$AAr?$AA?9?$AAB?$AAE?$AA?$AA@ 1006bf2c     libucrt:lcidtoname_downlevel.obj
 0002:00008f3c       ??_C@_1M@HLGMDFHM@?$AAi?$AAt?$AA?9?$AAC?$AAH?$AA?$AA@ 1006bf3c     libucrt:lcidtoname_downlevel.obj
 0002:00008f4c       ??_C@_1M@CLLBGJH@?$AAn?$AAl?$AA?9?$AAB?$AAE?$AA?$AA@ 1006bf4c     libucrt:lcidtoname_downlevel.obj
 0002:00008f5c       ??_C@_1M@BODBOGLF@?$AAn?$AAn?$AA?9?$AAN?$AAO?$AA?$AA@ 1006bf5c     libucrt:lcidtoname_downlevel.obj
 0002:00008f6c       ??_C@_1M@HFFAHKAD@?$AAp?$AAt?$AA?9?$AAP?$AAT?$AA?$AA@ 1006bf6c     libucrt:lcidtoname_downlevel.obj
 0002:00008f7c       ??_C@_1BG@LNOAKHIE@?$AAs?$AAr?$AA?9?$AAS?$AAP?$AA?9?$AAL?$AAa?$AAt?$AAn?$AA?$AA@ 1006bf7c     libucrt:lcidtoname_downlevel.obj
 0002:00008f98       ??_C@_1M@HBMHBGAK@?$AAs?$AAv?$AA?9?$AAF?$AAI?$AA?$AA@ 1006bf98     libucrt:lcidtoname_downlevel.obj
 0002:00008fa8       ??_C@_1BG@DGCJGJBE@?$AAa?$AAz?$AA?9?$AAA?$AAZ?$AA?9?$AAC?$AAy?$AAr?$AAl?$AA?$AA@ 1006bfa8     libucrt:lcidtoname_downlevel.obj
 0002:00008fc4       ??_C@_1M@KEJDAAHB@?$AAs?$AAe?$AA?9?$AAS?$AAE?$AA?$AA@ 1006bfc4     libucrt:lcidtoname_downlevel.obj
 0002:00008fd4       ??_C@_1M@HEIBJJAD@?$AAm?$AAs?$AA?9?$AAB?$AAN?$AA?$AA@ 1006bfd4     libucrt:lcidtoname_downlevel.obj
 0002:00008fe4       ??_C@_1BG@PBGJMCEM@?$AAu?$AAz?$AA?9?$AAU?$AAZ?$AA?9?$AAC?$AAy?$AAr?$AAl?$AA?$AA@ 1006bfe4     libucrt:lcidtoname_downlevel.obj
 0002:00009000       ??_C@_1O@LAOBCMDF@?$AAq?$AAu?$AAz?$AA?9?$AAE?$AAC?$AA?$AA@ 1006c000     libucrt:lcidtoname_downlevel.obj
 0002:00009010       ??_C@_1M@POEEMAIO@?$AAa?$AAr?$AA?9?$AAE?$AAG?$AA?$AA@ 1006c010     libucrt:lcidtoname_downlevel.obj
 0002:00009020       ??_C@_1M@EFAKDEDL@?$AAz?$AAh?$AA?9?$AAH?$AAK?$AA?$AA@ 1006c020     libucrt:lcidtoname_downlevel.obj
 0002:00009030       ??_C@_1M@HKKIJHGI@?$AAd?$AAe?$AA?9?$AAA?$AAT?$AA?$AA@ 1006c030     libucrt:lcidtoname_downlevel.obj
 0002:00009040       ??_C@_1M@KBFBEHJF@?$AAe?$AAn?$AA?9?$AAA?$AAU?$AA?$AA@ 1006c040     libucrt:lcidtoname_downlevel.obj
 0002:00009050       ??_C@_1M@MNPLFAAH@?$AAe?$AAs?$AA?9?$AAE?$AAS?$AA?$AA@ 1006c050     libucrt:lcidtoname_downlevel.obj
 0002:00009060       ??_C@_1M@HJOOJFMA@?$AAf?$AAr?$AA?9?$AAC?$AAA?$AA?$AA@ 1006c060     libucrt:lcidtoname_downlevel.obj
 0002:00009070       ??_C@_1BG@JPOFPNAB@?$AAs?$AAr?$AA?9?$AAS?$AAP?$AA?9?$AAC?$AAy?$AAr?$AAl?$AA?$AA@ 1006c070     libucrt:lcidtoname_downlevel.obj
 0002:0000908c       ??_C@_1M@LNFOCMOB@?$AAs?$AAe?$AA?9?$AAF?$AAI?$AA?$AA@ 1006c08c     libucrt:lcidtoname_downlevel.obj
 0002:0000909c       ??_C@_1O@MGJBOAMB@?$AAq?$AAu?$AAz?$AA?9?$AAP?$AAE?$AA?$AA@ 1006c09c     libucrt:lcidtoname_downlevel.obj
 0002:000090ac       ??_C@_1M@GJINLBOK@?$AAa?$AAr?$AA?9?$AAL?$AAY?$AA?$AA@ 1006c0ac     libucrt:lcidtoname_downlevel.obj
 0002:000090bc       ??_C@_1M@GGMNHJNL@?$AAz?$AAh?$AA?9?$AAS?$AAG?$AA?$AA@ 1006c0bc     libucrt:lcidtoname_downlevel.obj
 0002:000090cc       ??_C@_1M@HOIKODND@?$AAd?$AAe?$AA?9?$AAL?$AAU?$AA?$AA@ 1006c0cc     libucrt:lcidtoname_downlevel.obj
 0002:000090dc       ??_C@_1M@DDOCCGFG@?$AAe?$AAn?$AA?9?$AAC?$AAA?$AA?$AA@ 1006c0dc     libucrt:lcidtoname_downlevel.obj
 0002:000090ec       ??_C@_1M@BNOEMJLF@?$AAe?$AAs?$AA?9?$AAG?$AAT?$AA?$AA@ 1006c0ec     libucrt:lcidtoname_downlevel.obj
 0002:000090fc       ??_C@_1M@EOGNKEK@?$AAf?$AAr?$AA?9?$AAC?$AAH?$AA?$AA@ 1006c0fc     libucrt:lcidtoname_downlevel.obj
 0002:0000910c       ??_C@_1M@FLIDJFHL@?$AAh?$AAr?$AA?9?$AAB?$AAA?$AA?$AA@ 1006c10c     libucrt:lcidtoname_downlevel.obj
 0002:0000911c       ??_C@_1O@FMCELNAJ@?$AAs?$AAm?$AAj?$AA?9?$AAN?$AAO?$AA?$AA@ 1006c11c     libucrt:lcidtoname_downlevel.obj
 0002:0000912c       ??_C@_1M@JHGLJMGJ@?$AAa?$AAr?$AA?9?$AAD?$AAZ?$AA?$AA@ 1006c12c     libucrt:lcidtoname_downlevel.obj
 0002:0000913c       ??_C@_1M@JKKFDCNP@?$AAz?$AAh?$AA?9?$AAM?$AAO?$AA?$AA@ 1006c13c     libucrt:lcidtoname_downlevel.obj
 0002:0000914c       ??_C@_1M@GEEFALPE@?$AAd?$AAe?$AA?9?$AAL?$AAI?$AA?$AA@ 1006c14c     libucrt:lcidtoname_downlevel.obj
 0002:0000915c       ??_C@_1M@IGEOFBG@?$AAe?$AAn?$AA?9?$AAN?$AAZ?$AA?$AA@ 1006c15c     libucrt:lcidtoname_downlevel.obj
 0002:0000916c       ??_C@_1M@KDBONEHP@?$AAe?$AAs?$AA?9?$AAC?$AAR?$AA?$AA@ 1006c16c     libucrt:lcidtoname_downlevel.obj
 0002:0000917c       ??_C@_1M@FHMDOHNN@?$AAf?$AAr?$AA?9?$AAL?$AAU?$AA?$AA@ 1006c17c     libucrt:lcidtoname_downlevel.obj
 0002:0000918c       ??_C@_1BG@NFKKMAFG@?$AAb?$AAs?$AA?9?$AAB?$AAA?$AA?9?$AAL?$AAa?$AAt?$AAn?$AA?$AA@ 1006c18c     libucrt:lcidtoname_downlevel.obj
 0002:000091a8       ??_C@_1O@IMNBEMCI@?$AAs?$AAm?$AAj?$AA?9?$AAS?$AAE?$AA?$AA@ 1006c1a8     libucrt:lcidtoname_downlevel.obj
 0002:000091b8       ??_C@_1M@DHHMBNDP@?$AAa?$AAr?$AA?9?$AAM?$AAA?$AA?$AA@ 1006c1b8     libucrt:lcidtoname_downlevel.obj
 0002:000091c8       ??_C@_1M@BNBLJCGH@?$AAe?$AAn?$AA?9?$AAI?$AAE?$AA?$AA@ 1006c1c8     libucrt:lcidtoname_downlevel.obj
 0002:000091d8       ??_C@_1M@GEPAFMDL@?$AAe?$AAs?$AA?9?$AAP?$AAA?$AA?$AA@ 1006c1d8     libucrt:lcidtoname_downlevel.obj
 0002:000091e8       ??_C@_1M@OJONDMDL@?$AAf?$AAr?$AA?9?$AAM?$AAC?$AA?$AA@ 1006c1e8     libucrt:lcidtoname_downlevel.obj
 0002:000091f8       ??_C@_1BG@OBCNFJB@?$AAs?$AAr?$AA?9?$AAB?$AAA?$AA?9?$AAL?$AAa?$AAt?$AAn?$AA?$AA@ 1006c1f8     libucrt:lcidtoname_downlevel.obj
 0002:00009214       ??_C@_1O@KEMEEGPO@?$AAs?$AAm?$AAa?$AA?9?$AAN?$AAO?$AA?$AA@ 1006c214     libucrt:lcidtoname_downlevel.obj
 0002:00009224       ??_C@_1M@ELMGFODK@?$AAa?$AAr?$AA?9?$AAT?$AAN?$AA?$AA@ 1006c224     libucrt:lcidtoname_downlevel.obj
 0002:00009234       ??_C@_1M@BHDLHFAF@?$AAe?$AAn?$AA?9?$AAZ?$AAA?$AA?$AA@ 1006c234     libucrt:lcidtoname_downlevel.obj
 0002:00009244       ??_C@_1M@BMGIGLIF@?$AAe?$AAs?$AA?9?$AAD?$AAO?$AA?$AA@ 1006c244     libucrt:lcidtoname_downlevel.obj
 0002:00009254       ??_C@_1BG@CMBHIPBE@?$AAs?$AAr?$AA?9?$AAB?$AAA?$AA?9?$AAC?$AAy?$AAr?$AAl?$AA?$AA@ 1006c254     libucrt:lcidtoname_downlevel.obj
 0002:00009270       ??_C@_1O@HEDBLHNP@?$AAs?$AAm?$AAa?$AA?9?$AAS?$AAE?$AA?$AA@ 1006c270     libucrt:lcidtoname_downlevel.obj
 0002:00009280       ??_C@_1M@DAGCADIM@?$AAa?$AAr?$AA?9?$AAO?$AAM?$AA?$AA@ 1006c280     libucrt:lcidtoname_downlevel.obj
 0002:00009290       ??_C@_1M@FODLMICG@?$AAe?$AAn?$AA?9?$AAJ?$AAM?$AA?$AA@ 1006c290     libucrt:lcidtoname_downlevel.obj
 0002:000092a0       ??_C@_1M@DNMLCIHB@?$AAe?$AAs?$AA?9?$AAV?$AAE?$AA?$AA@ 1006c2a0     libucrt:lcidtoname_downlevel.obj
 0002:000092b0       ??_C@_1O@EOKHMKJK@?$AAs?$AAm?$AAs?$AA?9?$AAF?$AAI?$AA?$AA@ 1006c2b0     libucrt:lcidtoname_downlevel.obj
 0002:000092c0       ??_C@_1M@CAFJMKOF@?$AAa?$AAr?$AA?9?$AAY?$AAE?$AA?$AA@ 1006c2c0     libucrt:lcidtoname_downlevel.obj
 0002:000092d0       ??_C@_1M@CBFHIJLI@?$AAe?$AAn?$AA?9?$AAC?$AAB?$AA?$AA@ 1006c2d0     libucrt:lcidtoname_downlevel.obj
 0002:000092e0       ??_C@_1M@BGNFLDN@?$AAe?$AAs?$AA?9?$AAC?$AAO?$AA?$AA@ 1006c2e0     libucrt:lcidtoname_downlevel.obj
 0002:000092f0       ??_C@_1O@JMPHMAMC@?$AAs?$AAm?$AAn?$AA?9?$AAF?$AAI?$AA?$AA@ 1006c2f0     libucrt:lcidtoname_downlevel.obj
 0002:00009300       ??_C@_1M@JLANABKE@?$AAa?$AAr?$AA?9?$AAS?$AAY?$AA?$AA@ 1006c300     libucrt:lcidtoname_downlevel.obj
 0002:00009310       ??_C@_1M@HPKGCFGN@?$AAe?$AAn?$AA?9?$AAB?$AAZ?$AA?$AA@ 1006c310     libucrt:lcidtoname_downlevel.obj
 0002:00009320       ??_C@_1M@OLJCMLGM@?$AAe?$AAs?$AA?9?$AAP?$AAE?$AA?$AA@ 1006c320     libucrt:lcidtoname_downlevel.obj
 0002:00009330       ??_C@_1M@MKKGFKLE@?$AAa?$AAr?$AA?9?$AAJ?$AAO?$AA?$AA@ 1006c330     libucrt:lcidtoname_downlevel.obj
 0002:00009340       ??_C@_1M@EKPGLDNI@?$AAe?$AAn?$AA?9?$AAT?$AAT?$AA?$AA@ 1006c340     libucrt:lcidtoname_downlevel.obj
 0002:00009350       ??_C@_1M@OONGHFHE@?$AAe?$AAs?$AA?9?$AAA?$AAR?$AA?$AA@ 1006c350     libucrt:lcidtoname_downlevel.obj
 0002:00009360       ??_C@_1M@OOJFGBHE@?$AAa?$AAr?$AA?9?$AAL?$AAB?$AA?$AA@ 1006c360     libucrt:lcidtoname_downlevel.obj
 0002:00009370       ??_C@_1M@GCEJHNEG@?$AAe?$AAn?$AA?9?$AAZ?$AAW?$AA?$AA@ 1006c370     libucrt:lcidtoname_downlevel.obj
 0002:00009380       ??_C@_1M@JNOCAHJI@?$AAe?$AAs?$AA?9?$AAE?$AAC?$AA?$AA@ 1006c380     libucrt:lcidtoname_downlevel.obj
 0002:00009390       ??_C@_1M@JEFHPGGB@?$AAa?$AAr?$AA?9?$AAK?$AAW?$AA?$AA@ 1006c390     libucrt:lcidtoname_downlevel.obj
 0002:000093a0       ??_C@_1M@MLKIBJOJ@?$AAe?$AAn?$AA?9?$AAP?$AAH?$AA?$AA@ 1006c3a0     libucrt:lcidtoname_downlevel.obj
 0002:000093b0       ??_C@_1M@BDNIPEND@?$AAe?$AAs?$AA?9?$AAC?$AAL?$AA?$AA@ 1006c3b0     libucrt:lcidtoname_downlevel.obj
 0002:000093c0       ??_C@_1M@MPNMEKBD@?$AAa?$AAr?$AA?9?$AAA?$AAE?$AA?$AA@ 1006c3c0     libucrt:lcidtoname_downlevel.obj
 0002:000093d0       ??_C@_1M@KBJALCPI@?$AAe?$AAs?$AA?9?$AAU?$AAY?$AA?$AA@ 1006c3d0     libucrt:lcidtoname_downlevel.obj
 0002:000093e0       ??_C@_1M@LLCCOAGA@?$AAa?$AAr?$AA?9?$AAB?$AAH?$AA?$AA@ 1006c3e0     libucrt:lcidtoname_downlevel.obj
 0002:000093f0       ??_C@_1M@PBFNCDEL@?$AAe?$AAs?$AA?9?$AAP?$AAY?$AA?$AA@ 1006c3f0     libucrt:lcidtoname_downlevel.obj
 0002:00009400       ??_C@_1M@EDGINPNP@?$AAa?$AAr?$AA?9?$AAQ?$AAA?$AA?$AA@ 1006c400     libucrt:lcidtoname_downlevel.obj
 0002:00009410       ??_C@_1M@MKDBIIJI@?$AAe?$AAs?$AA?9?$AAB?$AAO?$AA?$AA@ 1006c410     libucrt:lcidtoname_downlevel.obj
 0002:00009420       ??_C@_1M@CPKKEBLD@?$AAe?$AAs?$AA?9?$AAS?$AAV?$AA?$AA@ 1006c420     libucrt:lcidtoname_downlevel.obj
 0002:00009430       ??_C@_1M@NDBGMMJL@?$AAe?$AAs?$AA?9?$AAH?$AAN?$AA?$AA@ 1006c430     libucrt:lcidtoname_downlevel.obj
 0002:00009440       ??_C@_1M@JIJIBHDP@?$AAe?$AAs?$AA?9?$AAN?$AAI?$AA?$AA@ 1006c440     libucrt:lcidtoname_downlevel.obj
 0002:00009450       ??_C@_1M@CGFMKEEK@?$AAe?$AAs?$AA?9?$AAP?$AAR?$AA?$AA@ 1006c450     libucrt:lcidtoname_downlevel.obj
 0002:00009460       ??_C@_1O@ICJHKIIK@?$AAz?$AAh?$AA?9?$AAC?$AAH?$AAT?$AA?$AA@ 1006c460     libucrt:lcidtoname_downlevel.obj
 0002:00009470       ??_C@_15CLNEJCE@?$AAs?$AAr?$AA?$AA@ 1006c470     libucrt:lcidtoname_downlevel.obj
 0002:00009d04       ??_C@_1M@KAHEKEIG@?$AAa?$AAf?$AA?9?$AAz?$AAa?$AA?$AA@ 1006cd04     libucrt:lcidtoname_downlevel.obj
 0002:00009d14       ??_C@_1M@GIECOABL@?$AAa?$AAr?$AA?9?$AAa?$AAe?$AA?$AA@ 1006cd14     libucrt:lcidtoname_downlevel.obj
 0002:00009d24       ??_C@_1M@BMLMEKGI@?$AAa?$AAr?$AA?9?$AAb?$AAh?$AA?$AA@ 1006cd24     libucrt:lcidtoname_downlevel.obj
 0002:00009d34       ??_C@_1M@DAPFDGGB@?$AAa?$AAr?$AA?9?$AAd?$AAz?$AA?$AA@ 1006cd34     libucrt:lcidtoname_downlevel.obj
 0002:00009d44       ??_C@_1M@FJNKGKIG@?$AAa?$AAr?$AA?9?$AAe?$AAg?$AA?$AA@ 1006cd44     libucrt:lcidtoname_downlevel.obj
 0002:00009d54       ??_C@_1M@FLGKKCLO@?$AAa?$AAr?$AA?9?$AAi?$AAq?$AA?$AA@ 1006cd54     libucrt:lcidtoname_downlevel.obj
 0002:00009d64       ??_C@_1M@GNDIPALM@?$AAa?$AAr?$AA?9?$AAj?$AAo?$AA?$AA@ 1006cd64     libucrt:lcidtoname_downlevel.obj
 0002:00009d74       ??_C@_1M@DDMJFMGJ@?$AAa?$AAr?$AA?9?$AAk?$AAw?$AA?$AA@ 1006cd74     libucrt:lcidtoname_downlevel.obj
 0002:00009d84       ??_C@_1M@EJALMLHM@?$AAa?$AAr?$AA?9?$AAl?$AAb?$AA?$AA@ 1006cd84     libucrt:lcidtoname_downlevel.obj
 0002:00009d94       ??_C@_1M@MOBDBLOC@?$AAa?$AAr?$AA?9?$AAl?$AAy?$AA?$AA@ 1006cd94     libucrt:lcidtoname_downlevel.obj
 0002:00009da4       ??_C@_1M@JAOCLHDH@?$AAa?$AAr?$AA?9?$AAm?$AAa?$AA?$AA@ 1006cda4     libucrt:lcidtoname_downlevel.obj
 0002:00009db4       ??_C@_1M@JHPMKJIE@?$AAa?$AAr?$AA?9?$AAo?$AAm?$AA?$AA@ 1006cdb4     libucrt:lcidtoname_downlevel.obj
 0002:00009dc4       ??_C@_1M@OEPGHFNH@?$AAa?$AAr?$AA?9?$AAq?$AAa?$AA?$AA@ 1006cdc4     libucrt:lcidtoname_downlevel.obj
 0002:00009dd4       ??_C@_1M@KJDONENM@?$AAa?$AAr?$AA?9?$AAs?$AAa?$AA?$AA@ 1006cdd4     libucrt:lcidtoname_downlevel.obj
 0002:00009de4       ??_C@_1M@DMJDKLKM@?$AAa?$AAr?$AA?9?$AAs?$AAy?$AA?$AA@ 1006cde4     libucrt:lcidtoname_downlevel.obj
 0002:00009df4       ??_C@_1M@OMFIPEDC@?$AAa?$AAr?$AA?9?$AAt?$AAn?$AA?$AA@ 1006cdf4     libucrt:lcidtoname_downlevel.obj
 0002:00009e04       ??_C@_1M@IHMHGAON@?$AAa?$AAr?$AA?9?$AAy?$AAe?$AA?$AA@ 1006ce04     libucrt:lcidtoname_downlevel.obj
 0002:00009e14       ??_C@_1BG@KDCPGJGB@?$AAa?$AAz?$AA?9?$AAa?$AAz?$AA?9?$AAc?$AAy?$AAr?$AAl?$AA?$AA@ 1006ce14     libucrt:lcidtoname_downlevel.obj
 0002:00009e30       ??_C@_1BG@IBCKDDOE@?$AAa?$AAz?$AA?9?$AAa?$AAz?$AA?9?$AAl?$AAa?$AAt?$AAn?$AA?$AA@ 1006ce30     libucrt:lcidtoname_downlevel.obj
 0002:00009e4c       ??_C@_1M@EGPFDCPD@?$AAb?$AAe?$AA?9?$AAb?$AAy?$AA?$AA@ 1006ce4c     libucrt:lcidtoname_downlevel.obj
 0002:00009e5c       ??_C@_1M@PCMGMCGC@?$AAb?$AAg?$AA?9?$AAb?$AAg?$AA?$AA@ 1006ce5c     libucrt:lcidtoname_downlevel.obj
 0002:00009e6c       ??_C@_1M@BJBMFGOB@?$AAb?$AAn?$AA?9?$AAi?$AAn?$AA?$AA@ 1006ce6c     libucrt:lcidtoname_downlevel.obj
 0002:00009e7c       ??_C@_1BG@EAKMMACD@?$AAb?$AAs?$AA?9?$AAb?$AAa?$AA?9?$AAl?$AAa?$AAt?$AAn?$AA?$AA@ 1006ce7c     libucrt:lcidtoname_downlevel.obj
 0002:00009e98       ??_C@_1M@KGADAODK@?$AAc?$AAa?$AA?9?$AAe?$AAs?$AA?$AA@ 1006ce98     libucrt:lcidtoname_downlevel.obj
 0002:00009ea8       ??_C@_1M@COAJPDHI@?$AAc?$AAs?$AA?9?$AAc?$AAz?$AA?$AA@ 1006cea8     libucrt:lcidtoname_downlevel.obj
 0002:00009eb8       ??_C@_1M@DHBHFONH@?$AAc?$AAy?$AA?9?$AAg?$AAb?$AA?$AA@ 1006ceb8     libucrt:lcidtoname_downlevel.obj
 0002:00009ec8       ??_C@_1M@IMGKELGA@?$AAd?$AAa?$AA?9?$AAd?$AAk?$AA?$AA@ 1006cec8     libucrt:lcidtoname_downlevel.obj
 0002:00009ed8       ??_C@_1M@NNDGDNGA@?$AAd?$AAe?$AA?9?$AAa?$AAt?$AA?$AA@ 1006ced8     libucrt:lcidtoname_downlevel.obj
 0002:00009ee8       ??_C@_1M@IKDBHEEM@?$AAd?$AAe?$AA?9?$AAc?$AAh?$AA?$AA@ 1006cee8     libucrt:lcidtoname_downlevel.obj
 0002:00009ef8       ??_C@_1M@GFFOJMCJ@?$AAd?$AAe?$AA?9?$AAd?$AAe?$AA?$AA@ 1006cef8     libucrt:lcidtoname_downlevel.obj
 0002:00009f08       ??_C@_1M@MDNLKBPM@?$AAd?$AAe?$AA?9?$AAl?$AAi?$AA?$AA@ 1006cf08     libucrt:lcidtoname_downlevel.obj
 0002:00009f18       ??_C@_1M@NJBEEJNL@?$AAd?$AAe?$AA?9?$AAl?$AAu?$AA?$AA@ 1006cf18     libucrt:lcidtoname_downlevel.obj
 0002:00009f28       ??_C@_1O@GNNELBAP@?$AAd?$AAi?$AAv?$AA?9?$AAm?$AAv?$AA?$AA@ 1006cf28     libucrt:lcidtoname_downlevel.obj
 0002:00009f38       ??_C@_1M@EJLEOGAE@?$AAe?$AAl?$AA?9?$AAg?$AAr?$AA?$AA@ 1006cf38     libucrt:lcidtoname_downlevel.obj
 0002:00009f48       ??_C@_1M@GMPONJN@?$AAe?$AAn?$AA?9?$AAa?$AAu?$AA?$AA@ 1006cf48     libucrt:lcidtoname_downlevel.obj
 0002:00009f58       ??_C@_1M@NIDIIPGF@?$AAe?$AAn?$AA?9?$AAb?$AAz?$AA?$AA@ 1006cf58     libucrt:lcidtoname_downlevel.obj
 0002:00009f68       ??_C@_1M@JEHMIMFO@?$AAe?$AAn?$AA?9?$AAc?$AAa?$AA?$AA@ 1006cf68     libucrt:lcidtoname_downlevel.obj
 0002:00009f78       ??_C@_1M@IGMJCDLA@?$AAe?$AAn?$AA?9?$AAc?$AAb?$AA?$AA@ 1006cf78     libucrt:lcidtoname_downlevel.obj
 0002:00009f88       ??_C@_1M@BNFIGBKG@?$AAe?$AAn?$AA?9?$AAg?$AAb?$AA?$AA@ 1006cf88     libucrt:lcidtoname_downlevel.obj
 0002:00009f98       ??_C@_1M@LKIFDIGP@?$AAe?$AAn?$AA?9?$AAi?$AAe?$AA?$AA@ 1006cf98     libucrt:lcidtoname_downlevel.obj
 0002:00009fa8       ??_C@_1M@PJKFGCCO@?$AAe?$AAn?$AA?9?$AAj?$AAm?$AA?$AA@ 1006cfa8     libucrt:lcidtoname_downlevel.obj
 0002:00009fb8       ??_C@_1M@KPPKEPBO@?$AAe?$AAn?$AA?9?$AAn?$AAz?$AA?$AA@ 1006cfb8     libucrt:lcidtoname_downlevel.obj
 0002:00009fc8       ??_C@_1M@GMDGLDOB@?$AAe?$AAn?$AA?9?$AAp?$AAh?$AA?$AA@ 1006cfc8     libucrt:lcidtoname_downlevel.obj
 0002:00009fd8       ??_C@_1M@ONGIBJNA@?$AAe?$AAn?$AA?9?$AAt?$AAt?$AA?$AA@ 1006cfd8     libucrt:lcidtoname_downlevel.obj
 0002:00009fe8       ??_C@_1M@LLODPCMM@?$AAe?$AAn?$AA?9?$AAu?$AAs?$AA?$AA@ 1006cfe8     libucrt:lcidtoname_downlevel.obj
 0002:00009ff8       ??_C@_1M@LAKFNPAN@?$AAe?$AAn?$AA?9?$AAz?$AAa?$AA?$AA@ 1006cff8     libucrt:lcidtoname_downlevel.obj
 0002:0000a008       ??_C@_1M@MFNHNHEO@?$AAe?$AAn?$AA?9?$AAz?$AAw?$AA?$AA@ 1006d008     libucrt:lcidtoname_downlevel.obj
 0002:0000a018       ??_C@_1M@EJEINPHM@?$AAe?$AAs?$AA?9?$AAa?$AAr?$AA?$AA@ 1006d018     libucrt:lcidtoname_downlevel.obj
